 clidemo

 Timestamp is 5ba465c1 (Fri Sep 21 11:30:09 2018)

 Preferred load address is 00400000

 Start         Length     Name                   Class
 0001:00000000 00007a6dH .text                   CODE
 0001:00007a70 000bb449H .text$mn                CODE
 0001:000c2ec0 000010e8H .text$x                 CODE
 0002:00000000 00000104H .CRT$XCA                DATA
 0002:00000104 00000104H .CRT$XCAA               DATA
 0002:00000208 00000104H .CRT$XCZ                DATA
 0002:0000030c 00000104H .CRT$XIA                DATA
 0002:00000410 00000104H .CRT$XIAA               DATA
 0002:00000514 00000104H .CRT$XIAC               DATA
 0002:00000618 0000010eH .CRT$XIC                DATA
 0002:00000728 00000104H .CRT$XIZ                DATA
 0002:0000082c 00000104H .CRT$XPA                DATA
 0002:00000930 00000109H .CRT$XPX                DATA
 0002:00000a3c 00000104H .CRT$XPXA               DATA
 0002:00000b40 00000104H .CRT$XPZ                DATA
 0002:00000c44 00000104H .CRT$XTA                DATA
 0002:00000d48 00000104H .CRT$XTZ                DATA
 0002:00000e50 00022f72H .rdata                  DATA
 0002:00023dc4 00000443H .rdata$r                DATA
 0002:00024210 0000012bH .rdata$sxdata           DATA
 0002:00024340 00000113H .rdata$zETW0            DATA
 0002:00024453 0000018eH .rdata$zETW1            DATA
 0002:000245e1 00000134H .rdata$zETW2            DATA
 0002:00024715 00000101H .rdata$zETW9            DATA
 0002:00024818 000001acH .rdata$zzzdbg           DATA
 0002:000249c4 00000104H .rtc$IAA                DATA
 0002:00024ac8 00000104H .rtc$IZZ                DATA
 0002:00024bcc 00000104H .rtc$TAA                DATA
 0002:00024cd0 00000104H .rtc$TZZ                DATA
 0002:00024dd8 00001024H .xdata$x                DATA
 0002:00025dfc 00000000H .edata                  DATA
 0003:00000000 0000c4b2H .data                   DATA
 0003:0000c4b4 00000244H .data$r                 DATA
 0003:0000c6f8 00001ba8H .bss                    DATA
 0004:00000000 00000368H .idata$5                DATA
 0004:00000368 00000050H .idata$2                DATA
 0004:000003b8 00000014H .idata$3                DATA
 0004:000003cc 00000368H .idata$4                DATA
 0004:00000734 00000ac3H .idata$6                DATA
 0005:00000000 00000104H .00cfg                  DATA

  Address         Publics by Value              Rva+Base       Lib:Object

 0000:00000000       ___guard_fids_table        00000000     <absolute>
 0000:00000000       __except_list              00000000     <absolute>
 0000:00000000       ___guard_fids_count        00000000     <absolute>
 0000:00000009       ___safe_se_handler_count   00000009     <absolute>
 0000:00000100       ___guard_flags             00000100     <absolute>
 0000:00000000       ___ImageBase               00400000     <linker-defined>
 0001:00007490       ?TraceLoggingRegister@__vcrt_trace_logging_provider@@YAJPBU_TlgProvider_t@1@PBU_GUID@@P6GX1KE_K2PAU_EVENT_FILTER_DESCRIPTOR@@PAX@Z4@Z 00408490 f i libvcruntimed:telemetry.obj
 0001:00007580       ?TraceLoggingSetInformation@__vcrt_trace_logging_provider@@YAJPBU_TlgProvider_t@1@W4_EVENT_INFO_CLASS@@PAXK@Z 00408580 f i libvcruntimed:telemetry.obj
 0001:000075d0       ?TraceLoggingUnregister@__vcrt_trace_logging_provider@@YAXPBU_TlgProvider_t@1@@Z 004085d0 f i libvcruntimed:telemetry.obj
 0001:00007610       ?_TlgCreateSz@__vcrt_trace_logging_provider@@YAXPAU_EVENT_DATA_DESCRIPTOR@@PBD@Z 00408610 f i libvcruntimed:telemetry.obj
 0001:00007670       ?_TlgCreateWsz@__vcrt_trace_logging_provider@@YAXPAU_EVENT_DATA_DESCRIPTOR@@PB_W@Z 00408670 f i libvcruntimed:telemetry.obj
 0001:000076d0       ?_TlgEnableCallback@__vcrt_trace_logging_provider@@YGXPBU_GUID@@KE_K1PAU_EVENT_FILTER_DESCRIPTOR@@PAX@Z 004086d0 f i libvcruntimed:telemetry.obj
 0001:000077d0       ?_TlgKeywordOn@__vcrt_trace_logging_provider@@YAEPBU_TlgProvider_t@1@_K@Z 004087d0 f i libvcruntimed:telemetry.obj
 0001:00007860       ?_TlgWrite@__vcrt_trace_logging_provider@@YAJPBU_TlgProvider_t@1@PBXPBU_GUID@@2IPAU_EVENT_DATA_DESCRIPTOR@@@Z 00408860 f i libvcruntimed:telemetry.obj
 0001:00007a70       _app_main                  00408a70 f   clidemo.obj
 0001:00007df0       _main                      00408df0 f   clidemo.obj
 0001:00008150       _pjlib_util_init           00409150 f   pjlib-util-i386-win32-vc14-debug:errno.obj
 0001:000081a0       _pjlib_util_strerror       004091a0 f   pjlib-util-i386-win32-vc14-debug:errno.obj
 0001:00008340       ___local_stdio_printf_options 00409340 f i pjlib-util-i386-win32-vc14-debug:errno.obj
 0001:00008350       __snprintf                 00409350 f i pjlib-util-i386-win32-vc14-debug:errno.obj
 0001:000083a0       __vsnprintf                004093a0 f i pjlib-util-i386-win32-vc14-debug:errno.obj
 0001:000083d0       __vsnprintf_l              004093d0 f i pjlib-util-i386-win32-vc14-debug:errno.obj
 0001:00008460       _pj_cli_write_log          00409460 f   pjlib-util-i386-win32-vc14-debug:cli.obj
 0001:000084e0       _pj_cli_create             004094e0 f   pjlib-util-i386-win32-vc14-debug:cli.obj
 0001:00008680       _pj_cli_get_cmd_id         00409680 f   pjlib-util-i386-win32-vc14-debug:cli.obj
 0001:00008690       _pj_cli_get_param          00409690 f   pjlib-util-i386-win32-vc14-debug:cli.obj
 0001:000086d0       _pj_cli_quit               004096d0 f   pjlib-util-i386-win32-vc14-debug:cli.obj
 0001:00008760       _pj_cli_is_quitting        00409760 f   pjlib-util-i386-win32-vc14-debug:cli.obj
 0001:000087a0       _pj_cli_is_restarting      004097a0 f   pjlib-util-i386-win32-vc14-debug:cli.obj
 0001:000087e0       _pj_cli_destroy            004097e0 f   pjlib-util-i386-win32-vc14-debug:cli.obj
 0001:00008880       _pj_cli_cfg_default        00409880 f   pjlib-util-i386-win32-vc14-debug:cli.obj
 0001:000088d0       _pj_cli_register_front_end 004098d0 f   pjlib-util-i386-win32-vc14-debug:cli.obj
 0001:000088f0       _pj_cli_add_cmd_from_xml   004098f0 f   pjlib-util-i386-win32-vc14-debug:cli.obj
 0001:00008a00       _pj_cli_exec_info_default  00409a00 f   pjlib-util-i386-win32-vc14-debug:cli.obj
 0001:00008a50       _pj_cli_sess_write_msg     00409a50 f   pjlib-util-i386-win32-vc14-debug:cli.obj
 0001:00008ab0       _pj_cli_sess_parse         00409ab0 f   pjlib-util-i386-win32-vc14-debug:cli.obj
 0001:00008ee0       _pj_cli_sess_end_session   00409ee0 f   pjlib-util-i386-win32-vc14-debug:cli.obj
 0001:00008f30       _pj_cli_sess_exec          00409f30 f   pjlib-util-i386-win32-vc14-debug:cli.obj
 0001:0000b640       __vsprintf_l               0040c640 f i pjlib-util-i386-win32-vc14-debug:cli.obj
 0001:0000b690       _sprintf                   0040c690 f i pjlib-util-i386-win32-vc14-debug:cli.obj
 0001:0000b6d0       _pj_cli_console_cfg_default 0040c6d0 f   pjlib-util-i386-win32-vc14-debug:cli_console.obj
 0001:0000b710       _pj_cli_console_create     0040c710 f   pjlib-util-i386-win32-vc14-debug:cli_console.obj
 0001:0000b990       _pj_cli_console_process    0040c990 f   pjlib-util-i386-win32-vc14-debug:cli_console.obj
 0001:0000cdd0       __vfprintf_l               0040ddd0 f i pjlib-util-i386-win32-vc14-debug:cli_console.obj
 0001:0000ce30       _printf                    0040de30 f i pjlib-util-i386-win32-vc14-debug:cli_console.obj
 0001:0000cec0       _pj_cli_telnet_cfg_default 0040dec0 f   pjlib-util-i386-win32-vc14-debug:cli_telnet.obj
 0001:0000cf10       _pj_cli_telnet_create      0040df10 f   pjlib-util-i386-win32-vc14-debug:cli_telnet.obj
 0001:0000d0f0       _pj_cli_telnet_get_info    0040e0f0 f   pjlib-util-i386-win32-vc14-debug:cli_telnet.obj
 0001:000111b0       _pj_cis_buf_init           004121b0 f   pjlib-util-i386-win32-vc14-debug:scanner.obj
 0001:000111e0       _pj_cis_init               004121e0 f   pjlib-util-i386-win32-vc14-debug:scanner.obj
 0001:00011260       _pj_cis_dup                00412260 f   pjlib-util-i386-win32-vc14-debug:scanner.obj
 0001:00011320       _pj_cis_add_range          00412320 f   pjlib-util-i386-win32-vc14-debug:scanner.obj
 0001:00011380       _pj_cis_add_alpha          00412380 f   pjlib-util-i386-win32-vc14-debug:scanner.obj
 0001:000113b0       _pj_cis_add_num            004123b0 f   pjlib-util-i386-win32-vc14-debug:scanner.obj
 0001:000113d0       _pj_cis_add_str            004123d0 f   pjlib-util-i386-win32-vc14-debug:scanner.obj
 0001:00011420       _pj_cis_add_cis            00412420 f   pjlib-util-i386-win32-vc14-debug:scanner.obj
 0001:00011490       _pj_cis_del_range          00412490 f   pjlib-util-i386-win32-vc14-debug:scanner.obj
 0001:000114d0       _pj_cis_del_str            004124d0 f   pjlib-util-i386-win32-vc14-debug:scanner.obj
 0001:00011520       _pj_cis_invert             00412520 f   pjlib-util-i386-win32-vc14-debug:scanner.obj
 0001:000115b0       _pj_scan_init              004125b0 f   pjlib-util-i386-win32-vc14-debug:scanner.obj
 0001:00011620       _pj_scan_fini              00412620 f   pjlib-util-i386-win32-vc14-debug:scanner.obj
 0001:00011640       _pj_scan_peek              00412640 f   pjlib-util-i386-win32-vc14-debug:scanner.obj
 0001:000116b0       _pj_scan_peek_n            004126b0 f   pjlib-util-i386-win32-vc14-debug:scanner.obj
 0001:00011700       _pj_scan_peek_until        00412700 f   pjlib-util-i386-win32-vc14-debug:scanner.obj
 0001:00011780       _pj_scan_get               00412780 f   pjlib-util-i386-win32-vc14-debug:scanner.obj
 0001:00011840       _pj_scan_get_unescape      00412840 f   pjlib-util-i386-win32-vc14-debug:scanner.obj
 0001:00011a60       _pj_scan_get_quote         00412a60 f   pjlib-util-i386-win32-vc14-debug:scanner.obj
 0001:00011a90       _pj_scan_get_quotes        00412a90 f   pjlib-util-i386-win32-vc14-debug:scanner.obj
 0001:00011c40       _pj_scan_get_n             00412c40 f   pjlib-util-i386-win32-vc14-debug:scanner.obj
 0001:00011cb0       _pj_scan_get_char          00412cb0 f   pjlib-util-i386-win32-vc14-debug:scanner.obj
 0001:00011d10       _pj_scan_get_until         00412d10 f   pjlib-util-i386-win32-vc14-debug:scanner.obj
 0001:00011db0       _pj_scan_get_until_ch      00412db0 f   pjlib-util-i386-win32-vc14-debug:scanner.obj
 0001:00011e40       _pj_scan_get_until_chr     00412e40 f   pjlib-util-i386-win32-vc14-debug:scanner.obj
 0001:00011ef0       _pj_scan_advance_n         00412ef0 f   pjlib-util-i386-win32-vc14-debug:scanner.obj
 0001:00011f50       _pj_scan_strcmp            00412f50 f   pjlib-util-i386-win32-vc14-debug:scanner.obj
 0001:00011f90       _pj_scan_stricmp           00412f90 f   pjlib-util-i386-win32-vc14-debug:scanner.obj
 0001:00011fd0       _pj_scan_stricmp_alnum     00412fd0 f   pjlib-util-i386-win32-vc14-debug:scanner.obj
 0001:00012010       _pj_scan_get_newline       00413010 f   pjlib-util-i386-win32-vc14-debug:scanner.obj
 0001:000120a0       _pj_scan_skip_whitespace   004130a0 f   pjlib-util-i386-win32-vc14-debug:scanner.obj
 0001:00012290       _pj_scan_skip_line         00413290 f   pjlib-util-i386-win32-vc14-debug:scanner.obj
 0001:000122f0       _pj_scan_save_state        004132f0 f   pjlib-util-i386-win32-vc14-debug:scanner.obj
 0001:00012320       _pj_scan_restore_state     00413320 f   pjlib-util-i386-win32-vc14-debug:scanner.obj
 0001:00012940       _pj_xml_parse              00413940 f   pjlib-util-i386-win32-vc14-debug:xml.obj
 0001:00012a30       _pj_xml_print              00413a30 f   pjlib-util-i386-win32-vc14-debug:xml.obj
 0001:00012ae0       _pj_xml_clone              00413ae0 f   pjlib-util-i386-win32-vc14-debug:xml.obj
 0001:00012bf0       _pj_xml_node_new           00413bf0 f   pjlib-util-i386-win32-vc14-debug:xml.obj
 0001:00012c30       _pj_xml_attr_new           00413c30 f   pjlib-util-i386-win32-vc14-debug:xml.obj
 0001:00012c80       _pj_xml_add_node           00413c80 f   pjlib-util-i386-win32-vc14-debug:xml.obj
 0001:00012ca0       _pj_xml_add_attr           00413ca0 f   pjlib-util-i386-win32-vc14-debug:xml.obj
 0001:00012cc0       _pj_xml_find_node          00413cc0 f   pjlib-util-i386-win32-vc14-debug:xml.obj
 0001:00012d20       _pj_xml_find_next_node     00413d20 f   pjlib-util-i386-win32-vc14-debug:xml.obj
 0001:00012d80       _pj_xml_find_node_rec      00413d80 f   pjlib-util-i386-win32-vc14-debug:xml.obj
 0001:00012e00       _pj_xml_find_attr          00413e00 f   pjlib-util-i386-win32-vc14-debug:xml.obj
 0001:00012e70       _pj_xml_find               00413e70 f   pjlib-util-i386-win32-vc14-debug:xml.obj
 0001:00012f00       _pj_xml_find_rec           00413f00 f   pjlib-util-i386-win32-vc14-debug:xml.obj
 0001:00013d10       _pj_init                   00414d10 f   pjlib-i386-win32-vc14-debug:os_core_win32.obj
 0001:00013ef0       _pj_shutdown               00414ef0 f   pjlib-i386-win32-vc14-debug:os_core_win32.obj
 0001:00014010       _pj_atexit                 00415010 f   pjlib-i386-win32-vc14-debug:os_core_win32.obj
 0001:00014050       _pj_getpid                 00415050 f   pjlib-i386-win32-vc14-debug:os_core_win32.obj
 0001:00014070       _pj_thread_create          00415070 f   pjlib-i386-win32-vc14-debug:os_core_win32.obj
 0001:00014230       _pj_thread_register        00415230 f   pjlib-i386-win32-vc14-debug:os_core_win32.obj
 0001:00014350       _pj_thread_is_registered   00415350 f   pjlib-i386-win32-vc14-debug:os_core_win32.obj
 0001:00014380       _pj_thread_get_prio        00415380 f   pjlib-i386-win32-vc14-debug:os_core_win32.obj
 0001:000143a0       _pj_thread_set_prio        004153a0 f   pjlib-i386-win32-vc14-debug:os_core_win32.obj
 0001:00014470       _pj_thread_get_prio_min    00415470 f   pjlib-i386-win32-vc14-debug:os_core_win32.obj
 0001:00014480       _pj_thread_get_prio_max    00415480 f   pjlib-i386-win32-vc14-debug:os_core_win32.obj
 0001:00014490       _pj_thread_get_os_handle   00415490 f   pjlib-i386-win32-vc14-debug:os_core_win32.obj
 0001:000144d0       _pj_thread_get_name        004154d0 f   pjlib-i386-win32-vc14-debug:os_core_win32.obj
 0001:00014530       _pj_thread_resume          00415530 f   pjlib-i386-win32-vc14-debug:os_core_win32.obj
 0001:000145e0       _pj_thread_this            004155e0 f   pjlib-i386-win32-vc14-debug:os_core_win32.obj
 0001:00014630       _pj_thread_join            00415630 f   pjlib-i386-win32-vc14-debug:os_core_win32.obj
 0001:00014710       _pj_thread_destroy         00415710 f   pjlib-i386-win32-vc14-debug:os_core_win32.obj
 0001:000147c0       _pj_thread_sleep           004157c0 f   pjlib-i386-win32-vc14-debug:os_core_win32.obj
 0001:000147f0       _pj_thread_check_stack     004157f0 f   pjlib-i386-win32-vc14-debug:os_core_win32.obj
 0001:000148b0       _pj_thread_get_stack_max_usage 004158b0 f   pjlib-i386-win32-vc14-debug:os_core_win32.obj
 0001:000148c0       _pj_thread_get_stack_info  004158c0 f   pjlib-i386-win32-vc14-debug:os_core_win32.obj
 0001:00014900       _pj_thread_local_alloc     00415900 f   pjlib-i386-win32-vc14-debug:os_core_win32.obj
 0001:00014990       _pj_thread_local_free      00415990 f   pjlib-i386-win32-vc14-debug:os_core_win32.obj
 0001:000149c0       _pj_thread_local_set       004159c0 f   pjlib-i386-win32-vc14-debug:os_core_win32.obj
 0001:00014a30       _pj_thread_local_get       00415a30 f   pjlib-i386-win32-vc14-debug:os_core_win32.obj
 0001:00014a40       _pj_atomic_create          00415a40 f   pjlib-i386-win32-vc14-debug:os_core_win32.obj
 0001:00014a80       _pj_atomic_destroy         00415a80 f   pjlib-i386-win32-vc14-debug:os_core_win32.obj
 0001:00014ac0       _pj_atomic_set             00415ac0 f   pjlib-i386-win32-vc14-debug:os_core_win32.obj
 0001:00014b10       _pj_atomic_get             00415b10 f   pjlib-i386-win32-vc14-debug:os_core_win32.obj
 0001:00014b60       _pj_atomic_inc             00415b60 f   pjlib-i386-win32-vc14-debug:os_core_win32.obj
 0001:00014ba0       _pj_atomic_inc_and_get     00415ba0 f   pjlib-i386-win32-vc14-debug:os_core_win32.obj
 0001:00014bd0       _pj_atomic_dec             00415bd0 f   pjlib-i386-win32-vc14-debug:os_core_win32.obj
 0001:00014c10       _pj_atomic_dec_and_get     00415c10 f   pjlib-i386-win32-vc14-debug:os_core_win32.obj
 0001:00014c40       _pj_atomic_add             00415c40 f   pjlib-i386-win32-vc14-debug:os_core_win32.obj
 0001:00014c80       _pj_atomic_add_and_get     00415c80 f   pjlib-i386-win32-vc14-debug:os_core_win32.obj
 0001:00014ca0       _pj_mutex_create           00415ca0 f   pjlib-i386-win32-vc14-debug:os_core_win32.obj
 0001:00014d30       _pj_mutex_create_simple    00415d30 f   pjlib-i386-win32-vc14-debug:os_core_win32.obj
 0001:00014d50       _pj_mutex_create_recursive 00415d50 f   pjlib-i386-win32-vc14-debug:os_core_win32.obj
 0001:00014d70       _pj_mutex_lock             00415d70 f   pjlib-i386-win32-vc14-debug:os_core_win32.obj
 0001:00014e00       _pj_mutex_unlock           00415e00 f   pjlib-i386-win32-vc14-debug:os_core_win32.obj
 0001:00014eb0       _pj_mutex_trylock          00415eb0 f   pjlib-i386-win32-vc14-debug:os_core_win32.obj
 0001:00014f60       _pj_mutex_destroy          00415f60 f   pjlib-i386-win32-vc14-debug:os_core_win32.obj
 0001:00014fc0       _pj_mutex_is_locked        00415fc0 f   pjlib-i386-win32-vc14-debug:os_core_win32.obj
 0001:00014ff0       _pj_rwmutex_create         00415ff0 f   pjlib-i386-win32-vc14-debug:os_core_win32.obj
 0001:000150c0       _pj_rwmutex_lock_read      004160c0 f   pjlib-i386-win32-vc14-debug:os_core_win32.obj
 0001:00015190       _pj_rwmutex_lock_write     00416190 f   pjlib-i386-win32-vc14-debug:os_core_win32.obj
 0001:000151d0       _pj_rwmutex_unlock_read    004161d0 f   pjlib-i386-win32-vc14-debug:os_core_win32.obj
 0001:000152a0       _pj_rwmutex_unlock_write   004162a0 f   pjlib-i386-win32-vc14-debug:os_core_win32.obj
 0001:00015310       _pj_rwmutex_destroy        00416310 f   pjlib-i386-win32-vc14-debug:os_core_win32.obj
 0001:00015370       _pj_enter_critical_section 00416370 f   pjlib-i386-win32-vc14-debug:os_core_win32.obj
 0001:00015390       _pj_leave_critical_section 00416390 f   pjlib-i386-win32-vc14-debug:os_core_win32.obj
 0001:000153b0       _pj_sem_create             004163b0 f   pjlib-i386-win32-vc14-debug:os_core_win32.obj
 0001:000154f0       _pj_sem_wait               004164f0 f   pjlib-i386-win32-vc14-debug:os_core_win32.obj
 0001:00015550       _pj_sem_trywait            00416550 f   pjlib-i386-win32-vc14-debug:os_core_win32.obj
 0001:000155b0       _pj_sem_post               004165b0 f   pjlib-i386-win32-vc14-debug:os_core_win32.obj
 0001:00015660       _pj_sem_destroy            00416660 f   pjlib-i386-win32-vc14-debug:os_core_win32.obj
 0001:00015710       _pj_event_create           00416710 f   pjlib-i386-win32-vc14-debug:os_core_win32.obj
 0001:00015890       _pj_event_wait             00416890 f   pjlib-i386-win32-vc14-debug:os_core_win32.obj
 0001:000158e0       _pj_event_trywait          004168e0 f   pjlib-i386-win32-vc14-debug:os_core_win32.obj
 0001:00015930       _pj_event_set              00416930 f   pjlib-i386-win32-vc14-debug:os_core_win32.obj
 0001:000159e0       _pj_event_pulse            004169e0 f   pjlib-i386-win32-vc14-debug:os_core_win32.obj
 0001:00015a90       _pj_event_reset            00416a90 f   pjlib-i386-win32-vc14-debug:os_core_win32.obj
 0001:00015b40       _pj_event_destroy          00416b40 f   pjlib-i386-win32-vc14-debug:os_core_win32.obj
 0001:00015bf0       _pj_term_set_color         00416bf0 f   pjlib-i386-win32-vc14-debug:os_core_win32.obj
 0001:00015c90       _pj_term_get_color         00416c90 f   pjlib-i386-win32-vc14-debug:os_core_win32.obj
 0001:00015ce0       _pj_run_app                00416ce0 f   pjlib-i386-win32-vc14-debug:os_core_win32.obj
 0001:00015d00       _pj_thread_init            00416d00 f   pjlib-i386-win32-vc14-debug:os_core_win32.obj
 0001:00016a50       _pj_strerror               00417a50 f   pjlib-i386-win32-vc14-debug:errno.obj
 0001:00016be0       _pj_perror                 00417be0 f   pjlib-i386-win32-vc14-debug:errno.obj
 0001:00016c20       _pj_register_strerror      00417c20 f   pjlib-i386-win32-vc14-debug:errno.obj
 0001:00016dd0       _pj_errno_clear_handlers   00417dd0 f   pjlib-i386-win32-vc14-debug:errno.obj
 0001:00016df0       _pj_perror_1               00417df0 f   pjlib-i386-win32-vc14-debug:errno.obj
 0001:00016e20       _pj_perror_2               00417e20 f   pjlib-i386-win32-vc14-debug:errno.obj
 0001:00016e50       _pj_perror_3               00417e50 f   pjlib-i386-win32-vc14-debug:errno.obj
 0001:00016e80       _pj_perror_4               00417e80 f   pjlib-i386-win32-vc14-debug:errno.obj
 0001:00016eb0       _pj_perror_5               00417eb0 f   pjlib-i386-win32-vc14-debug:errno.obj
 0001:00017240       _pj_log                    00418240 f   pjlib-i386-win32-vc14-debug:log.obj
 0001:00017a80       _pj_log_set_log_func       00418a80 f   pjlib-i386-win32-vc14-debug:log.obj
 0001:00017a90       _pj_log_get_log_func       00418a90 f   pjlib-i386-win32-vc14-debug:log.obj
 0001:00017aa0       _pj_log_set_level          00418aa0 f   pjlib-i386-win32-vc14-debug:log.obj
 0001:00017ab0       _pj_log_get_level          00418ab0 f   pjlib-i386-win32-vc14-debug:log.obj
 0001:00017ac0       _pj_log_set_decor          00418ac0 f   pjlib-i386-win32-vc14-debug:log.obj
 0001:00017ad0       _pj_log_get_decor          00418ad0 f   pjlib-i386-win32-vc14-debug:log.obj
 0001:00017ae0       _pj_log_add_indent         00418ae0 f   pjlib-i386-win32-vc14-debug:log.obj
 0001:00017b00       _pj_log_push_indent        00418b00 f   pjlib-i386-win32-vc14-debug:log.obj
 0001:00017b10       _pj_log_pop_indent         00418b10 f   pjlib-i386-win32-vc14-debug:log.obj
 0001:00017b20       _pj_log_set_color          00418b20 f   pjlib-i386-win32-vc14-debug:log.obj
 0001:00017c10       _pj_log_get_color          00418c10 f   pjlib-i386-win32-vc14-debug:log.obj
 0001:00017c80       _pj_log_init               00418c80 f   pjlib-i386-win32-vc14-debug:log.obj
 0001:00017d00       _pj_log_1                  00418d00 f   pjlib-i386-win32-vc14-debug:log.obj
 0001:00017d30       _pj_log_2                  00418d30 f   pjlib-i386-win32-vc14-debug:log.obj
 0001:00017d60       _pj_log_3                  00418d60 f   pjlib-i386-win32-vc14-debug:log.obj
 0001:00017d90       _pj_log_4                  00418d90 f   pjlib-i386-win32-vc14-debug:log.obj
 0001:00017dc0       _pj_log_5                  00418dc0 f   pjlib-i386-win32-vc14-debug:log.obj
 0001:00018320       _pj_str                    00419320 f   pjlib-i386-win32-vc14-debug:string.obj
 0001:00018360       _pj_strassign              00419360 f   pjlib-i386-win32-vc14-debug:string.obj
 0001:00018380       _pj_strcpy                 00419380 f   pjlib-i386-win32-vc14-debug:string.obj
 0001:000183c0       _pj_strcpy2                004193c0 f   pjlib-i386-win32-vc14-debug:string.obj
 0001:00018420       _pj_strncpy                00419420 f   pjlib-i386-win32-vc14-debug:string.obj
 0001:00018480       _pj_strncpy_with_null      00419480 f   pjlib-i386-win32-vc14-debug:string.obj
 0001:00018500       _pj_strdup                 00419500 f   pjlib-i386-win32-vc14-debug:string.obj
 0001:00018560       _pj_strdup_with_null       00419560 f   pjlib-i386-win32-vc14-debug:string.obj
 0001:000185d0       _pj_strdup2                004195d0 f   pjlib-i386-win32-vc14-debug:string.obj
 0001:00018650       _pj_strdup2_with_null      00419650 f   pjlib-i386-win32-vc14-debug:string.obj
 0001:000186d0       _pj_strdup3                004196d0 f   pjlib-i386-win32-vc14-debug:string.obj
 0001:00018700       _pj_strcmp                 00419700 f   pjlib-i386-win32-vc14-debug:string.obj
 0001:000187e0       _pj_strcmp2                004197e0 f   pjlib-i386-win32-vc14-debug:string.obj
 0001:00018830       _pj_strncmp                00419830 f   pjlib-i386-win32-vc14-debug:string.obj
 0001:00018890       _pj_strncmp2               00419890 f   pjlib-i386-win32-vc14-debug:string.obj
 0001:000188e0       _pj_stricmp                004198e0 f   pjlib-i386-win32-vc14-debug:string.obj
 0001:000189c0       _pj_stricmp2               004199c0 f   pjlib-i386-win32-vc14-debug:string.obj
 0001:00018a10       _pj_strnicmp               00419a10 f   pjlib-i386-win32-vc14-debug:string.obj
 0001:00018a70       _pj_strnicmp2              00419a70 f   pjlib-i386-win32-vc14-debug:string.obj
 0001:00018ac0       _pj_strcat                 00419ac0 f   pjlib-i386-win32-vc14-debug:string.obj
 0001:00018b10       _pj_strcat2                00419b10 f   pjlib-i386-win32-vc14-debug:string.obj
 0001:00018b70       _pj_strspn                 00419b70 f   pjlib-i386-win32-vc14-debug:string.obj
 0001:00018c00       _pj_strspn2                00419c00 f   pjlib-i386-win32-vc14-debug:string.obj
 0001:00018c80       _pj_strcspn                00419c80 f   pjlib-i386-win32-vc14-debug:string.obj
 0001:00018cf0       _pj_strcspn2               00419cf0 f   pjlib-i386-win32-vc14-debug:string.obj
 0001:00018d60       _pj_strtok                 00419d60 f   pjlib-i386-win32-vc14-debug:string.obj
 0001:00018e10       _pj_strtok2                00419e10 f   pjlib-i386-win32-vc14-debug:string.obj
 0001:00018ec0       _pj_strstr                 00419ec0 f   pjlib-i386-win32-vc14-debug:string.obj
 0001:00018f30       _pj_stristr                00419f30 f   pjlib-i386-win32-vc14-debug:string.obj
 0001:00018fa0       _pj_strltrim               00419fa0 f   pjlib-i386-win32-vc14-debug:string.obj
 0001:00019010       _pj_strrtrim               0041a010 f   pjlib-i386-win32-vc14-debug:string.obj
 0001:00019080       _pj_strtrim                0041a080 f   pjlib-i386-win32-vc14-debug:string.obj
 0001:000190a0       _pj_create_random_string   0041a0a0 f   pjlib-i386-win32-vc14-debug:string.obj
 0001:000191a0       _pj_strtol                 0041a1a0 f   pjlib-i386-win32-vc14-debug:string.obj
 0001:00019260       _pj_strtol2                0041a260 f   pjlib-i386-win32-vc14-debug:string.obj
 0001:00019400       _pj_strtoul                0041a400 f   pjlib-i386-win32-vc14-debug:string.obj
 0001:00019480       _pj_strtoul2               0041a480 f   pjlib-i386-win32-vc14-debug:string.obj
 0001:000195b0       _pj_strtoul3               0041a5b0 f   pjlib-i386-win32-vc14-debug:string.obj
 0001:00019810       _pj_strtof                 0041a810 f   pjlib-i386-win32-vc14-debug:string.obj
 0001:00019980       _pj_utoa                   0041a980 f   pjlib-i386-win32-vc14-debug:string.obj
 0001:000199a0       _pj_utoa_pad               0041a9a0 f   pjlib-i386-win32-vc14-debug:string.obj
 0001:0001a200       _pj_caching_pool_init      0041b200 f   pjlib-i386-win32-vc14-debug:pool_caching.obj
 0001:0001a300       _pj_caching_pool_destroy   0041b300 f   pjlib-i386-win32-vc14-debug:pool_caching.obj
 0001:0001ac30       _pj_list_insert_before     0041bc30 f   pjlib-i386-win32-vc14-debug:list.obj
 0001:0001ac50       _pj_list_insert_nodes_before 0041bc50 f   pjlib-i386-win32-vc14-debug:list.obj
 0001:0001ac70       _pj_list_insert_after      0041bc70 f   pjlib-i386-win32-vc14-debug:list.obj
 0001:0001aca0       _pj_list_insert_nodes_after 0041bca0 f   pjlib-i386-win32-vc14-debug:list.obj
 0001:0001ace0       _pj_list_merge_first       0041bce0 f   pjlib-i386-win32-vc14-debug:list.obj
 0001:0001ad30       _pj_list_merge_last        0041bd30 f   pjlib-i386-win32-vc14-debug:list.obj
 0001:0001ad80       _pj_list_erase             0041bd80 f   pjlib-i386-win32-vc14-debug:list.obj
 0001:0001adb0       _pj_list_find_node         0041bdb0 f   pjlib-i386-win32-vc14-debug:list.obj
 0001:0001ae00       _pj_list_search            0041be00 f   pjlib-i386-win32-vc14-debug:list.obj
 0001:0001ae60       _pj_list_size              0041be60 f   pjlib-i386-win32-vc14-debug:list.obj
 0001:0001af90       _pj_exception_id_alloc     0041bf90 f   pjlib-i386-win32-vc14-debug:except.obj
 0001:0001aff0       _pj_exception_id_free      0041bff0 f   pjlib-i386-win32-vc14-debug:except.obj
 0001:0001b050       _pj_exception_id_name      0041c050 f   pjlib-i386-win32-vc14-debug:except.obj
 0001:0001b0d0       _pj_throw_exception_       0041c0d0 f   pjlib-i386-win32-vc14-debug:except.obj
 0001:0001b150       _pj_push_exception_handler_ 0041c150 f   pjlib-i386-win32-vc14-debug:except.obj
 0001:0001b1d0       _pj_pop_exception_handler_ 0041c1d0 f   pjlib-i386-win32-vc14-debug:except.obj
 0001:0001b320       _pj_hash_calc              0041c320 f   pjlib-i386-win32-vc14-debug:hash.obj
 0001:0001b3b0       _pj_hash_calc_tolower      0041c3b0 f   pjlib-i386-win32-vc14-debug:hash.obj
 0001:0001b410       _pj_hash_create            0041c410 f   pjlib-i386-win32-vc14-debug:hash.obj
 0001:0001b490       _pj_hash_get               0041c490 f   pjlib-i386-win32-vc14-debug:hash.obj
 0001:0001b4e0       _pj_hash_get_lower         0041c4e0 f   pjlib-i386-win32-vc14-debug:hash.obj
 0001:0001b530       _pj_hash_set               0041c530 f   pjlib-i386-win32-vc14-debug:hash.obj
 0001:0001b560       _pj_hash_set_lower         0041c560 f   pjlib-i386-win32-vc14-debug:hash.obj
 0001:0001b590       _pj_hash_set_np            0041c590 f   pjlib-i386-win32-vc14-debug:hash.obj
 0001:0001b5c0       _pj_hash_set_np_lower      0041c5c0 f   pjlib-i386-win32-vc14-debug:hash.obj
 0001:0001b5f0       _pj_hash_count             0041c5f0 f   pjlib-i386-win32-vc14-debug:hash.obj
 0001:0001b600       _pj_hash_first             0041c600 f   pjlib-i386-win32-vc14-debug:hash.obj
 0001:0001b680       _pj_hash_next              0041c680 f   pjlib-i386-win32-vc14-debug:hash.obj
 0001:0001b710       _pj_hash_this              0041c710 f   pjlib-i386-win32-vc14-debug:hash.obj
 0001:0001bc70       _pj_pool_create            0041cc70 f   pjlib-i386-win32-vc14-debug:pool.obj
 0001:0001bca0       _pj_pool_release           0041cca0 f   pjlib-i386-win32-vc14-debug:pool.obj
 0001:0001bcd0       _pj_pool_safe_release      0041ccd0 f   pjlib-i386-win32-vc14-debug:pool.obj
 0001:0001bd00       _pj_pool_getobjname        0041cd00 f   pjlib-i386-win32-vc14-debug:pool.obj
 0001:0001bd10       _pj_pool_reset             0041cd10 f   pjlib-i386-win32-vc14-debug:pool.obj
 0001:0001bd30       _pj_pool_get_capacity      0041cd30 f   pjlib-i386-win32-vc14-debug:pool.obj
 0001:0001bd40       _pj_pool_get_used_size     0041cd40 f   pjlib-i386-win32-vc14-debug:pool.obj
 0001:0001bd90       _pj_pool_alloc             0041cd90 f   pjlib-i386-win32-vc14-debug:pool.obj
 0001:0001bdd0       _pj_pool_calloc            0041cdd0 f   pjlib-i386-win32-vc14-debug:pool.obj
 0001:0001be10       _pj_pool_alloc_from_block  0041ce10 f   pjlib-i386-win32-vc14-debug:pool.obj
 0001:0001be60       _pj_pool_allocate_find     0041ce60 f   pjlib-i386-win32-vc14-debug:pool.obj
 0001:0001bf80       _pj_NO_MEMORY_EXCEPTION    0041cf80 f   pjlib-i386-win32-vc14-debug:pool.obj
 0001:0001bf90       _pj_pool_create_int        0041cf90 f   pjlib-i386-win32-vc14-debug:pool.obj
 0001:0001c0b0       _pj_pool_init_int          0041d0b0 f   pjlib-i386-win32-vc14-debug:pool.obj
 0001:0001c150       _pj_pool_destroy_int       0041d150 f   pjlib-i386-win32-vc14-debug:pool.obj
 0001:0001c530       _pj_ioqueue_name           0041d530 f   pjlib-i386-win32-vc14-debug:ioqueue_select.obj
 0001:0001c540       _pj_ioqueue_create         0041d540 f   pjlib-i386-win32-vc14-debug:ioqueue_select.obj
 0001:0001c7c0       _pj_ioqueue_destroy        0041d7c0 f   pjlib-i386-win32-vc14-debug:ioqueue_select.obj
 0001:0001c8c0       _pj_ioqueue_set_lock       0041d8c0 f   pjlib-i386-win32-vc14-debug:ioqueue_select.obj
 0001:0001c930       _pj_ioqueue_set_default_concurrency 0041d930 f   pjlib-i386-win32-vc14-debug:ioqueue_select.obj
 0001:0001c970       _pj_ioqueue_register_sock  0041d970 f   pjlib-i386-win32-vc14-debug:ioqueue_select.obj
 0001:0001c9a0       _pj_ioqueue_register_sock2 0041d9a0 f   pjlib-i386-win32-vc14-debug:ioqueue_select.obj
 0001:0001cbc0       _pj_ioqueue_unregister     0041dbc0 f   pjlib-i386-win32-vc14-debug:ioqueue_select.obj
 0001:0001cd90       _pj_ioqueue_get_user_data  0041dd90 f   pjlib-i386-win32-vc14-debug:ioqueue_select.obj
 0001:0001cdd0       _pj_ioqueue_set_user_data  0041ddd0 f   pjlib-i386-win32-vc14-debug:ioqueue_select.obj
 0001:0001ce20       _pj_ioqueue_set_concurrency 0041de20 f   pjlib-i386-win32-vc14-debug:ioqueue_select.obj
 0001:0001cea0       _pj_ioqueue_lock_key       0041dea0 f   pjlib-i386-win32-vc14-debug:ioqueue_select.obj
 0001:0001ced0       _pj_ioqueue_trylock_key    0041ded0 f   pjlib-i386-win32-vc14-debug:ioqueue_select.obj
 0001:0001cf00       _pj_ioqueue_unlock_key     0041df00 f   pjlib-i386-win32-vc14-debug:ioqueue_select.obj
 0001:0001cf30       _pj_ioqueue_op_key_init    0041df30 f   pjlib-i386-win32-vc14-debug:ioqueue_select.obj
 0001:0001cf50       _pj_ioqueue_is_pending     0041df50 f   pjlib-i386-win32-vc14-debug:ioqueue_select.obj
 0001:0001cf80       _pj_ioqueue_post_completion 0041df80 f   pjlib-i386-win32-vc14-debug:ioqueue_select.obj
 0001:0001d0e0       _pj_ioqueue_accept         0041e0e0 f   pjlib-i386-win32-vc14-debug:ioqueue_select.obj
 0001:0001d290       _pj_ioqueue_connect        0041e290 f   pjlib-i386-win32-vc14-debug:ioqueue_select.obj
 0001:0001d3c0       _pj_ioqueue_poll           0041e3c0 f   pjlib-i386-win32-vc14-debug:ioqueue_select.obj
 0001:0001d970       _pj_ioqueue_recv           0041e970 f   pjlib-i386-win32-vc14-debug:ioqueue_select.obj
 0001:0001db00       _pj_ioqueue_recvfrom       0041eb00 f   pjlib-i386-win32-vc14-debug:ioqueue_select.obj
 0001:0001dcb0       _pj_ioqueue_send           0041ecb0 f   pjlib-i386-win32-vc14-debug:ioqueue_select.obj
 0001:0001de80       _pj_ioqueue_sendto         0041ee80 f   pjlib-i386-win32-vc14-debug:ioqueue_select.obj
 0001:0001e4d0       _ioqueue_dispatch_write_event 0041f4d0 f   pjlib-i386-win32-vc14-debug:ioqueue_select.obj
 0001:0001e890       _ioqueue_dispatch_read_event 0041f890 f   pjlib-i386-win32-vc14-debug:ioqueue_select.obj
 0001:0001ebc0       _ioqueue_dispatch_exception_event 0041fbc0 f   pjlib-i386-win32-vc14-debug:ioqueue_select.obj
 0001:0001fa30       _pj_inet_ntop2             00420a30 f   pjlib-i386-win32-vc14-debug:sock_common.obj
 0001:0001fa70       _pj_sockaddr_print         00420a70 f   pjlib-i386-win32-vc14-debug:sock_common.obj
 0001:0001fb80       _pj_inet_addr              00420b80 f   pjlib-i386-win32-vc14-debug:sock_common.obj
 0001:0001fba0       _pj_inet_addr2             00420ba0 f   pjlib-i386-win32-vc14-debug:sock_common.obj
 0001:0001fbd0       _pj_sockaddr_in_init       00420bd0 f   pjlib-i386-win32-vc14-debug:sock_common.obj
 0001:0001fc50       _pj_sockaddr_init          00420c50 f   pjlib-i386-win32-vc14-debug:sock_common.obj
 0001:0001fd10       _pj_sockaddr_cmp           00420d10 f   pjlib-i386-win32-vc14-debug:sock_common.obj
 0001:0001fde0       _pj_sockaddr_get_addr      00420de0 f   pjlib-i386-win32-vc14-debug:sock_common.obj
 0001:0001fe80       _pj_sockaddr_has_addr      00420e80 f   pjlib-i386-win32-vc14-debug:sock_common.obj
 0001:0001ff40       _pj_sockaddr_get_addr_len  00420f40 f   pjlib-i386-win32-vc14-debug:sock_common.obj
 0001:0001ffe0       _pj_sockaddr_get_len       00420fe0 f   pjlib-i386-win32-vc14-debug:sock_common.obj
 0001:00020080       _pj_sockaddr_copy_addr     00421080 f   pjlib-i386-win32-vc14-debug:sock_common.obj
 0001:000200d0       _pj_sockaddr_cp            004210d0 f   pjlib-i386-win32-vc14-debug:sock_common.obj
 0001:00020100       _pj_sockaddr_synthesize    00421100 f   pjlib-i386-win32-vc14-debug:sock_common.obj
 0001:00020230       _pj_sockaddr_in_get_addr   00421230 f   pjlib-i386-win32-vc14-debug:sock_common.obj
 0001:00020250       _pj_sockaddr_in_set_addr   00421250 f   pjlib-i386-win32-vc14-debug:sock_common.obj
 0001:00020270       _pj_sockaddr_in_set_str_addr 00421270 f   pjlib-i386-win32-vc14-debug:sock_common.obj
 0001:000203b0       _pj_sockaddr_set_str_addr  004213b0 f   pjlib-i386-win32-vc14-debug:sock_common.obj
 0001:000204f0       _pj_sockaddr_get_port      004214f0 f   pjlib-i386-win32-vc14-debug:sock_common.obj
 0001:000205a0       _pj_sockaddr_in_get_port   004215a0 f   pjlib-i386-win32-vc14-debug:sock_common.obj
 0001:000205c0       _pj_sockaddr_set_port      004215c0 f   pjlib-i386-win32-vc14-debug:sock_common.obj
 0001:00020660       _pj_sockaddr_in_set_port   00421660 f   pjlib-i386-win32-vc14-debug:sock_common.obj
 0001:00020680       _pj_sockaddr_parse         00421680 f   pjlib-i386-win32-vc14-debug:sock_common.obj
 0001:000207c0       _pj_sockaddr_parse2        004217c0 f   pjlib-i386-win32-vc14-debug:sock_common.obj
 0001:00020b60       _pj_gethostaddr            00421b60 f   pjlib-i386-win32-vc14-debug:sock_common.obj
 0001:00020ba0       _pj_sock_bind_random       00421ba0 f   pjlib-i386-win32-vc14-debug:sock_common.obj
 0001:00020cd0       _pj_sock_setsockopt_sobuf  00421cd0 f   pjlib-i386-win32-vc14-debug:sock_common.obj
 0001:00020e80       _pj_addr_str_print         00421e80 f   pjlib-i386-win32-vc14-debug:sock_common.obj
 0001:00020f80       _pj_gethostip              00421f80 f   pjlib-i386-win32-vc14-debug:sock_common.obj
 0001:000219b0       _pj_getipinterface         004229b0 f   pjlib-i386-win32-vc14-debug:sock_common.obj
 0001:00021b90       _pj_getdefaultipinterface  00422b90 f   pjlib-i386-win32-vc14-debug:sock_common.obj
 0001:00022510       _pj_ntohs                  00423510 f   pjlib-i386-win32-vc14-debug:sock_bsd.obj
 0001:00022520       _pj_htons                  00423520 f   pjlib-i386-win32-vc14-debug:sock_bsd.obj
 0001:00022530       _pj_ntohl                  00423530 f   pjlib-i386-win32-vc14-debug:sock_bsd.obj
 0001:00022540       _pj_htonl                  00423540 f   pjlib-i386-win32-vc14-debug:sock_bsd.obj
 0001:00022550       _pj_inet_ntoa              00423550 f   pjlib-i386-win32-vc14-debug:sock_bsd.obj
 0001:00022580       _pj_inet_aton              00423580 f   pjlib-i386-win32-vc14-debug:sock_bsd.obj
 0001:00022660       _pj_inet_pton              00423660 f   pjlib-i386-win32-vc14-debug:sock_bsd.obj
 0001:00022840       _pj_inet_ntop              00423840 f   pjlib-i386-win32-vc14-debug:sock_bsd.obj
 0001:00022a00       _pj_gethostname            00423a00 f   pjlib-i386-win32-vc14-debug:sock_bsd.obj
 0001:00022a80       _pj_sock_socket            00423a80 f   pjlib-i386-win32-vc14-debug:sock_bsd.obj
 0001:00022b90       _pj_sock_close             00423b90 f   pjlib-i386-win32-vc14-debug:sock_bsd.obj
 0001:00022c10       _pj_sock_bind              00423c10 f   pjlib-i386-win32-vc14-debug:sock_bsd.obj
 0001:00022cc0       _pj_sock_bind_in           00423cc0 f   pjlib-i386-win32-vc14-debug:sock_bsd.obj
 0001:00022d40       _pj_sock_listen            00423d40 f   pjlib-i386-win32-vc14-debug:sock_bsd.obj
 0001:00022dc0       _pj_sock_accept            00423dc0 f   pjlib-i386-win32-vc14-debug:sock_bsd.obj
 0001:00022e70       _pj_sock_connect           00423e70 f   pjlib-i386-win32-vc14-debug:sock_bsd.obj
 0001:00022ef0       _pj_sock_getpeername       00423ef0 f   pjlib-i386-win32-vc14-debug:sock_bsd.obj
 0001:00022f70       _pj_sock_getsockname       00423f70 f   pjlib-i386-win32-vc14-debug:sock_bsd.obj
 0001:00022ff0       _pj_sock_getsockopt        00423ff0 f   pjlib-i386-win32-vc14-debug:sock_bsd.obj
 0001:000230b0       _pj_sock_setsockopt        004240b0 f   pjlib-i386-win32-vc14-debug:sock_bsd.obj
 0001:00023160       _pj_sock_setsockopt_params 00424160 f   pjlib-i386-win32-vc14-debug:sock_bsd.obj
 0001:00023270       _pj_sock_recv              00424270 f   pjlib-i386-win32-vc14-debug:sock_bsd.obj
 0001:00023330       _pj_sock_recvfrom          00424330 f   pjlib-i386-win32-vc14-debug:sock_bsd.obj
 0001:00023400       _pj_sock_send              00424400 f   pjlib-i386-win32-vc14-debug:sock_bsd.obj
 0001:000234c0       _pj_sock_sendto            004244c0 f   pjlib-i386-win32-vc14-debug:sock_bsd.obj
 0001:00023580       _pj_sock_shutdown          00424580 f   pjlib-i386-win32-vc14-debug:sock_bsd.obj
 0001:00023a90       _pj_activesock_cfg_default 00424a90 f   pjlib-i386-win32-vc14-debug:activesock.obj
 0001:00023ad0       _pj_activesock_create      00424ad0 f   pjlib-i386-win32-vc14-debug:activesock.obj
 0001:00023d80       _pj_activesock_create_udp  00424d80 f   pjlib-i386-win32-vc14-debug:activesock.obj
 0001:00023eb0       _pj_activesock_close       00424eb0 f   pjlib-i386-win32-vc14-debug:activesock.obj
 0001:00023f60       _pj_activesock_set_user_data 00424f60 f   pjlib-i386-win32-vc14-debug:activesock.obj
 0001:00023fa0       _pj_activesock_get_user_data 00424fa0 f   pjlib-i386-win32-vc14-debug:activesock.obj
 0001:00023fe0       _pj_activesock_start_read  00424fe0 f   pjlib-i386-win32-vc14-debug:activesock.obj
 0001:000240a0       _pj_activesock_start_read2 004250a0 f   pjlib-i386-win32-vc14-debug:activesock.obj
 0001:00024260       _pj_activesock_start_recvfrom 00425260 f   pjlib-i386-win32-vc14-debug:activesock.obj
 0001:00024320       _pj_activesock_start_recvfrom2 00425320 f   pjlib-i386-win32-vc14-debug:activesock.obj
 0001:000244c0       _pj_activesock_send        004254c0 f   pjlib-i386-win32-vc14-debug:activesock.obj
 0001:00024610       _pj_activesock_sendto      00425610 f   pjlib-i386-win32-vc14-debug:activesock.obj
 0001:000246c0       _pj_activesock_start_accept 004256c0 f   pjlib-i386-win32-vc14-debug:activesock.obj
 0001:00024820       _pj_activesock_start_connect 00425820 f   pjlib-i386-win32-vc14-debug:activesock.obj
 0001:00025530       _pj_get_timestamp          00426530 f   pjlib-i386-win32-vc14-debug:os_timestamp_win32.obj
 0001:000255a0       _pj_get_timestamp_freq     004265a0 f   pjlib-i386-win32-vc14-debug:os_timestamp_win32.obj
 0001:00025640       _pj_GUID_STRING_LENGTH     00426640 f   pjlib-i386-win32-vc14-debug:guid_win32.obj
 0001:00025650       _pj_generate_unique_string 00426650 f   pjlib-i386-win32-vc14-debug:guid_win32.obj
 0001:000257e0       _pj_get_version            004267e0 f   pjlib-i386-win32-vc14-debug:config.obj
 0001:000257f0       _pj_dump_config            004267f0 f   pjlib-i386-win32-vc14-debug:config.obj
 0001:00025e10       _pj_get_os_error           00426e10 f   pjlib-i386-win32-vc14-debug:os_error_win32.obj
 0001:00025e40       _pj_set_os_error           00426e40 f   pjlib-i386-win32-vc14-debug:os_error_win32.obj
 0001:00025e70       _pj_get_netos_error        00426e70 f   pjlib-i386-win32-vc14-debug:os_error_win32.obj
 0001:00025ea0       _pj_set_netos_error        00426ea0 f   pjlib-i386-win32-vc14-debug:os_error_win32.obj
 0001:00025ef0       _platform_strerror         00426ef0 f   pjlib-i386-win32-vc14-debug:os_error_win32.obj
 0001:00026110       _pj_log_write              00427110 f   pjlib-i386-win32-vc14-debug:log_writer_stdout.obj
 0001:000261d0       _pj_gettimeofday           004271d0 f   pjlib-i386-win32-vc14-debug:os_time_win32.obj
 0001:00026280       _pj_time_decode            00427280 f   pjlib-i386-win32-vc14-debug:os_time_win32.obj
 0001:00026350       _pj_time_encode            00427350 f   pjlib-i386-win32-vc14-debug:os_time_win32.obj
 0001:000265b0       _pj_srand                  004275b0 f   pjlib-i386-win32-vc14-debug:rand.obj
 0001:000265d0       _pj_rand                   004275d0 f   pjlib-i386-win32-vc14-debug:rand.obj
 0001:00026630       _pj_lock_create_simple_mutex 00427630 f   pjlib-i386-win32-vc14-debug:lock.obj
 0001:00026650       _pj_lock_create_recursive_mutex 00427650 f   pjlib-i386-win32-vc14-debug:lock.obj
 0001:00026670       _pj_lock_create_null_mutex 00427670 f   pjlib-i386-win32-vc14-debug:lock.obj
 0001:000266b0       _pj_lock_create_semaphore  004276b0 f   pjlib-i386-win32-vc14-debug:lock.obj
 0001:00026770       _pj_lock_acquire           00427770 f   pjlib-i386-win32-vc14-debug:lock.obj
 0001:000267c0       _pj_lock_tryacquire        004277c0 f   pjlib-i386-win32-vc14-debug:lock.obj
 0001:00026810       _pj_lock_release           00427810 f   pjlib-i386-win32-vc14-debug:lock.obj
 0001:00026860       _pj_lock_destroy           00427860 f   pjlib-i386-win32-vc14-debug:lock.obj
 0001:000268b0       _pj_grp_lock_config_default 004278b0 f   pjlib-i386-win32-vc14-debug:lock.obj
 0001:000268d0       _pj_grp_lock_create        004278d0 f   pjlib-i386-win32-vc14-debug:lock.obj
 0001:00026a50       _pj_grp_lock_create_w_handler 00427a50 f   pjlib-i386-win32-vc14-debug:lock.obj
 0001:00026aa0       _pj_grp_lock_destroy       00427aa0 f   pjlib-i386-win32-vc14-debug:lock.obj
 0001:00026ac0       _pj_grp_lock_replace       00427ac0 f   pjlib-i386-win32-vc14-debug:lock.obj
 0001:00026b50       _pj_grp_lock_acquire       00427b50 f   pjlib-i386-win32-vc14-debug:lock.obj
 0001:00026b70       _pj_grp_lock_tryacquire    00427b70 f   pjlib-i386-win32-vc14-debug:lock.obj
 0001:00026b90       _pj_grp_lock_release       00427b90 f   pjlib-i386-win32-vc14-debug:lock.obj
 0001:00026bb0       _pj_grp_lock_add_handler   00427bb0 f   pjlib-i386-win32-vc14-debug:lock.obj
 0001:00026bd0       _pj_grp_lock_del_handler   00427bd0 f   pjlib-i386-win32-vc14-debug:lock.obj
 0001:00026c40       _pj_grp_lock_add_ref       00427c40 f   pjlib-i386-win32-vc14-debug:lock.obj
 0001:00026c60       _pj_grp_lock_dec_ref       00427c60 f   pjlib-i386-win32-vc14-debug:lock.obj
 0001:00026c80       _pj_grp_lock_get_ref       00427c80 f   pjlib-i386-win32-vc14-debug:lock.obj
 0001:00026ca0       _pj_grp_lock_dump          00427ca0 f   pjlib-i386-win32-vc14-debug:lock.obj
 0001:00026ce0       _pj_grp_lock_chain_lock    00427ce0 f   pjlib-i386-win32-vc14-debug:lock.obj
 0001:00026da0       _pj_grp_lock_unchain_lock  00427da0 f   pjlib-i386-win32-vc14-debug:lock.obj
 0001:000277a0       _pj_pool_create_on_buf     004287a0 f   pjlib-i386-win32-vc14-debug:pool_buf.obj
 0001:000279d0       _pj_pool_factory_get_default_policy 004289d0 f   pjlib-i386-win32-vc14-debug:pool_policy_malloc.obj
 0001:00027b00       _pj_time_val_normalize     00428b00 f   pjlib-i386-win32-vc14-debug:types.obj
 0001:00027c20       _pj_gettickcount           00428c20 f   pjlib-i386-win32-vc14-debug:os_timestamp_common.obj
 0001:00027c70       _pj_elapsed_time           00428c70 f   pjlib-i386-win32-vc14-debug:os_timestamp_common.obj
 0001:00027d20       _pj_elapsed_msec           00428d20 f   pjlib-i386-win32-vc14-debug:os_timestamp_common.obj
 0001:00027d50       _pj_elapsed_msec64         00428d50 f   pjlib-i386-win32-vc14-debug:os_timestamp_common.obj
 0001:00027d80       _pj_elapsed_usec           00428d80 f   pjlib-i386-win32-vc14-debug:os_timestamp_common.obj
 0001:00027db0       _pj_elapsed_nanosec        00428db0 f   pjlib-i386-win32-vc14-debug:os_timestamp_common.obj
 0001:00027e40       _pj_elapsed_cycle          00428e40 f   pjlib-i386-win32-vc14-debug:os_timestamp_common.obj
 0001:000280a0       _PJ_FD_ZERO                004290a0 f   pjlib-i386-win32-vc14-debug:sock_select.obj
 0001:000280e0       _PJ_FD_COUNT               004290e0 f   pjlib-i386-win32-vc14-debug:sock_select.obj
 0001:00028100       _PJ_FD_SET                 00429100 f   pjlib-i386-win32-vc14-debug:sock_select.obj
 0001:000281f0       _PJ_FD_CLR                 004291f0 f   pjlib-i386-win32-vc14-debug:sock_select.obj
 0001:000282f0       _PJ_FD_ISSET               004292f0 f   pjlib-i386-win32-vc14-debug:sock_select.obj
 0001:00028330       _pj_sock_select            00429330 f   pjlib-i386-win32-vc14-debug:sock_select.obj
 0001:000284d0       _pj_enum_ip_interface      004294d0 f   pjlib-i386-win32-vc14-debug:ip_helper_win32.obj
 0001:000285e0       _pj_enum_ip_route          004295e0 f   pjlib-i386-win32-vc14-debug:ip_helper_win32.obj
 0001:000293e0       _pj_gethostbyname          0042a3e0 f   pjlib-i386-win32-vc14-debug:addr_resolv_sock.obj
 0001:00029500       _pj_getaddrinfo            0042a500 f   pjlib-i386-win32-vc14-debug:addr_resolv_sock.obj
 0001:000297ac       _CoCreateGuid@4            0042a7ac f   ole32:ole32.dll
 0001:000297b2       _WSAStartup@8              0042a7b2 f   ws2_32:WS2_32.dll
 0001:000297b8       _WSACleanup@0              0042a7b8 f   ws2_32:WS2_32.dll
 0001:000297be       _WSAGetLastError@0         0042a7be f   ws2_32:WS2_32.dll
 0001:000297c4       _ioctlsocket@12            0042a7c4 f   ws2_32:WS2_32.dll
 0001:000297ca       _accept@12                 0042a7ca f   ws2_32:WS2_32.dll
 0001:000297d0       _bind@12                   0042a7d0 f   ws2_32:WS2_32.dll
 0001:000297d6       _closesocket@4             0042a7d6 f   ws2_32:WS2_32.dll
 0001:000297dc       _connect@12                0042a7dc f   ws2_32:WS2_32.dll
 0001:000297e2       _getpeername@12            0042a7e2 f   ws2_32:WS2_32.dll
 0001:000297e8       _getsockname@12            0042a7e8 f   ws2_32:WS2_32.dll
 0001:000297ee       _getsockopt@20             0042a7ee f   ws2_32:WS2_32.dll
 0001:000297f4       _htonl@4                   0042a7f4 f   ws2_32:WS2_32.dll
 0001:000297fa       _htons@4                   0042a7fa f   ws2_32:WS2_32.dll
 0001:00029800       _inet_addr@4               0042a800 f   ws2_32:WS2_32.dll
 0001:00029806       _inet_ntoa@4               0042a806 f   ws2_32:WS2_32.dll
 0001:0002980c       _listen@8                  0042a80c f   ws2_32:WS2_32.dll
 0001:00029812       _ntohl@4                   0042a812 f   ws2_32:WS2_32.dll
 0001:00029818       _ntohs@4                   0042a818 f   ws2_32:WS2_32.dll
 0001:0002981e       _recv@16                   0042a81e f   ws2_32:WS2_32.dll
 0001:00029824       _recvfrom@24               0042a824 f   ws2_32:WS2_32.dll
 0001:0002982a       _send@16                   0042a82a f   ws2_32:WS2_32.dll
 0001:00029830       _sendto@24                 0042a830 f   ws2_32:WS2_32.dll
 0001:00029836       _setsockopt@20             0042a836 f   ws2_32:WS2_32.dll
 0001:0002983c       _shutdown@8                0042a83c f   ws2_32:WS2_32.dll
 0001:00029842       _gethostname@8             0042a842 f   ws2_32:WS2_32.dll
 0001:00029848       _WSAIoctl@36               0042a848 f   ws2_32:WS2_32.dll
 0001:0002984e       _WSASocketA@24             0042a84e f   ws2_32:WS2_32.dll
 0001:00029854       _WSAAddressToStringA@20    0042a854 f   ws2_32:WS2_32.dll
 0001:0002985a       _WSAStringToAddressA@20    0042a85a f   ws2_32:WS2_32.dll
 0001:00029860       _WSASetLastError@4         0042a860 f   ws2_32:WS2_32.dll
 0001:00029866       ___WSAFDIsSet@8            0042a866 f   ws2_32:WS2_32.dll
 0001:0002986c       _select@20                 0042a86c f   ws2_32:WS2_32.dll
 0001:00029872       _gethostbyname@4           0042a872 f   ws2_32:WS2_32.dll
 0001:00029880       @__security_check_cookie@4 0042a880 f   LIBCMTD:_secchk_.obj
 0001:00029c80       ?configure_argv@__scrt_narrow_argv_policy@@SAHXZ 0042ac80 f i LIBCMTD:exe_main.obj
 0001:00029ca0       ?get_app_type@__scrt_main_policy@@SA?AW4_crt_app_type@@XZ 0042aca0 f i LIBCMTD:exe_main.obj
 0001:00029cf0       _mainCRTStartup            0042acf0 f   LIBCMTD:exe_main.obj
 0001:00029d00       ___raise_securityfailure   0042ad00 f   LIBCMTD:gs_report.obj
 0001:00029d40       ___report_gsfailure        0042ad40 f   LIBCMTD:gs_report.obj
 0001:00029e90       ___report_rangecheckfailure 0042ae90 f   LIBCMTD:gs_report.obj
 0001:00029ea0       ___report_securityfailure  0042aea0 f   LIBCMTD:gs_report.obj
 0001:00029fb0       ___report_securityfailureEx 0042afb0 f   LIBCMTD:gs_report.obj
 0001:0002a120       __alloca_probe             0042b120 f   LIBCMTD:chkstk.obj
 0001:0002a120       __chkstk                   0042b120 f   LIBCMTD:chkstk.obj
 0001:0002a160       __alldiv                   0042b160 f   LIBCMTD:lldiv.obj
 0001:0002a240       __allmul                   0042b240 f   LIBCMTD:llmul.obj
 0001:0002a290       __ftoui3                   0042b290 f   LIBCMTD:_ftol3_.obj
 0001:0002a29f       __ftoul3                   0042b29f f   LIBCMTD:_ftol3_.obj
 0001:0002a2ae       __ftol3                    0042b2ae f   LIBCMTD:_ftol3_.obj
 0001:0002a2bb       __ftol3_NaN                0042b2bb f   LIBCMTD:_ftol3_.obj
 0001:0002a2d3       __ftol3_work               0042b2d3 f   LIBCMTD:_ftol3_.obj
 0001:0002a359       __ftol3_common             0042b359 f   LIBCMTD:_ftol3_.obj
 0001:0002a41b       __ftol3_arg_error          0042b41b f   LIBCMTD:_ftol3_.obj
 0001:0002a42d       __ftol3_except             0042b42d f   LIBCMTD:_ftol3_.obj
 0001:0002a471       __dtoui3                   0042b471 f   LIBCMTD:_ftol3_.obj
 0001:0002a480       __dtoul3                   0042b480 f   LIBCMTD:_ftol3_.obj
 0001:0002a48f       __dtol3                    0042b48f f   LIBCMTD:_ftol3_.obj
 0001:0002a49c       __dtol3_NaN                0042b49c f   LIBCMTD:_ftol3_.obj
 0001:0002a4b9       __dtol3_work               0042b4b9 f   LIBCMTD:_ftol3_.obj
 0001:0002a5a0       __ultod3                   0042b5a0 f   LIBCMTD:_ftol3_.obj
 0001:0002a5e0       __ltod3                    0042b5e0 f   LIBCMTD:_ftol3_.obj
 0001:0002a6f0       ??$__crt_fast_decode_pointer@PAP6AXXZ@@YAPAP6AXXZQAP6AXXZ@Z 0042b6f0 f i LIBCMTD:utility.obj
 0001:0002a720       ??$__crt_fast_encode_pointer@PAP6AXXZ@@YAPAP6AXXZQAP6AXXZ@Z 0042b720 f i LIBCMTD:utility.obj
 0001:0002a760       ?__crt_rotate_pointer_value@@YAIIH@Z 0042b760 f i LIBCMTD:utility.obj
 0001:0002a8b0       _NtCurrentTeb              0042b8b0 f i LIBCMTD:utility.obj
 0001:0002a8c0       ___scrt_acquire_startup_lock 0042b8c0 f   LIBCMTD:utility.obj
 0001:0002a920       ___scrt_dllmain_after_initialize_c 0042b920 f   LIBCMTD:utility.obj
 0001:0002a950       ___scrt_dllmain_before_initialize_c 0042b950 f   LIBCMTD:utility.obj
 0001:0002a980       ___scrt_dllmain_crt_thread_attach 0042b980 f   LIBCMTD:utility.obj
 0001:0002a9c0       ___scrt_dllmain_crt_thread_detach 0042b9c0 f   LIBCMTD:utility.obj
 0001:0002a9e0       ___scrt_dllmain_exception_filter 0042b9e0 f   LIBCMTD:utility.obj
 0001:0002aa40       ___scrt_dllmain_uninitialize_c 0042ba40 f   LIBCMTD:utility.obj
 0001:0002aa80       ___scrt_dllmain_uninitialize_critical 0042ba80 f   LIBCMTD:utility.obj
 0001:0002aaa0       ___scrt_initialize_crt     0042baa0 f   LIBCMTD:utility.obj
 0001:0002ab00       ___scrt_initialize_onexit_tables 0042bb00 f   LIBCMTD:utility.obj
 0001:0002ac00       ___scrt_is_nonwritable_in_current_image 0042bc00 f   LIBCMTD:utility.obj
 0001:0002ad80       ___scrt_release_startup_lock 0042bd80 f   LIBCMTD:utility.obj
 0001:0002adb0       ___scrt_uninitialize_crt   0042bdb0 f   LIBCMTD:utility.obj
 0001:0002ae00       __onexit                   0042be00 f   LIBCMTD:utility.obj
 0001:0002ae90       _at_quick_exit             0042be90 f   LIBCMTD:utility.obj
 0001:0002aef0       _atexit                    0042bef0 f   LIBCMTD:utility.obj
 0001:0002af30       ___security_init_cookie    0042bf30 f   LIBCMTD:gs_support.obj
 0001:0002b050       __matherr                  0042c050 f   LIBCMTD:matherr.obj
 0001:0002b060       __get_startup_argv_mode    0042c060 f   LIBCMTD:argv_mode.obj
 0001:0002b070       __get_startup_commit_mode  0042c070 f   LIBCMTD:commit_mode.obj
 0001:0002b080       __get_startup_file_mode    0042c080 f   LIBCMTD:file_mode.obj
 0001:0002b090       __get_startup_new_mode     0042c090 f   LIBCMTD:new_mode.obj
 0001:0002b0a0       __get_startup_thread_locale_mode 0042c0a0 f   LIBCMTD:thread_locale.obj
 0001:0002b0b0       ?__scrt_initialize_type_info@@YAXXZ 0042c0b0 f   LIBCMTD:tncleanup.obj
 0001:0002b0d0       ?__scrt_uninitialize_type_info@@YAXXZ 0042c0d0 f   LIBCMTD:tncleanup.obj
 0001:0002b0f0       __initialize_default_precision 0042c0f0 f   LIBCMTD:default_precision.obj
 0001:0002b120       __initialize_invalid_parameter_handler 0042c120 f   LIBCMTD:invalid_parameter_handler.obj
 0001:0002b130       __initialize_denormal_control 0042c130 f   LIBCMTD:denormal_control.obj
 0001:0002b140       ___local_stdio_scanf_options 0042c140 f i LIBCMTD:default_local_stdio_options.obj
 0001:0002b150       ___scrt_initialize_default_local_stdio_options 0042c150 f   LIBCMTD:default_local_stdio_options.obj
 0001:0002b1a0       ___scrt_is_user_matherr_present 0042c1a0 f   LIBCMTD:matherr_detection.obj
 0001:0002b1d0       ___scrt_get_dyn_tls_init_callback 0042c1d0 f   LIBCMTD:dyn_tls_init.obj
 0001:0002b1e0       ___scrt_get_dyn_tls_dtor_callback 0042c1e0 f   LIBCMTD:dyn_tls_dtor.obj
 0001:0002b1f0       ___scrt_fastfail           0042c1f0 f   LIBCMTD:utility_desktop.obj
 0001:0002b380       ___scrt_get_show_window_mode 0042c380 f   LIBCMTD:utility_desktop.obj
 0001:0002b3d0       ___scrt_initialize_winrt   0042c3d0 f   LIBCMTD:utility_desktop.obj
 0001:0002b3e0       ___scrt_is_managed_app     0042c3e0 f   LIBCMTD:utility_desktop.obj
 0001:0002b490       ___scrt_set_unhandled_exception_filter 0042c490 f   LIBCMTD:utility_desktop.obj
 0001:0002b4b0       ___scrt_unhandled_exception_filter@4 0042c4b0 f   LIBCMTD:utility_desktop.obj
 0001:0002b530       __crt_debugger_hook        0042c530 f   LIBCMTD:utility_desktop.obj
 0001:0002b550       __RTC_Initialize           0042c550 f   LIBCMTD:_initsect_.obj
 0001:0002b590       __RTC_Terminate            0042c590 f   LIBCMTD:_initsect_.obj
 0001:0002b5d0       @_guard_check_icall@4      0042c5d0 f i LIBCMTD:checkcfg.obj
 0001:0002b5f0       ___isa_available_init      0042c5f0 f   LIBCMTD:_cpu_disp_.obj
 0001:0002b980       ___scrt_is_ucrt_dll_in_use 0042c980 f   LIBCMTD:ucrt_detection.obj
 0001:0002b9b0       @_guard_check_icall_nop@4  0042c9b0 f i LIBCMTD:guard_support.obj
 0001:0002b9c0       __guard_icall_checks_enforced 0042c9c0 f i LIBCMTD:guard_support.obj
 0001:0002b9f0       _GetStdHandle@4            0042c9f0 f   kernel32:KERNEL32.dll
 0001:0002b9f6       _CloseHandle@4             0042c9f6 f   kernel32:KERNEL32.dll
 0001:0002b9fc       _GetLastError@0            0042c9fc f   kernel32:KERNEL32.dll
 0001:0002ba02       _InitializeCriticalSection@4 0042ca02 f   kernel32:KERNEL32.dll
 0001:0002ba08       _EnterCriticalSection@4    0042ca08 f   kernel32:KERNEL32.dll
 0001:0002ba0e       _LeaveCriticalSection@4    0042ca0e f   kernel32:KERNEL32.dll
 0001:0002ba14       _TryEnterCriticalSection@4 0042ca14 f   kernel32:KERNEL32.dll
 0001:0002ba1a       _DeleteCriticalSection@4   0042ca1a f   kernel32:KERNEL32.dll
 0001:0002ba20       _SetEvent@4                0042ca20 f   kernel32:KERNEL32.dll
 0001:0002ba26       _ResetEvent@4              0042ca26 f   kernel32:KERNEL32.dll
 0001:0002ba2c       _ReleaseSemaphore@12       0042ca2c f   kernel32:KERNEL32.dll
 0001:0002ba32       _WaitForSingleObject@8     0042ca32 f   kernel32:KERNEL32.dll
 0001:0002ba38       _CreateEventA@16           0042ca38 f   kernel32:KERNEL32.dll
 0001:0002ba3e       _Sleep@4                   0042ca3e f   kernel32:KERNEL32.dll
 0001:0002ba44       _GetCurrentProcessId@0     0042ca44 f   kernel32:KERNEL32.dll
 0001:0002ba4a       _CreateThread@24           0042ca4a f   kernel32:KERNEL32.dll
 0001:0002ba50       _GetCurrentThread@0        0042ca50 f   kernel32:KERNEL32.dll
 0001:0002ba56       _GetCurrentThreadId@0      0042ca56 f   kernel32:KERNEL32.dll
 0001:0002ba5c       _SetThreadPriority@8       0042ca5c f   kernel32:KERNEL32.dll
 0001:0002ba62       _GetThreadPriority@4       0042ca62 f   kernel32:KERNEL32.dll
 0001:0002ba68       _ResumeThread@4            0042ca68 f   kernel32:KERNEL32.dll
 0001:0002ba6e       _TlsAlloc@0                0042ca6e f   kernel32:KERNEL32.dll
 0001:0002ba74       _TlsGetValue@4             0042ca74 f   kernel32:KERNEL32.dll
 0001:0002ba7a       _TlsSetValue@8             0042ca7a f   kernel32:KERNEL32.dll
 0001:0002ba80       _TlsFree@4                 0042ca80 f   kernel32:KERNEL32.dll
 0001:0002ba86       _PulseEvent@4              0042ca86 f   kernel32:KERNEL32.dll
 0001:0002ba8c       _CreateSemaphoreA@16       0042ca8c f   kernel32:KERNEL32.dll
 0001:0002ba92       _GetConsoleScreenBufferInfo@8 0042ca92 f   kernel32:KERNEL32.dll
 0001:0002ba98       _SetConsoleTextAttribute@8 0042ca98 f   kernel32:KERNEL32.dll
 0001:0002ba9e       _QueryPerformanceCounter@4 0042ca9e f   kernel32:KERNEL32.dll
 0001:0002baa4       _QueryPerformanceFrequency@4 0042caa4 f   kernel32:KERNEL32.dll
 0001:0002baaa       _SetLastError@4            0042caaa f   kernel32:KERNEL32.dll
 0001:0002bab0       _FormatMessageA@28         0042cab0 f   kernel32:KERNEL32.dll
 0001:0002bab6       _GetLocalTime@4            0042cab6 f   kernel32:KERNEL32.dll
 0001:0002babc       _FileTimeToSystemTime@8    0042cabc f   kernel32:KERNEL32.dll
 0001:0002bac2       _SystemTimeToFileTime@8    0042cac2 f   kernel32:KERNEL32.dll
 0001:0002bac8       _FreeLibrary@4             0042cac8 f   kernel32:KERNEL32.dll
 0001:0002bace       _GetProcAddress@8          0042cace f   kernel32:KERNEL32.dll
 0001:0002bad4       _LoadLibraryA@4            0042cad4 f   kernel32:KERNEL32.dll
 0001:0002bada       _UnhandledExceptionFilter@4 0042cada f   kernel32:KERNEL32.dll
 0001:0002bae0       _SetUnhandledExceptionFilter@4 0042cae0 f   kernel32:KERNEL32.dll
 0001:0002bae6       _GetCurrentProcess@0       0042cae6 f   kernel32:KERNEL32.dll
 0001:0002baec       _TerminateProcess@8        0042caec f   kernel32:KERNEL32.dll
 0001:0002baf2       _IsProcessorFeaturePresent@4 0042caf2 f   kernel32:KERNEL32.dll
 0001:0002baf8       _GetSystemTimeAsFileTime@4 0042caf8 f   kernel32:KERNEL32.dll
 0001:0002bafe       _InitializeSListHead@4     0042cafe f   kernel32:KERNEL32.dll
 0001:0002bb04       _IsDebuggerPresent@0       0042cb04 f   kernel32:KERNEL32.dll
 0001:0002bb0a       _GetStartupInfoW@4         0042cb0a f   kernel32:KERNEL32.dll
 0001:0002bb10       _GetModuleHandleW@4        0042cb10 f   kernel32:KERNEL32.dll
 0001:0002bb20       _memcpy                    0042cb20 f   libvcruntimed:memcpy.obj
 0001:0002c200       _memset                    0042d200 f   libvcruntimed:memset.obj
 0001:0002c3b0       __setjmp3                  0042d3b0 f   libvcruntimed:_setjmp3_.obj
 0001:0002c450       _memmove                   0042d450 f   libvcruntimed:memmove.obj
 0001:0002cb30       _memchr                    0042db30 f   libvcruntimed:memchr.obj
 0001:0002cc10       _strchr                    0042dc10 f   libvcruntimed:strchr.obj
 0001:0002cc7e       ___from_strstr_to_strchr   0042dc7e     libvcruntimed:strchr.obj
 0001:0002cfa0       _memcmp                    0042dfa0 f   libvcruntimed:_memcmp_.obj
 0001:0002daa0       _longjmp                   0042eaa0 f   libvcruntimed:longjmpc.obj
 0001:0002db50       _EventDataDescCreate       0042eb50 f i libvcruntimed:telemetry.obj
 0001:0002db80       _HRESULT_FROM_WIN32        0042eb80 f i libvcruntimed:telemetry.obj
 0001:0002dbc0       ___telemetry_main_invoke_trigger 0042ebc0 f   libvcruntimed:telemetry.obj
 0001:0002dd50       ___telemetry_main_return_trigger 0042ed50 f   libvcruntimed:telemetry.obj
 0001:0002dee0       ___vcrt_initialize_telemetry_provider 0042eee0 f   libvcruntimed:telemetry.obj
 0001:0002df00       ___vcrt_uninitialize_telemetry_provider 0042ef00 f   libvcruntimed:telemetry.obj
 0001:0002dfa0       __except_handler4          0042efa0 f   libvcruntimed:_chandler4_.obj
 0001:0002e1f0       ___vcrt_initialize         0042f1f0 f   libvcruntimed:initialization.obj
 0001:0002e240       ___vcrt_thread_attach      0042f240 f   libvcruntimed:initialization.obj
 0001:0002e260       ___vcrt_thread_detach      0042f260 f   libvcruntimed:initialization.obj
 0001:0002e280       ___vcrt_uninitialize       0042f280 f   libvcruntimed:initialization.obj
 0001:0002e2b0       ___vcrt_uninitialize_critical 0042f2b0 f   libvcruntimed:initialization.obj
 0001:0002e310       ??$?RD@__crt_internal_free_policy@@QBEXQBD@Z 0042f310 f i libvcruntimed:std_type_info.obj
 0001:0002e340       ??$?RX@__crt_internal_free_policy@@QBEXQBX@Z 0042f340 f i libvcruntimed:std_type_info.obj
 0001:0002e370       ??$__crt_interlocked_compare_exchange_pointer@$$CBD$$T$$T@@YAPBDPDSBD$$T1@Z 0042f370 f i libvcruntimed:std_type_info.obj
 0001:0002e390       ??$__crt_interlocked_compare_exchange_pointer@$$CBDPAD$$T@@YAPBDPDSBDQAD$$T@Z 0042f390 f i libvcruntimed:std_type_info.obj
 0001:0002e3b0       ??$__crt_interlocked_read_pointer@$$CBD@@YAPBDPDSBD@Z 0042f3b0 f i libvcruntimed:std_type_info.obj
 0001:0002e3d0       ??0?$__crt_unique_heap_ptr@DU__crt_internal_free_policy@@@@QAE@QAD@Z 0042f3d0 f i libvcruntimed:std_type_info.obj
 0001:0002e3f0       ??0?$__crt_unique_heap_ptr@XU__crt_internal_free_policy@@@@QAE@QAX@Z 0042f3f0 f i libvcruntimed:std_type_info.obj
 0001:0002e410       ??1?$__crt_unique_heap_ptr@DU__crt_internal_free_policy@@@@QAE@XZ 0042f410 f i libvcruntimed:std_type_info.obj
 0001:0002e430       ??1?$__crt_unique_heap_ptr@XU__crt_internal_free_policy@@@@QAE@XZ 0042f430 f i libvcruntimed:std_type_info.obj
 0001:0002e490       ??B?$__crt_unique_heap_ptr@DU__crt_internal_free_policy@@@@QBE_NXZ 0042f490 f i libvcruntimed:std_type_info.obj
 0001:0002e4b0       ??B?$__crt_unique_heap_ptr@XU__crt_internal_free_policy@@@@QBE_NXZ 0042f4b0 f i libvcruntimed:std_type_info.obj
 0001:0002e530       ?detach@?$__crt_unique_heap_ptr@XU__crt_internal_free_policy@@@@QAEPAXXZ 0042f530 f i libvcruntimed:std_type_info.obj
 0001:0002e560       ?get@?$__crt_unique_heap_ptr@DU__crt_internal_free_policy@@@@QBEPADXZ 0042f560 f i libvcruntimed:std_type_info.obj
 0001:0002e580       ?get@?$__crt_unique_heap_ptr@XU__crt_internal_free_policy@@@@QBEPAXXZ 0042f580 f i libvcruntimed:std_type_info.obj
 0001:0002e5a0       ?is_valid@?$__crt_unique_heap_ptr@DU__crt_internal_free_policy@@@@QBE_NXZ 0042f5a0 f i libvcruntimed:std_type_info.obj
 0001:0002e5e0       ?is_valid@?$__crt_unique_heap_ptr@XU__crt_internal_free_policy@@@@QBE_NXZ 0042f5e0 f i libvcruntimed:std_type_info.obj
 0001:0002e620       ?release@?$__crt_unique_heap_ptr@DU__crt_internal_free_policy@@@@QAEXXZ 0042f620 f i libvcruntimed:std_type_info.obj
 0001:0002e650       ?release@?$__crt_unique_heap_ptr@XU__crt_internal_free_policy@@@@QAEXXZ 0042f650 f i libvcruntimed:std_type_info.obj
 0001:0002e680       ___std_type_info_compare   0042f680 f   libvcruntimed:std_type_info.obj
 0001:0002e6b0       ___std_type_info_destroy_list 0042f6b0 f   libvcruntimed:std_type_info.obj
 0001:0002e700       ___std_type_info_hash      0042f700 f   libvcruntimed:std_type_info.obj
 0001:0002e770       ___std_type_info_name      0042f770 f   libvcruntimed:std_type_info.obj
 0001:0002e9c0       __global_unwind2           0042f9c0 f   libvcruntimed:_exsup_.obj
 0001:0002ea25       __local_unwind2            0042fa25 f   libvcruntimed:_exsup_.obj
 0001:0002eaa9       __abnormal_termination     0042faa9 f   libvcruntimed:_exsup_.obj
 0001:0002eacc       __NLG_Notify1              0042facc f   libvcruntimed:_exsup_.obj
 0001:0002ead5       __NLG_Notify               0042fad5 f   libvcruntimed:_exsup_.obj
 0001:0002eaec       __NLG_Dispatch2            0042faec     libvcruntimed:_exsup_.obj
 0001:0002eaec       __NLG_Dispatch             0042faec     libvcruntimed:_exsup_.obj
 0001:0002eaf4       __NLG_Call                 0042faf4 f   libvcruntimed:_exsup_.obj
 0001:0002eaf6       __NLG_Return2              0042faf6     libvcruntimed:_exsup_.obj
 0001:0002eb50       ___longjmp_internal        0042fb50 f   libvcruntimed:_longjmp_.obj
 0001:0002ec30       ___except_validate_context_record 0042fc30 f   libvcruntimed:jbcxrval.obj
 0001:0002ec90       ___except_validate_jump_buffer 0042fc90 f   libvcruntimed:jbcxrval.obj
 0001:0002ecf0       ??$?BX@__crt_fast_encoded_nullptr_t@@QBEPAXXZ 0042fcf0 f i libvcruntimed:winapi_downlevel.obj
 0001:0002ed10       ??$__crt_fast_decode_pointer@PAX@@YAPAXQAX@Z 0042fd10 f i libvcruntimed:winapi_downlevel.obj
 0001:0002ed40       ??$__crt_fast_encode_pointer@PAX@@YAPAXQAX@Z 0042fd40 f i libvcruntimed:winapi_downlevel.obj
 0001:0002ed80       ??$__crt_interlocked_compare_exchange_pointer@UHINSTANCE__@@$$T$$T@@YAPAUHINSTANCE__@@PDSAU0@$$T1@Z 0042fd80 f i libvcruntimed:winapi_downlevel.obj
 0001:0002eda0       ??$__crt_interlocked_compare_exchange_pointer@X$$T$$T@@YAPAXPDSAX$$T1@Z 0042fda0 f i libvcruntimed:winapi_downlevel.obj
 0001:0002edc0       ??$__crt_interlocked_exchange_pointer@UHINSTANCE__@@PAU1@@@YAPAUHINSTANCE__@@PDSAU0@QAU0@@Z 0042fdc0 f i libvcruntimed:winapi_downlevel.obj
 0001:0002edd0       ??$__crt_interlocked_exchange_pointer@UHINSTANCE__@@PAX@@YAPAUHINSTANCE__@@PDSAU0@QAX@Z 0042fdd0 f i libvcruntimed:winapi_downlevel.obj
 0001:0002ede0       ??$__crt_interlocked_exchange_pointer@XPAX@@YAPAXPDSAXQAX@Z 0042fde0 f i libvcruntimed:winapi_downlevel.obj
 0001:0002edf0       ??$__crt_interlocked_read_pointer@UHINSTANCE__@@@@YAPAUHINSTANCE__@@PDSAU0@@Z 0042fdf0 f i libvcruntimed:winapi_downlevel.obj
 0001:0002ee10       ??$__crt_interlocked_read_pointer@X@@YAPAXPDSAX@Z 0042fe10 f i libvcruntimed:winapi_downlevel.obj
 0001:0002ee30       ?__crt_fast_encode_pointer@@YA?AU__crt_fast_encoded_nullptr_t@@$$T@Z 0042fe30 f i libvcruntimed:winapi_downlevel.obj
 0001:0002f3c0       ___vcrt_EventRegister      004303c0 f   libvcruntimed:winapi_downlevel.obj
 0001:0002f410       ___vcrt_EventSetInformation 00430410 f   libvcruntimed:winapi_downlevel.obj
 0001:0002f470       ___vcrt_EventUnregister    00430470 f   libvcruntimed:winapi_downlevel.obj
 0001:0002f4c0       ___vcrt_EventWriteTransfer 004304c0 f   libvcruntimed:winapi_downlevel.obj
 0001:0002f520       ___vcrt_FlsAlloc           00430520 f   libvcruntimed:winapi_downlevel.obj
 0001:0002f570       ___vcrt_FlsFree            00430570 f   libvcruntimed:winapi_downlevel.obj
 0001:0002f5c0       ___vcrt_FlsGetValue        004305c0 f   libvcruntimed:winapi_downlevel.obj
 0001:0002f610       ___vcrt_FlsSetValue        00430610 f   libvcruntimed:winapi_downlevel.obj
 0001:0002f670       ___vcrt_InitializeCriticalSectionEx 00430670 f   libvcruntimed:winapi_downlevel.obj
 0001:0002f6d0       ___vcrt_initialize_winapi_thunks 004306d0 f   libvcruntimed:winapi_downlevel.obj
 0001:0002f750       ___vcrt_uninitialize_winapi_thunks 00430750 f   libvcruntimed:winapi_downlevel.obj
 0001:0002f7e0       __local_unwind4            004307e0 f   libvcruntimed:_exsup4_.obj
 0001:0002f8b6       __seh_longjmp_unwind4@4    004308b6 f   libvcruntimed:_exsup4_.obj
 0001:0002f8de       @_EH4_CallFilterFunc@8     004308de f   libvcruntimed:_exsup4_.obj
 0001:0002f8f5       @_EH4_TransferToHandler@8  004308f5 f   libvcruntimed:_exsup4_.obj
 0001:0002f90e       @_EH4_GlobalUnwind2@8      0043090e f   libvcruntimed:_exsup4_.obj
 0001:0002f927       @_EH4_LocalUnwind@16       00430927 f   libvcruntimed:_exsup4_.obj
 0001:0002f9a0       ??$?RU__vcrt_ptd@@@__crt_internal_free_policy@@QBEXQBU__vcrt_ptd@@@Z 004309a0 f i libvcruntimed:per_thread_data.obj
 0001:0002f9d0       ??0?$__crt_unique_heap_ptr@U__vcrt_ptd@@U__crt_internal_free_policy@@@@QAE@QAU__vcrt_ptd@@@Z 004309d0 f i libvcruntimed:per_thread_data.obj
 0001:0002f9f0       ??1?$__crt_unique_heap_ptr@U__vcrt_ptd@@U__crt_internal_free_policy@@@@QAE@XZ 004309f0 f i libvcruntimed:per_thread_data.obj
 0001:0002fa10       ??B?$__crt_unique_heap_ptr@U__vcrt_ptd@@U__crt_internal_free_policy@@@@QBE_NXZ 00430a10 f i libvcruntimed:per_thread_data.obj
 0001:0002fa30       ?detach@?$__crt_unique_heap_ptr@U__vcrt_ptd@@U__crt_internal_free_policy@@@@QAEPAU__vcrt_ptd@@XZ 00430a30 f i libvcruntimed:per_thread_data.obj
 0001:0002fa60       ?get@?$__crt_unique_heap_ptr@U__vcrt_ptd@@U__crt_internal_free_policy@@@@QBEPAU__vcrt_ptd@@XZ 00430a60 f i libvcruntimed:per_thread_data.obj
 0001:0002fa80       ?is_valid@?$__crt_unique_heap_ptr@U__vcrt_ptd@@U__crt_internal_free_policy@@@@QBE_NXZ 00430a80 f i libvcruntimed:per_thread_data.obj
 0001:0002fac0       ?release@?$__crt_unique_heap_ptr@U__vcrt_ptd@@U__crt_internal_free_policy@@@@QAEXXZ 00430ac0 f i libvcruntimed:per_thread_data.obj
 0001:0002fb20       ___vcrt_freefls@4          00430b20 f   libvcruntimed:per_thread_data.obj
 0001:0002fb50       ___vcrt_freeptd            00430b50 f   libvcruntimed:per_thread_data.obj
 0001:0002fbc0       ___vcrt_getptd             00430bc0 f   libvcruntimed:per_thread_data.obj
 0001:0002fbf0       ___vcrt_getptd_noexit      00430bf0 f   libvcruntimed:per_thread_data.obj
 0001:0002fd20       ___vcrt_initialize_ptd     00430d20 f   libvcruntimed:per_thread_data.obj
 0001:0002fd80       ___vcrt_uninitialize_ptd   00430d80 f   libvcruntimed:per_thread_data.obj
 0001:0002fdc0       ___vcrt_initialize_locks   00430dc0 f   libvcruntimed:locks.obj
 0001:0002fe30       ___vcrt_lock               00430e30 f   libvcruntimed:locks.obj
 0001:0002fe50       ___vcrt_uninitialize_locks 00430e50 f   libvcruntimed:locks.obj
 0001:0002feb0       ___vcrt_unlock             00430eb0 f   libvcruntimed:locks.obj
 0001:0002fed0       ??$?B$$A6AXXZ@__crt_fast_encoded_nullptr_t@@QBEP6AXXZXZ 00430ed0 f i libvcruntimed:purevirt_data.obj
 0001:0002fef0       ??$__crt_fast_encode_pointer@P6AXXZ@@YAP6AXXZQ6AXXZ@Z 00430ef0 f i libvcruntimed:purevirt_data.obj
 0001:0002ff30       ___vcrt_initialize_pure_virtual_call_handler 00430f30 f   libvcruntimed:purevirt_data.obj
 0001:0002ff60       ??$__vcrt_va_start_verify_argument_type@QBD@@YAXXZ 00430f60 f i libvcruntimed:undname.obj
 0001:0002ff70       ??0Block@_HeapManager@@QAE@XZ 00430f70 f i libvcruntimed:undname.obj
 0001:0002ff90       ??0DName@@QAE@AAPBDD@Z     00430f90 f   libvcruntimed:undname.obj
 0001:00030300       ??0DName@@QAE@ABV0@@Z      00431300 f i libvcruntimed:undname.obj
 0001:00030330       ??0DName@@QAE@D@Z          00431330 f   libvcruntimed:undname.obj
 0001:00030440       ??0DName@@QAE@PAV0@@Z      00431440 f   libvcruntimed:undname.obj
 0001:000305c0       ??0DName@@QAE@PBD@Z        004315c0 f   libvcruntimed:undname.obj
 0001:000306f0       ??0DName@@QAE@W4DNameStatus@@@Z 004316f0 f   libvcruntimed:undname.obj
 0001:00030850       ??0DName@@QAE@XZ           00431850 f i libvcruntimed:undname.obj
 0001:00030940       ??0DName@@QAE@_J@Z         00431940 f   libvcruntimed:undname.obj
 0001:00030b20       ??0DName@@QAE@_K@Z         00431b20 f   libvcruntimed:undname.obj
 0001:00030cb0       ??0DNameNode@@IAE@XZ       00431cb0 f   libvcruntimed:undname.obj
 0001:00030cd0       ??0DNameStatusNode@@AAE@W4DNameStatus@@@Z 00431cd0 f   libvcruntimed:undname.obj
 0001:00030d40       ??0Replicator@@QAE@XZ      00431d40 f i libvcruntimed:undname.obj
 0001:00030d60       ??0UnDecorator@@QAE@PADPBDHP6APADJ@ZK@Z 00431d60 f i libvcruntimed:undname.obj
 0001:00030e20       ??0charNode@@QAE@D@Z       00431e20 f   libvcruntimed:undname.obj
 0001:00030e60       ??0pDNameNode@@QAE@PAVDName@@@Z 00431e60 f   libvcruntimed:undname.obj
 0001:00030ee0       ??0pairNode@@QAE@PAVDNameNode@@0@Z 00431ee0 f   libvcruntimed:undname.obj
 0001:00030f30       ??0pcharNode@@QAE@PBDH@Z   00431f30 f   libvcruntimed:undname.obj
 0001:00030ff0       ??2@YAPAXIAAV_HeapManager@@H@Z 00431ff0 f i libvcruntimed:undname.obj
 0001:00031010       ??4DName@@QAEAAV0@ABV0@@Z  00432010 f   libvcruntimed:undname.obj
 0001:00031040       ??4DName@@QAEAAV0@D@Z      00432040 f i libvcruntimed:undname.obj
 0001:00031150       ??4DName@@QAEAAV0@PAV0@@Z  00432150 f   libvcruntimed:undname.obj
 0001:000312d0       ??4DName@@QAEAAV0@PBD@Z    004322d0 f   libvcruntimed:undname.obj
 0001:000313e0       ??4DName@@QAEAAV0@W4DNameStatus@@@Z 004323e0 f   libvcruntimed:undname.obj
 0001:00031520       ??AReplicator@@QBE?AVDName@@H@Z 00432520 f   libvcruntimed:undname.obj
 0001:000315a0       ??BUnDecorator@@QAEPADXZ   004325a0 f i libvcruntimed:undname.obj
 0001:000318f0       ??H@YA?AVDName@@DABV0@@Z   004328f0 f i libvcruntimed:undname.obj
 0001:00031930       ??H@YA?AVDName@@PBDABV0@@Z 00432930 f i libvcruntimed:undname.obj
 0001:00031970       ??H@YA?AVDName@@W4DNameStatus@@ABV0@@Z 00432970 f i libvcruntimed:undname.obj
 0001:000319b0       ??HDName@@QBE?AV0@ABV0@@Z  004329b0 f   libvcruntimed:undname.obj
 0001:00031a00       ??HDName@@QBE?AV0@D@Z      00432a00 f   libvcruntimed:undname.obj
 0001:00031a50       ??HDName@@QBE?AV0@PAV0@@Z  00432a50 f   libvcruntimed:undname.obj
 0001:00031aa0       ??HDName@@QBE?AV0@PBD@Z    00432aa0 f   libvcruntimed:undname.obj
 0001:00031af0       ??HDName@@QBE?AV0@W4DNameStatus@@@Z 00432af0 f   libvcruntimed:undname.obj
 0001:00031b40       ??YDName@@QAEAAV0@ABV0@@Z  00432b40 f   libvcruntimed:undname.obj
 0001:00031bc0       ??YDName@@QAEAAV0@D@Z      00432bc0 f   libvcruntimed:undname.obj
 0001:00031c60       ??YDName@@QAEAAV0@PAV0@@Z  00432c60 f   libvcruntimed:undname.obj
 0001:00031d40       ??YDName@@QAEAAV0@PBD@Z    00432d40 f   libvcruntimed:undname.obj
 0001:00031e00       ??YDName@@QAEAAV0@W4DNameStatus@@@Z 00432e00 f   libvcruntimed:undname.obj
 0001:00031e80       ??YReplicator@@QAEAAV0@ABVDName@@@Z 00432e80 f   libvcruntimed:undname.obj
 0001:00031f30       ??_5DName@@QAEAAV0@ABV0@@Z 00432f30 f   libvcruntimed:undname.obj
 0001:00031fa0       ?Constructor@_HeapManager@@QAEXP6APAXI@ZP6AXPAX@Z@Z 00432fa0 f i libvcruntimed:undname.obj
 0001:00031ff0       ?Destructor@_HeapManager@@QAEXXZ 00432ff0 f i libvcruntimed:undname.obj
 0001:00032060       ?UScore@UnDecorator@@SAPBDW4Tokens@@@Z 00433060 f   libvcruntimed:undname.obj
 0001:000320a0       ?append@DName@@AAEXPAVDNameNode@@@Z 004330a0 f   libvcruntimed:undname.obj
 0001:00032150       ?composeDeclaration@UnDecorator@@CA?AVDName@@ABV2@@Z 00433150 f i libvcruntimed:undname.obj
 0001:00034500       ?dbGetString@DName@@QBEPADXZ 00435500 f   libvcruntimed:undname.obj
 0001:00034530       ?doAccessSpecifiers@UnDecorator@@SAHXZ 00435530 f i libvcruntimed:undname.obj
 0001:00034560       ?doAllocationLanguage@UnDecorator@@SAHXZ 00435560 f i libvcruntimed:undname.obj
 0001:00034590       ?doAllocationModel@UnDecorator@@SAHXZ 00435590 f i libvcruntimed:undname.obj
 0001:000345c0       ?doEcsu@UnDecorator@@SAHXZ 004355c0 f i libvcruntimed:undname.obj
 0001:000345f0       ?doEllipsis@UnDecorator@@SAHXZ 004355f0 f i libvcruntimed:undname.obj
 0001:00034620       ?doFunctionReturns@UnDecorator@@SAHXZ 00435620 f i libvcruntimed:undname.obj
 0001:00034650       ?doMSKeywords@UnDecorator@@SAHXZ 00435650 f i libvcruntimed:undname.obj
 0001:00034680       ?doMemberTypes@UnDecorator@@SAHXZ 00435680 f i libvcruntimed:undname.obj
 0001:000346b0       ?doNameOnly@UnDecorator@@SAHXZ 004356b0 f i libvcruntimed:undname.obj
 0001:000346d0       ?doNoIdentCharCheck@UnDecorator@@SAHXZ 004356d0 f i libvcruntimed:undname.obj
 0001:000346f0       ?doPchar@DName@@AAEXPBDH@Z 004356f0 f   libvcruntimed:undname.obj
 0001:00034880       ?doPtr64@UnDecorator@@SAHXZ 00435880 f i libvcruntimed:undname.obj
 0001:000348b0       ?doRestrictionSpec@UnDecorator@@SAHXZ 004358b0 f i libvcruntimed:undname.obj
 0001:000348e0       ?doThisTypes@UnDecorator@@SAHXZ 004358e0 f i libvcruntimed:undname.obj
 0001:00034920       ?doThrowTypes@UnDecorator@@SAHXZ 00435920 f i libvcruntimed:undname.obj
 0001:00034950       ?doTypeOnly@UnDecorator@@SAHXZ 00435950 f i libvcruntimed:undname.obj
 0001:00034970       ?doUnderScore@UnDecorator@@SAHXZ 00435970 f i libvcruntimed:undname.obj
 0001:000349a0       ?getArgumentList@UnDecorator@@CA?AVDName@@XZ 004359a0 f   libvcruntimed:undname.obj
 0001:00034b40       ?getArgumentTypes@UnDecorator@@CA?AVDName@@XZ 00435b40 f   libvcruntimed:undname.obj
 0001:00034cf0       ?getArrayType@UnDecorator@@CA?AVDName@@ABV2@@Z 00435cf0 f i libvcruntimed:undname.obj
 0001:00034fb0       ?getBasedType@UnDecorator@@CA?AVDName@@XZ 00435fb0 f   libvcruntimed:undname.obj
 0001:000350a0       ?getBasicDataType@UnDecorator@@CA?AVDName@@ABV2@@Z 004360a0 f   libvcruntimed:undname.obj
 0001:00035800       ?getCallIndex@UnDecorator@@CA?AVDName@@XZ 00436800 f i libvcruntimed:undname.obj
 0001:00035820       ?getCallingConvention@UnDecorator@@CA?AVDName@@XZ 00436820 f   libvcruntimed:undname.obj
 0001:00035a10       ?getDataIndirectType@UnDecorator@@CA?AVDName@@ABV2@PBD0H@Z 00436a10 f   libvcruntimed:undname.obj
 0001:000363c0       ?getDataIndirectType@UnDecorator@@CA?AVDName@@XZ 004373c0 f i libvcruntimed:undname.obj
 0001:00036410       ?getDataType@UnDecorator@@CA?AVDName@@PAV2@@Z 00437410 f   libvcruntimed:undname.obj
 0001:00036570       ?getDecoratedName@UnDecorator@@CA?AVDName@@XZ 00437570 f   libvcruntimed:undname.obj
 0001:00036960       ?getDimension@UnDecorator@@CA?AVDName@@_N@Z 00437960 f   libvcruntimed:undname.obj
 0001:00036cc0       ?getDispatchTarget@UnDecorator@@CA?AVDName@@XZ 00437cc0 f   libvcruntimed:undname.obj
 0001:00036d80       ?getDisplacement@UnDecorator@@CA?AVDName@@XZ 00437d80 f i libvcruntimed:undname.obj
 0001:00036da0       ?getECSUDataType@UnDecorator@@CA?AVDName@@XZ 00437da0 f   libvcruntimed:undname.obj
 0001:00036fe0       ?getECSUName@UnDecorator@@CA?AVDName@@XZ 00437fe0 f i libvcruntimed:undname.obj
 0001:00037000       ?getEnumType@UnDecorator@@CA?AVDName@@XZ 00438000 f i libvcruntimed:undname.obj
 0001:000371a0       ?getExtendedDataIndirectType@UnDecorator@@CA?AVDName@@AAPBDAA_NH@Z 004381a0 f   libvcruntimed:undname.obj
 0001:00037480       ?getExternalDataType@UnDecorator@@CA?AVDName@@ABV2@@Z 00438480 f i libvcruntimed:undname.obj
 0001:00037540       ?getFunctionIndirectType@UnDecorator@@CA?AVDName@@ABV2@@Z 00438540 f   libvcruntimed:undname.obj
 0001:00037af0       ?getGuardNumber@UnDecorator@@CA?AVDName@@XZ 00438af0 f i libvcruntimed:undname.obj
 0001:00037b10       ?getLastChar@DName@@QBEDXZ 00438b10 f i libvcruntimed:undname.obj
 0001:00037b60       ?getLastChar@DNameStatusNode@@UBEDXZ 00438b60 f i libvcruntimed:undname.obj
 0001:00037ba0       ?getLastChar@charNode@@UBEDXZ 00438ba0 f i libvcruntimed:undname.obj
 0001:00037bc0       ?getLastChar@pDNameNode@@UBEDXZ 00438bc0 f i libvcruntimed:undname.obj
 0001:00037c00       ?getLastChar@pairNode@@UBEDXZ 00438c00 f i libvcruntimed:undname.obj
 0001:00037c80       ?getLastChar@pcharNode@@UBEDXZ 00438c80 f i libvcruntimed:undname.obj
 0001:00037cc0       ?getLexicalFrame@UnDecorator@@CA?AVDName@@XZ 00438cc0 f i libvcruntimed:undname.obj
 0001:00037d10       ?getMemory@_HeapManager@@QAEPAXIH@Z 00438d10 f   libvcruntimed:undname.obj
 0001:00037e70       ?getNumberOfDimensions@UnDecorator@@CAHXZ 00438e70 f   libvcruntimed:undname.obj
 0001:00037fb0       ?getOperatorName@UnDecorator@@CA?AVDName@@_NPA_N@Z 00438fb0 f i libvcruntimed:undname.obj
 0001:00038c70       ?getPointerType@UnDecorator@@CA?AVDName@@ABV2@0@Z 00439c70 f i libvcruntimed:undname.obj
 0001:00038cb0       ?getPointerTypeArray@UnDecorator@@CA?AVDName@@ABV2@0@Z 00439cb0 f i libvcruntimed:undname.obj
 0001:00038cf0       ?getPrimaryDataType@UnDecorator@@CA?AVDName@@ABV2@@Z 00439cf0 f   libvcruntimed:undname.obj
 0001:000391b0       ?getPtrRefDataType@UnDecorator@@CA?AVDName@@ABV2@H@Z 0043a1b0 f   libvcruntimed:undname.obj
 0001:000393b0       ?getPtrRefType@UnDecorator@@CA?AVDName@@ABV2@0PBD@Z 0043a3b0 f   libvcruntimed:undname.obj
 0001:00039580       ?getReferenceType@UnDecorator@@CA?AVDName@@ABV2@0PBD@Z 0043a580 f i libvcruntimed:undname.obj
 0001:000395b0       ?getRestrictionSpec@UnDecorator@@CA?AVDName@@XZ 0043a5b0 f   libvcruntimed:undname.obj
 0001:00039750       ?getReturnType@UnDecorator@@CA?AVDName@@PAV2@@Z 0043a750 f   libvcruntimed:undname.obj
 0001:000397b0       ?getScope@UnDecorator@@CA?AVDName@@XZ 0043a7b0 f   libvcruntimed:undname.obj
 0001:00039de0       ?getScopedName@UnDecorator@@CA?AVDName@@XZ 0043ade0 f   libvcruntimed:undname.obj
 0001:00039f40       ?getSignedDimension@UnDecorator@@CA?AVDName@@XZ 0043af40 f   libvcruntimed:undname.obj
 0001:00039fe0       ?getStorageConvention@UnDecorator@@CA?AVDName@@XZ 0043afe0 f i libvcruntimed:undname.obj
 0001:0003a000       ?getString@DName@@QBEPADPAD0@Z 0043b000 f i libvcruntimed:undname.obj
 0001:0003a060       ?getString@DName@@QBEPADPADH@Z 0043b060 f i libvcruntimed:undname.obj
 0001:0003a110       ?getString@DNameStatusNode@@UBEPADPAD0@Z 0043b110 f i libvcruntimed:undname.obj
 0001:0003a150       ?getString@charNode@@UBEPADPAD0@Z 0043b150 f i libvcruntimed:undname.obj
 0001:0003a190       ?getString@pDNameNode@@UBEPADPAD0@Z 0043b190 f i libvcruntimed:undname.obj
 0001:0003a1e0       ?getString@pairNode@@UBEPADPAD0@Z 0043b1e0 f i libvcruntimed:undname.obj
 0001:0003a280       ?getString@pcharNode@@UBEPADPAD0@Z 0043b280 f i libvcruntimed:undname.obj
 0001:0003a2c0       ?getStringEncoding@UnDecorator@@CA?AVDName@@PADH@Z 0043b2c0 f   libvcruntimed:undname.obj
 0001:0003a410       ?getStringHelper@@YAPADPAD00H@Z 0043b410 f i libvcruntimed:undname.obj
 0001:0003a460       ?getSymbolName@UnDecorator@@CA?AVDName@@XZ 0043b460 f i libvcruntimed:undname.obj
 0001:0003a510       ?getTemplateArgumentList@UnDecorator@@CA?AVDName@@XZ 0043b510 f   libvcruntimed:undname.obj
 0001:0003a9f0       ?getTemplateConstant@UnDecorator@@CA?AVDName@@XZ 0043b9f0 f   libvcruntimed:undname.obj
 0001:0003b110       ?getTemplateName@UnDecorator@@CA?AVDName@@_N@Z 0043c110 f   libvcruntimed:undname.obj
 0001:0003b350       ?getThisType@UnDecorator@@CA?AVDName@@XZ 0043c350 f i libvcruntimed:undname.obj
 0001:0003b3a0       ?getThrowTypes@UnDecorator@@CA?AVDName@@XZ 0043c3a0 f   libvcruntimed:undname.obj
 0001:0003b470       ?getTypeEncoding@UnDecorator@@CAHXZ 0043c470 f i libvcruntimed:undname.obj
 0001:0003c140       ?getVCallThunkType@UnDecorator@@CA?AVDName@@XZ 0043d140 f i libvcruntimed:undname.obj
 0001:0003c1c0       ?getVbTableType@UnDecorator@@CA?AVDName@@ABV2@@Z 0043d1c0 f i libvcruntimed:undname.obj
 0001:0003c1e0       ?getVdispMapType@UnDecorator@@CA?AVDName@@ABV2@@Z 0043d1e0 f i libvcruntimed:undname.obj
 0001:0003c270       ?getVfTableType@UnDecorator@@CA?AVDName@@ABV2@@Z 0043d270 f i libvcruntimed:undname.obj
 0001:0003c4a0       ?getZName@UnDecorator@@CA?AVDName@@_N0@Z 0043d4a0 f   libvcruntimed:undname.obj
 0001:0003c820       ?haveTemplateParameters@UnDecorator@@SAHXZ 0043d820 f i libvcruntimed:undname.obj
 0001:0003c840       ?isArray@DName@@QBEHXZ     0043d840 f i libvcruntimed:undname.obj
 0001:0003c860       ?isComArray@DName@@QBEHXZ  0043d860 f i libvcruntimed:undname.obj
 0001:0003c880       ?isEmpty@DName@@QBEHXZ     0043d880 f i libvcruntimed:undname.obj
 0001:0003c8c0       ?isFull@Replicator@@QBEHXZ 0043d8c0 f i libvcruntimed:undname.obj
 0001:0003c900       ?isNoTE@DName@@QBEHXZ      0043d900 f i libvcruntimed:undname.obj
 0001:0003c920       ?isPinPtr@DName@@QBEHXZ    0043d920 f i libvcruntimed:undname.obj
 0001:0003c940       ?isPtrRef@DName@@QBEHXZ    0043d940 f i libvcruntimed:undname.obj
 0001:0003c960       ?isUDC@DName@@QBEHXZ       0043d960 f i libvcruntimed:undname.obj
 0001:0003c9b0       ?isUDTThunk@DName@@QBEHXZ  0043d9b0 f i libvcruntimed:undname.obj
 0001:0003ca00       ?isVCallThunk@DName@@QBEHXZ 0043da00 f i libvcruntimed:undname.obj
 0001:0003ca20       ?isValid@DName@@QBEHXZ     0043da20 f i libvcruntimed:undname.obj
 0001:0003ca60       ?length@DName@@QBEHXZ      0043da60 f i libvcruntimed:undname.obj
 0001:0003cab0       ?length@DNameStatusNode@@UBEHXZ 0043dab0 f i libvcruntimed:undname.obj
 0001:0003cad0       ?length@charNode@@UBEHXZ   0043dad0 f i libvcruntimed:undname.obj
 0001:0003caf0       ?length@pDNameNode@@UBEHXZ 0043daf0 f i libvcruntimed:undname.obj
 0001:0003cb30       ?length@pairNode@@UBEHXZ   0043db30 f i libvcruntimed:undname.obj
 0001:0003cbc0       ?length@pcharNode@@UBEHXZ  0043dbc0 f i libvcruntimed:undname.obj
 0001:0003cbe0       ?make@DNameStatusNode@@SAPAV1@W4DNameStatus@@@Z 0043dbe0 f i libvcruntimed:undname.obj
 0001:0003cc70       ?setIsArray@DName@@QAEXXZ  0043dc70 f i libvcruntimed:undname.obj
 0001:0003cca0       ?setIsComArray@DName@@QAEXXZ 0043dca0 f i libvcruntimed:undname.obj
 0001:0003ccd0       ?setIsNoTE@DName@@QAEXXZ   0043dcd0 f i libvcruntimed:undname.obj
 0001:0003cd00       ?setIsPinPtr@DName@@QAEXXZ 0043dd00 f i libvcruntimed:undname.obj
 0001:0003cd30       ?setIsUDC@DName@@QAEXXZ    0043dd30 f i libvcruntimed:undname.obj
 0001:0003cd70       ?setIsVCallThunk@DName@@QAEXXZ 0043dd70 f i libvcruntimed:undname.obj
 0001:0003cda0       ?setPtrRef@DName@@QAEAAV1@XZ 0043dda0 f i libvcruntimed:undname.obj
 0001:0003cdd0       ?status@DName@@QBE?AW4DNameStatus@@XZ 0043ddd0 f i libvcruntimed:undname.obj
 0001:0003cef0       ___unDName                 0043def0 f   libvcruntimed:undname.obj
 0001:0003cff0       ___unDNameEx               0043dff0 f   libvcruntimed:undname.obj
 0001:0003d0f0       __vsprintf_s_l             0043e0f0 f i libvcruntimed:undname.obj
 0001:0003d150       _sprintf_s                 0043e150 f i libvcruntimed:undname.obj
 0001:0003d1a0       __rt_probe_read4@4         0043e1a0 f   libvcruntimed:_sehsupp_.obj
 0001:0003d270       ??$__crt_fast_decode_pointer@P6AXXZ@@YAP6AXXZQ6AXXZ@Z 0043e270 f i libvcruntimed:purevirt.obj
 0001:0003d2a0       ??$__crt_interlocked_compare_exchange_pointer@$$A6AXXZ$$T$$T@@YAP6AXXZPDS6AXXZ$$T1@Z 0043e2a0 f i libvcruntimed:purevirt.obj
 0001:0003d2c0       ??$__crt_interlocked_exchange_pointer@$$A6AXXZP6AXXZ@@YAP6AXXZPDS6AXXZQ6AXXZ@Z 0043e2c0 f i libvcruntimed:purevirt.obj
 0001:0003d2d0       ??$__crt_interlocked_read_pointer@$$A6AXXZ@@YAP6AXXZPDS6AXXZ@Z 0043e2d0 f i libvcruntimed:purevirt.obj
 0001:0003d2f0       __get_purecall_handler     0043e2f0 f   libvcruntimed:purevirt.obj
 0001:0003d320       __purecall                 0043e320 f   libvcruntimed:purevirt.obj
 0001:0003d360       __set_purecall_handler     0043e360 f   libvcruntimed:purevirt.obj
 0001:0003d3a0       ??$__crt_interlocked_read@J@@YAJPDJ@Z 0043e3a0 f i libucrtd:assert.obj
 0001:0003d3c0       ??$__vcrt_va_start_verify_argument_type@QB_W@@YAXXZ 0043e3c0 f i libucrtd:assert.obj
 0001:0003f500       ??$ftprintf@PAU_iobuf@@PBDABQBDABQBDABI@?$__crt_char_traits@D@@SAH$$QAPAU_iobuf@@$$QAPBDABQBD2ABI@Z 00440500 f i libucrtd:assert.obj
 0001:0003f540       ??$ftprintf@PAU_iobuf@@PB_WABQB_WABQB_WABI@?$__crt_char_traits@_W@@SAH$$QAPAU_iobuf@@$$QAPB_WABQB_W2ABI@Z 00440540 f i libucrtd:assert.obj
 0001:0003f580       ??$get_module_file_name@AAPAUHINSTANCE__@@AAY0BAF@DK@?$__crt_char_traits@D@@SAKAAPAUHINSTANCE__@@AAY0BAF@D$$QAK@Z 00440580 f i libucrtd:assert.obj
 0001:0003f5b0       ??$get_module_file_name@AAPAUHINSTANCE__@@AAY0BAF@_WK@?$__crt_char_traits@_W@@SAKAAPAUHINSTANCE__@@AAY0BAF@_W$$QAK@Z 004405b0 f i libucrtd:assert.obj
 0001:0003f5e0       ??$itot_s@ABIQAD$$CBIH@?$__crt_char_traits@D@@SAHABI$$QBQAD$$QBI$$QAH@Z 004405e0 f i libucrtd:assert.obj
 0001:0003f610       ??$itot_s@ABIQA_W$$CBIH@?$__crt_char_traits@_W@@SAHABI$$QBQA_W$$QBI$$QAH@Z 00440610 f i libucrtd:assert.obj
 0001:0003f640       ??$show_message_box@AAY0CEA@DPBDJ@?$__crt_char_traits@D@@SAHAAY0CEA@D$$QAPBD$$QAJ@Z 00440640 f i libucrtd:assert.obj
 0001:0003f670       ??$show_message_box@AAY0CEA@_WPB_WJ@?$__crt_char_traits@_W@@SAHAAY0CEA@_W$$QAPB_W$$QAJ@Z 00440670 f i libucrtd:assert.obj
 0001:0003f6a0       ??$tcscat_s@ABQADABIAAPAD@?$__crt_char_traits@D@@SAHABQADABIAAPAD@Z 004406a0 f i libucrtd:assert.obj
 0001:0003f6d0       ??$tcscat_s@ABQADABIABQBD@?$__crt_char_traits@D@@SAHABQADABIABQBD@Z 004406d0 f i libucrtd:assert.obj
 0001:0003f700       ??$tcscat_s@ABQADABIPBD@?$__crt_char_traits@D@@SAHABQADABI$$QAPBD@Z 00440700 f i libucrtd:assert.obj
 0001:0003f730       ??$tcscat_s@ABQA_WABIAAPA_W@?$__crt_char_traits@_W@@SAHABQA_WABIAAPA_W@Z 00440730 f i libucrtd:assert.obj
 0001:0003f760       ??$tcscat_s@ABQA_WABIABQB_W@?$__crt_char_traits@_W@@SAHABQA_WABIABQB_W@Z 00440760 f i libucrtd:assert.obj
 0001:0003f790       ??$tcscat_s@ABQA_WABIPB_W@?$__crt_char_traits@_W@@SAHABQA_WABI$$QAPB_W@Z 00440790 f i libucrtd:assert.obj
 0001:0003f7c0       ??$tcscpy_s@AAY0BAF@DIPBD@?$__crt_char_traits@D@@SAHAAY0BAF@D$$QAI$$QAPBD@Z 004407c0 f i libucrtd:assert.obj
 0001:0003f7f0       ??$tcscpy_s@AAY0BAF@_WIPB_W@?$__crt_char_traits@_W@@SAHAAY0BAF@_W$$QAI$$QAPB_W@Z 004407f0 f i libucrtd:assert.obj
 0001:0003f820       ??$tcscpy_s@ABQADABIPBD@?$__crt_char_traits@D@@SAHABQADABI$$QAPBD@Z 00440820 f i libucrtd:assert.obj
 0001:0003f850       ??$tcscpy_s@ABQA_WABIPB_W@?$__crt_char_traits@_W@@SAHABQA_WABI$$QAPB_W@Z 00440850 f i libucrtd:assert.obj
 0001:0003f880       ??$tcslen@AAY0BAF@D@?$__crt_char_traits@D@@SAIAAY0BAF@D@Z 00440880 f i libucrtd:assert.obj
 0001:0003f8a0       ??$tcslen@AAY0BAF@_W@?$__crt_char_traits@_W@@SAIAAY0BAF@_W@Z 004408a0 f i libucrtd:assert.obj
 0001:0003f8c0       ??$tcslen@ABQAD@?$__crt_char_traits@D@@SAIABQAD@Z 004408c0 f i libucrtd:assert.obj
 0001:0003f8e0       ??$tcslen@ABQA_W@?$__crt_char_traits@_W@@SAIABQA_W@Z 004408e0 f i libucrtd:assert.obj
 0001:0003f900       ??$tcslen@ABQBD@?$__crt_char_traits@D@@SAIABQBD@Z 00440900 f i libucrtd:assert.obj
 0001:0003f920       ??$tcslen@ABQB_W@?$__crt_char_traits@_W@@SAIABQB_W@Z 00440920 f i libucrtd:assert.obj
 0001:0003f940       ??$tcsncat_s@ABQADABIAAPBD$$CBI@?$__crt_char_traits@D@@SAHABQADABIAAPBD$$QBI@Z 00440940 f i libucrtd:assert.obj
 0001:0003f970       ??$tcsncat_s@ABQADABIABQBDABI@?$__crt_char_traits@D@@SAHABQADABIABQBD1@Z 00440970 f i libucrtd:assert.obj
 0001:0003f9a0       ??$tcsncat_s@ABQADABIPBD$$CBI@?$__crt_char_traits@D@@SAHABQADABI$$QAPBD$$QBI@Z 004409a0 f i libucrtd:assert.obj
 0001:0003f9d0       ??$tcsncat_s@ABQA_WABIAAPB_W$$CBI@?$__crt_char_traits@_W@@SAHABQA_WABIAAPB_W$$QBI@Z 004409d0 f i libucrtd:assert.obj
 0001:0003fa00       ??$tcsncat_s@ABQA_WABIABQB_WABI@?$__crt_char_traits@_W@@SAHABQA_WABIABQB_W1@Z 00440a00 f i libucrtd:assert.obj
 0001:0003fa30       ??$tcsncat_s@ABQA_WABIPB_W$$CBI@?$__crt_char_traits@_W@@SAHABQA_WABI$$QAPB_W$$QBI@Z 00440a30 f i libucrtd:assert.obj
 0001:0003fa60       ??0__crt_stdio_stream@@QAE@QAU_iobuf@@@Z 00440a60 f i libucrtd:assert.obj
 0001:0003fa80       ?__crt_interlocked_read_32@@YAHPDH@Z 00440a80 f i libucrtd:assert.obj
 0001:0003fcb0       ?get_flags@__crt_stdio_stream@@QBEJXZ 00440cb0 f i libucrtd:assert.obj
 0001:0003fda0       ?has_any_buffer@__crt_stdio_stream@@QBE_NXZ 00440da0 f i libucrtd:assert.obj
 0001:0003fdc0       ?has_any_of@__crt_stdio_stream@@QBE_NJ@Z 00440dc0 f i libucrtd:assert.obj
 0001:0003fe00       __assert                   00440e00 f   libucrtd:assert.obj
 0001:0003fe30       __invoke_watson_if_error   00440e30 f i libucrtd:assert.obj
 0001:0003fe70       __vfwprintf_l              00440e70 f i libucrtd:assert.obj
 0001:0003feb0       __vswprintf_c_l            00440eb0 f i libucrtd:assert.obj
 0001:0003ff20       __wassert                  00440f20 f   libucrtd:assert.obj
 0001:0003ff50       _fprintf                   00440f50 f i libucrtd:assert.obj
 0001:0003ffa0       _fwprintf                  00440fa0 f i libucrtd:assert.obj
 0001:00040140       _swprintf                  00441140 f i libucrtd:assert.obj
 0001:00040190       _strlen                    00441190 f   libucrtd:strlen.obj
 0001:00040240       ??$?0ABV?$stream_output_adapter@D@__crt_stdio_output@@AB_KABQBDABQAU__crt_locale_pointers@@ABQAD@?$format_validation_base@DV?$stream_output_adapter@D@__crt_stdio_output@@@__crt_stdio_output@@IAE@ABV?$stream_output_adapter@D@1@AB_KABQBDABQAU__crt_locale_pointers@@ABQAD@Z 00441240 f i libucrtd:output.obj
 0001:00040280       ??$?0ABV?$stream_output_adapter@D@__crt_stdio_output@@AB_KABQBDABQAU__crt_locale_pointers@@ABQAD@?$positional_parameter_base@DV?$stream_output_adapter@D@__crt_stdio_output@@@__crt_stdio_output@@IAE@ABV?$stream_output_adapter@D@1@AB_KABQBDABQAU__crt_locale_pointers@@ABQAD@Z 00441280 f i libucrtd:output.obj
 0001:00040310       ??$?0ABV?$stream_output_adapter@D@__crt_stdio_output@@AB_KABQBDABQAU__crt_locale_pointers@@ABQAD@?$standard_base@DV?$stream_output_adapter@D@__crt_stdio_output@@@__crt_stdio_output@@IAE@ABV?$stream_output_adapter@D@1@AB_KABQBDABQAU__crt_locale_pointers@@ABQAD@Z 00441310 f i libucrtd:output.obj
 0001:00040370       ??$?0ABV?$stream_output_adapter@_W@__crt_stdio_output@@AB_KABQB_WABQAU__crt_locale_pointers@@ABQAD@?$format_validation_base@_WV?$stream_output_adapter@_W@__crt_stdio_output@@@__crt_stdio_output@@IAE@ABV?$stream_output_adapter@_W@1@AB_KABQB_WABQAU__crt_locale_pointers@@ABQAD@Z 00441370 f i libucrtd:output.obj
 0001:000403b0       ??$?0ABV?$stream_output_adapter@_W@__crt_stdio_output@@AB_KABQB_WABQAU__crt_locale_pointers@@ABQAD@?$positional_parameter_base@_WV?$stream_output_adapter@_W@__crt_stdio_output@@@__crt_stdio_output@@IAE@ABV?$stream_output_adapter@_W@1@AB_KABQB_WABQAU__crt_locale_pointers@@ABQAD@Z 004413b0 f i libucrtd:output.obj
 0001:00040440       ??$?0ABV?$stream_output_adapter@_W@__crt_stdio_output@@AB_KABQB_WABQAU__crt_locale_pointers@@ABQAD@?$standard_base@_WV?$stream_output_adapter@_W@__crt_stdio_output@@@__crt_stdio_output@@IAE@ABV?$stream_output_adapter@_W@1@AB_KABQB_WABQAU__crt_locale_pointers@@ABQAD@Z 00441440 f i libucrtd:output.obj
 0001:000404a0       ??$?0ABV?$string_output_adapter@D@__crt_stdio_output@@AB_KABQBDABQAU__crt_locale_pointers@@ABQAD@?$format_validation_base@DV?$string_output_adapter@D@__crt_stdio_output@@@__crt_stdio_output@@IAE@ABV?$string_output_adapter@D@1@AB_KABQBDABQAU__crt_locale_pointers@@ABQAD@Z 004414a0 f i libucrtd:output.obj
 0001:000404e0       ??$?0ABV?$string_output_adapter@D@__crt_stdio_output@@AB_KABQBDABQAU__crt_locale_pointers@@ABQAD@?$positional_parameter_base@DV?$string_output_adapter@D@__crt_stdio_output@@@__crt_stdio_output@@IAE@ABV?$string_output_adapter@D@1@AB_KABQBDABQAU__crt_locale_pointers@@ABQAD@Z 004414e0 f i libucrtd:output.obj
 0001:00040570       ??$?0ABV?$string_output_adapter@D@__crt_stdio_output@@AB_KABQBDABQAU__crt_locale_pointers@@ABQAD@?$standard_base@DV?$string_output_adapter@D@__crt_stdio_output@@@__crt_stdio_output@@IAE@ABV?$string_output_adapter@D@1@AB_KABQBDABQAU__crt_locale_pointers@@ABQAD@Z 00441570 f i libucrtd:output.obj
 0001:000405d0       ??$?0ABV?$string_output_adapter@_W@__crt_stdio_output@@AB_KABQB_WABQAU__crt_locale_pointers@@ABQAD@?$format_validation_base@_WV?$string_output_adapter@_W@__crt_stdio_output@@@__crt_stdio_output@@IAE@ABV?$string_output_adapter@_W@1@AB_KABQB_WABQAU__crt_locale_pointers@@ABQAD@Z 004415d0 f i libucrtd:output.obj
 0001:00040610       ??$?0ABV?$string_output_adapter@_W@__crt_stdio_output@@AB_KABQB_WABQAU__crt_locale_pointers@@ABQAD@?$positional_parameter_base@_WV?$string_output_adapter@_W@__crt_stdio_output@@@__crt_stdio_output@@IAE@ABV?$string_output_adapter@_W@1@AB_KABQB_WABQAU__crt_locale_pointers@@ABQAD@Z 00441610 f i libucrtd:output.obj
 0001:000406a0       ??$?0ABV?$string_output_adapter@_W@__crt_stdio_output@@AB_KABQB_WABQAU__crt_locale_pointers@@ABQAD@?$standard_base@_WV?$string_output_adapter@_W@__crt_stdio_output@@@__crt_stdio_output@@IAE@ABV?$string_output_adapter@_W@1@AB_KABQB_WABQAU__crt_locale_pointers@@ABQAD@Z 004416a0 f i libucrtd:output.obj
 0001:00040700       ??$?RV<lambda_2293f24e3ce1ad6fe22ccfb9dec07671>@@AAV<lambda_2565fc715a641e539f44ad02d6823606>@@V<lambda_d3217f279b832965d9ca670dc2993570>@@@?$__crt_seh_guarded_call@H@@QAEH$$QAV<lambda_2293f24e3ce1ad6fe22ccfb9dec07671>@@AAV<lambda_2565fc715a641e539f44ad02d6823606>@@$$QAV<lambda_d3217f279b832965d9ca670dc2993570>@@@Z 00441700 f i libucrtd:output.obj
 0001:000407b0       ??$?RV<lambda_4d4ac866be0fa3c441830420fabdd2cb>@@AAV<lambda_63a10c2dc8dbb9e4dd1890be52af7c93>@@V<lambda_002af9fa0f8fe472b648c51882d4fc32>@@@?$__crt_seh_guarded_call@H@@QAEH$$QAV<lambda_4d4ac866be0fa3c441830420fabdd2cb>@@AAV<lambda_63a10c2dc8dbb9e4dd1890be52af7c93>@@$$QAV<lambda_002af9fa0f8fe472b648c51882d4fc32>@@@Z 004417b0 f i libucrtd:output.obj
 0001:00040860       ??$?RV<lambda_5be909dfbae0a631386585770cd7b676>@@AAV<lambda_e516058a9c289d98c8ca9fea99247804>@@V<lambda_afe2e0cdc5e0ecf6f0d6f5e2f8985e38>@@@?$__crt_seh_guarded_call@H@@QAEH$$QAV<lambda_5be909dfbae0a631386585770cd7b676>@@AAV<lambda_e516058a9c289d98c8ca9fea99247804>@@$$QAV<lambda_afe2e0cdc5e0ecf6f0d6f5e2f8985e38>@@@Z 00441860 f i libucrtd:output.obj
 0001:00040910       ??$?RV<lambda_823d65812123d985753d53e2a8c25d20>@@AAV<lambda_0a97c9e57da7be065955385c79108ff2>@@V<lambda_4d2973f3ad2d226f00468307185dca1b>@@@?$__crt_seh_guarded_call@H@@QAEH$$QAV<lambda_823d65812123d985753d53e2a8c25d20>@@AAV<lambda_0a97c9e57da7be065955385c79108ff2>@@$$QAV<lambda_4d2973f3ad2d226f00468307185dca1b>@@@Z 00441910 f i libucrtd:output.obj
 0001:000409c0       ??$?RV<lambda_ab9923ffb5d694ec0d78876dd103e44f>@@AAV<lambda_481dd5778c961fbcd3b60b650e9b9dc4>@@V<lambda_7923d86c9e3f319b415918ec4b39749c>@@@?$__crt_seh_guarded_call@H@@QAEH$$QAV<lambda_ab9923ffb5d694ec0d78876dd103e44f>@@AAV<lambda_481dd5778c961fbcd3b60b650e9b9dc4>@@$$QAV<lambda_7923d86c9e3f319b415918ec4b39749c>@@@Z 004419c0 f i libucrtd:output.obj
 0001:00040a70       ??$?RV<lambda_db08b09ef7aa9d4f8620ce68402612bc>@@AAV<lambda_4f2c1eaeead2a5fc776db5b62ea0fb9b>@@V<lambda_3ae262bc35d4ba6a3825c4f6bcaaf95c>@@@?$__crt_seh_guarded_call@H@@QAEH$$QAV<lambda_db08b09ef7aa9d4f8620ce68402612bc>@@AAV<lambda_4f2c1eaeead2a5fc776db5b62ea0fb9b>@@$$QAV<lambda_3ae262bc35d4ba6a3825c4f6bcaaf95c>@@@Z 00441a70 f i libucrtd:output.obj
 0001:00040b20       ??$__acrt_lock_stream_and_call@V<lambda_0a97c9e57da7be065955385c79108ff2>@@@@YAHQAU_iobuf@@$$QAV<lambda_0a97c9e57da7be065955385c79108ff2>@@@Z 00441b20 f i libucrtd:output.obj
 0001:00040b70       ??$__acrt_lock_stream_and_call@V<lambda_2565fc715a641e539f44ad02d6823606>@@@@YAHQAU_iobuf@@$$QAV<lambda_2565fc715a641e539f44ad02d6823606>@@@Z 00441b70 f i libucrtd:output.obj
 0001:00040bc0       ??$__acrt_lock_stream_and_call@V<lambda_481dd5778c961fbcd3b60b650e9b9dc4>@@@@YAHQAU_iobuf@@$$QAV<lambda_481dd5778c961fbcd3b60b650e9b9dc4>@@@Z 00441bc0 f i libucrtd:output.obj
 0001:00040c10       ??$__acrt_lock_stream_and_call@V<lambda_4f2c1eaeead2a5fc776db5b62ea0fb9b>@@@@YAHQAU_iobuf@@$$QAV<lambda_4f2c1eaeead2a5fc776db5b62ea0fb9b>@@@Z 00441c10 f i libucrtd:output.obj
 0001:00040c60       ??$__acrt_lock_stream_and_call@V<lambda_63a10c2dc8dbb9e4dd1890be52af7c93>@@@@YAHQAU_iobuf@@$$QAV<lambda_63a10c2dc8dbb9e4dd1890be52af7c93>@@@Z 00441c60 f i libucrtd:output.obj
 0001:00040cb0       ??$__acrt_lock_stream_and_call@V<lambda_e516058a9c289d98c8ca9fea99247804>@@@@YAHQAU_iobuf@@$$QAV<lambda_e516058a9c289d98c8ca9fea99247804>@@@Z 00441cb0 f i libucrtd:output.obj
 0001:00044580       ??$count@D@formatting_buffer@__crt_stdio_output@@QBEIXZ 00445580 f i libucrtd:output.obj
 0001:000445d0       ??$data@D@formatting_buffer@__crt_stdio_output@@QAEPADXZ 004455d0 f i libucrtd:output.obj
 0001:00044620       ??$data@_W@formatting_buffer@__crt_stdio_output@@QAEPA_WXZ 00445620 f i libucrtd:output.obj
 0001:00044670       ??$ensure_buffer_is_big_enough@D@formatting_buffer@__crt_stdio_output@@QAE_NI@Z 00445670 f i libucrtd:output.obj
 0001:00044790       ??$extract_argument_from_va_list@C_J@?$positional_parameter_base@DV?$stream_output_adapter@D@__crt_stdio_output@@@__crt_stdio_output@@IAE_NAA_J@Z 00445790 f i libucrtd:output.obj
 0001:00044910       ??$extract_argument_from_va_list@C_J@?$positional_parameter_base@DV?$string_output_adapter@D@__crt_stdio_output@@@__crt_stdio_output@@IAE_NAA_J@Z 00445910 f i libucrtd:output.obj
 0001:00044a90       ??$extract_argument_from_va_list@C_J@?$positional_parameter_base@_WV?$stream_output_adapter@_W@__crt_stdio_output@@@__crt_stdio_output@@IAE_NAA_J@Z 00445a90 f i libucrtd:output.obj
 0001:00044c10       ??$extract_argument_from_va_list@C_J@?$positional_parameter_base@_WV?$string_output_adapter@_W@__crt_stdio_output@@@__crt_stdio_output@@IAE_NAA_J@Z 00445c10 f i libucrtd:output.obj
 0001:00044d90       ??$extract_argument_from_va_list@C_J@?$standard_base@DV?$stream_output_adapter@D@__crt_stdio_output@@@__crt_stdio_output@@IAE_NAA_J@Z 00445d90 f i libucrtd:output.obj
 0001:00044dd0       ??$extract_argument_from_va_list@C_J@?$standard_base@DV?$string_output_adapter@D@__crt_stdio_output@@@__crt_stdio_output@@IAE_NAA_J@Z 00445dd0 f i libucrtd:output.obj
 0001:00044e10       ??$extract_argument_from_va_list@C_J@?$standard_base@_WV?$stream_output_adapter@_W@__crt_stdio_output@@@__crt_stdio_output@@IAE_NAA_J@Z 00445e10 f i libucrtd:output.obj
 0001:00044e50       ??$extract_argument_from_va_list@C_J@?$standard_base@_WV?$string_output_adapter@_W@__crt_stdio_output@@@__crt_stdio_output@@IAE_NAA_J@Z 00445e50 f i libucrtd:output.obj
 0001:00044e90       ??$extract_argument_from_va_list@E_J@?$positional_parameter_base@DV?$stream_output_adapter@D@__crt_stdio_output@@@__crt_stdio_output@@IAE_NAA_J@Z 00445e90 f i libucrtd:output.obj
 0001:00045010       ??$extract_argument_from_va_list@E_J@?$positional_parameter_base@DV?$string_output_adapter@D@__crt_stdio_output@@@__crt_stdio_output@@IAE_NAA_J@Z 00446010 f i libucrtd:output.obj
 0001:00045190       ??$extract_argument_from_va_list@E_J@?$positional_parameter_base@_WV?$stream_output_adapter@_W@__crt_stdio_output@@@__crt_stdio_output@@IAE_NAA_J@Z 00446190 f i libucrtd:output.obj
 0001:00045310       ??$extract_argument_from_va_list@E_J@?$positional_parameter_base@_WV?$string_output_adapter@_W@__crt_stdio_output@@@__crt_stdio_output@@IAE_NAA_J@Z 00446310 f i libucrtd:output.obj
 0001:00045490       ??$extract_argument_from_va_list@E_J@?$standard_base@DV?$stream_output_adapter@D@__crt_stdio_output@@@__crt_stdio_output@@IAE_NAA_J@Z 00446490 f i libucrtd:output.obj
 0001:000454d0       ??$extract_argument_from_va_list@E_J@?$standard_base@DV?$string_output_adapter@D@__crt_stdio_output@@@__crt_stdio_output@@IAE_NAA_J@Z 004464d0 f i libucrtd:output.obj
 0001:00045510       ??$extract_argument_from_va_list@E_J@?$standard_base@_WV?$stream_output_adapter@_W@__crt_stdio_output@@@__crt_stdio_output@@IAE_NAA_J@Z 00446510 f i libucrtd:output.obj
 0001:00045550       ??$extract_argument_from_va_list@E_J@?$standard_base@_WV?$string_output_adapter@_W@__crt_stdio_output@@@__crt_stdio_output@@IAE_NAA_J@Z 00446550 f i libucrtd:output.obj
 0001:00045590       ??$extract_argument_from_va_list@F_J@?$positional_parameter_base@DV?$stream_output_adapter@D@__crt_stdio_output@@@__crt_stdio_output@@IAE_NAA_J@Z 00446590 f i libucrtd:output.obj
 0001:00045710       ??$extract_argument_from_va_list@F_J@?$positional_parameter_base@DV?$string_output_adapter@D@__crt_stdio_output@@@__crt_stdio_output@@IAE_NAA_J@Z 00446710 f i libucrtd:output.obj
 0001:00045890       ??$extract_argument_from_va_list@F_J@?$positional_parameter_base@_WV?$stream_output_adapter@_W@__crt_stdio_output@@@__crt_stdio_output@@IAE_NAA_J@Z 00446890 f i libucrtd:output.obj
 0001:00045a10       ??$extract_argument_from_va_list@F_J@?$positional_parameter_base@_WV?$string_output_adapter@_W@__crt_stdio_output@@@__crt_stdio_output@@IAE_NAA_J@Z 00446a10 f i libucrtd:output.obj
 0001:00045b90       ??$extract_argument_from_va_list@F_J@?$standard_base@DV?$stream_output_adapter@D@__crt_stdio_output@@@__crt_stdio_output@@IAE_NAA_J@Z 00446b90 f i libucrtd:output.obj
 0001:00045bd0       ??$extract_argument_from_va_list@F_J@?$standard_base@DV?$string_output_adapter@D@__crt_stdio_output@@@__crt_stdio_output@@IAE_NAA_J@Z 00446bd0 f i libucrtd:output.obj
 0001:00045c10       ??$extract_argument_from_va_list@F_J@?$standard_base@_WV?$stream_output_adapter@_W@__crt_stdio_output@@@__crt_stdio_output@@IAE_NAA_J@Z 00446c10 f i libucrtd:output.obj
 0001:00045c50       ??$extract_argument_from_va_list@F_J@?$standard_base@_WV?$string_output_adapter@_W@__crt_stdio_output@@@__crt_stdio_output@@IAE_NAA_J@Z 00446c50 f i libucrtd:output.obj
 0001:00045c90       ??$extract_argument_from_va_list@GD@?$positional_parameter_base@DV?$stream_output_adapter@D@__crt_stdio_output@@@__crt_stdio_output@@IAE_NAAD@Z 00446c90 f i libucrtd:output.obj
 0001:00045e10       ??$extract_argument_from_va_list@GD@?$positional_parameter_base@DV?$string_output_adapter@D@__crt_stdio_output@@@__crt_stdio_output@@IAE_NAAD@Z 00446e10 f i libucrtd:output.obj
 0001:00045f90       ??$extract_argument_from_va_list@GD@?$standard_base@DV?$stream_output_adapter@D@__crt_stdio_output@@@__crt_stdio_output@@IAE_NAAD@Z 00446f90 f i libucrtd:output.obj
 0001:00045fc0       ??$extract_argument_from_va_list@GD@?$standard_base@DV?$string_output_adapter@D@__crt_stdio_output@@@__crt_stdio_output@@IAE_NAAD@Z 00446fc0 f i libucrtd:output.obj
 0001:00045ff0       ??$extract_argument_from_va_list@G_J@?$positional_parameter_base@DV?$stream_output_adapter@D@__crt_stdio_output@@@__crt_stdio_output@@IAE_NAA_J@Z 00446ff0 f i libucrtd:output.obj
 0001:00046170       ??$extract_argument_from_va_list@G_J@?$positional_parameter_base@DV?$string_output_adapter@D@__crt_stdio_output@@@__crt_stdio_output@@IAE_NAA_J@Z 00447170 f i libucrtd:output.obj
 0001:000462f0       ??$extract_argument_from_va_list@G_J@?$positional_parameter_base@_WV?$stream_output_adapter@_W@__crt_stdio_output@@@__crt_stdio_output@@IAE_NAA_J@Z 004472f0 f i libucrtd:output.obj
 0001:00046470       ??$extract_argument_from_va_list@G_J@?$positional_parameter_base@_WV?$string_output_adapter@_W@__crt_stdio_output@@@__crt_stdio_output@@IAE_NAA_J@Z 00447470 f i libucrtd:output.obj
 0001:000465f0       ??$extract_argument_from_va_list@G_J@?$standard_base@DV?$stream_output_adapter@D@__crt_stdio_output@@@__crt_stdio_output@@IAE_NAA_J@Z 004475f0 f i libucrtd:output.obj
 0001:00046630       ??$extract_argument_from_va_list@G_J@?$standard_base@DV?$string_output_adapter@D@__crt_stdio_output@@@__crt_stdio_output@@IAE_NAA_J@Z 00447630 f i libucrtd:output.obj
 0001:00046670       ??$extract_argument_from_va_list@G_J@?$standard_base@_WV?$stream_output_adapter@_W@__crt_stdio_output@@@__crt_stdio_output@@IAE_NAA_J@Z 00447670 f i libucrtd:output.obj
 0001:000466b0       ??$extract_argument_from_va_list@G_J@?$standard_base@_WV?$string_output_adapter@_W@__crt_stdio_output@@@__crt_stdio_output@@IAE_NAA_J@Z 004476b0 f i libucrtd:output.obj
 0001:000466f0       ??$extract_argument_from_va_list@H_J@?$positional_parameter_base@DV?$stream_output_adapter@D@__crt_stdio_output@@@__crt_stdio_output@@IAE_NAA_J@Z 004476f0 f i libucrtd:output.obj
 0001:00046870       ??$extract_argument_from_va_list@H_J@?$positional_parameter_base@DV?$string_output_adapter@D@__crt_stdio_output@@@__crt_stdio_output@@IAE_NAA_J@Z 00447870 f i libucrtd:output.obj
 0001:000469f0       ??$extract_argument_from_va_list@H_J@?$positional_parameter_base@_WV?$stream_output_adapter@_W@__crt_stdio_output@@@__crt_stdio_output@@IAE_NAA_J@Z 004479f0 f i libucrtd:output.obj
 0001:00046b70       ??$extract_argument_from_va_list@H_J@?$positional_parameter_base@_WV?$string_output_adapter@_W@__crt_stdio_output@@@__crt_stdio_output@@IAE_NAA_J@Z 00447b70 f i libucrtd:output.obj
 0001:00046cf0       ??$extract_argument_from_va_list@H_J@?$standard_base@DV?$stream_output_adapter@D@__crt_stdio_output@@@__crt_stdio_output@@IAE_NAA_J@Z 00447cf0 f i libucrtd:output.obj
 0001:00046d30       ??$extract_argument_from_va_list@H_J@?$standard_base@DV?$string_output_adapter@D@__crt_stdio_output@@@__crt_stdio_output@@IAE_NAA_J@Z 00447d30 f i libucrtd:output.obj
 0001:00046d70       ??$extract_argument_from_va_list@H_J@?$standard_base@_WV?$stream_output_adapter@_W@__crt_stdio_output@@@__crt_stdio_output@@IAE_NAA_J@Z 00447d70 f i libucrtd:output.obj
 0001:00046db0       ??$extract_argument_from_va_list@H_J@?$standard_base@_WV?$string_output_adapter@_W@__crt_stdio_output@@@__crt_stdio_output@@IAE_NAA_J@Z 00447db0 f i libucrtd:output.obj
 0001:00046df0       ??$extract_argument_from_va_list@I_J@?$positional_parameter_base@DV?$stream_output_adapter@D@__crt_stdio_output@@@__crt_stdio_output@@IAE_NAA_J@Z 00447df0 f i libucrtd:output.obj
 0001:00046f70       ??$extract_argument_from_va_list@I_J@?$positional_parameter_base@DV?$string_output_adapter@D@__crt_stdio_output@@@__crt_stdio_output@@IAE_NAA_J@Z 00447f70 f i libucrtd:output.obj
 0001:000470f0       ??$extract_argument_from_va_list@I_J@?$positional_parameter_base@_WV?$stream_output_adapter@_W@__crt_stdio_output@@@__crt_stdio_output@@IAE_NAA_J@Z 004480f0 f i libucrtd:output.obj
 0001:00047270       ??$extract_argument_from_va_list@I_J@?$positional_parameter_base@_WV?$string_output_adapter@_W@__crt_stdio_output@@@__crt_stdio_output@@IAE_NAA_J@Z 00448270 f i libucrtd:output.obj
 0001:000473f0       ??$extract_argument_from_va_list@I_J@?$standard_base@DV?$stream_output_adapter@D@__crt_stdio_output@@@__crt_stdio_output@@IAE_NAA_J@Z 004483f0 f i libucrtd:output.obj
 0001:00047430       ??$extract_argument_from_va_list@I_J@?$standard_base@DV?$string_output_adapter@D@__crt_stdio_output@@@__crt_stdio_output@@IAE_NAA_J@Z 00448430 f i libucrtd:output.obj
 0001:00047470       ??$extract_argument_from_va_list@I_J@?$standard_base@_WV?$stream_output_adapter@_W@__crt_stdio_output@@@__crt_stdio_output@@IAE_NAA_J@Z 00448470 f i libucrtd:output.obj
 0001:000474b0       ??$extract_argument_from_va_list@I_J@?$standard_base@_WV?$string_output_adapter@_W@__crt_stdio_output@@@__crt_stdio_output@@IAE_NAA_J@Z 004484b0 f i libucrtd:output.obj
 0001:000474f0       ??$extract_argument_from_va_list@PADPAD@?$positional_parameter_base@DV?$stream_output_adapter@D@__crt_stdio_output@@@__crt_stdio_output@@IAE_NAAPAD@Z 004484f0 f i libucrtd:output.obj
 0001:00047670       ??$extract_argument_from_va_list@PADPAD@?$positional_parameter_base@DV?$string_output_adapter@D@__crt_stdio_output@@@__crt_stdio_output@@IAE_NAAPAD@Z 00448670 f i libucrtd:output.obj
 0001:000477f0       ??$extract_argument_from_va_list@PADPAD@?$positional_parameter_base@_WV?$stream_output_adapter@_W@__crt_stdio_output@@@__crt_stdio_output@@IAE_NAAPAD@Z 004487f0 f i libucrtd:output.obj
 0001:00047970       ??$extract_argument_from_va_list@PADPAD@?$positional_parameter_base@_WV?$string_output_adapter@_W@__crt_stdio_output@@@__crt_stdio_output@@IAE_NAAPAD@Z 00448970 f i libucrtd:output.obj
 0001:00047af0       ??$extract_argument_from_va_list@PADPAD@?$standard_base@DV?$stream_output_adapter@D@__crt_stdio_output@@@__crt_stdio_output@@IAE_NAAPAD@Z 00448af0 f i libucrtd:output.obj
 0001:00047b20       ??$extract_argument_from_va_list@PADPAD@?$standard_base@DV?$string_output_adapter@D@__crt_stdio_output@@@__crt_stdio_output@@IAE_NAAPAD@Z 00448b20 f i libucrtd:output.obj
 0001:00047b50       ??$extract_argument_from_va_list@PADPAD@?$standard_base@_WV?$stream_output_adapter@_W@__crt_stdio_output@@@__crt_stdio_output@@IAE_NAAPAD@Z 00448b50 f i libucrtd:output.obj
 0001:00047b80       ??$extract_argument_from_va_list@PADPAD@?$standard_base@_WV?$string_output_adapter@_W@__crt_stdio_output@@@__crt_stdio_output@@IAE_NAAPAD@Z 00448b80 f i libucrtd:output.obj
 0001:00047bb0       ??$extract_argument_from_va_list@PAUansi_string@?1??type_case_Z@?$output_processor@DV?$stream_output_adapter@D@__crt_stdio_output@@V?$format_validation_base@DV?$stream_output_adapter@D@__crt_stdio_output@@@2@@__crt_stdio_output@@AAE_NXZ@PAU1?1??234@AAE_NXZ@@?$standard_base@DV?$stream_output_adapter@D@__crt_stdio_output@@@__crt_stdio_output@@IAE_NAAPAUansi_string@?1??type_case_Z@?$output_processor@DV?$stream_output_adapter@D@__crt_stdio_output@@V?$format_validation_base@DV?$stream_output_adapter@D@__crt_stdio_output@@@2@@1@AAE_NXZ@@Z 00448bb0 f i libucrtd:output.obj
 0001:00047be0       ??$extract_argument_from_va_list@PAUansi_string@?1??type_case_Z@?$output_processor@DV?$stream_output_adapter@D@__crt_stdio_output@@V?$positional_parameter_base@DV?$stream_output_adapter@D@__crt_stdio_output@@@2@@__crt_stdio_output@@AAE_NXZ@PAU1?1??234@AAE_NXZ@@?$positional_parameter_base@DV?$stream_output_adapter@D@__crt_stdio_output@@@__crt_stdio_output@@IAE_NAAPAUansi_string@?1??type_case_Z@?$output_processor@DV?$stream_output_adapter@D@__crt_stdio_output@@V?$positional_parameter_base@DV?$stream_output_adapter@D@__crt_stdio_output@@@2@@1@AAE_NXZ@@Z 00448be0 f i libucrtd:output.obj
 0001:00047d60       ??$extract_argument_from_va_list@PAUansi_string@?1??type_case_Z@?$output_processor@DV?$stream_output_adapter@D@__crt_stdio_output@@V?$positional_parameter_base@DV?$stream_output_adapter@D@__crt_stdio_output@@@2@@__crt_stdio_output@@AAE_NXZ@PAU1?1??234@AAE_NXZ@@?$standard_base@DV?$stream_output_adapter@D@__crt_stdio_output@@@__crt_stdio_output@@IAE_NAAPAUansi_string@?1??type_case_Z@?$output_processor@DV?$stream_output_adapter@D@__crt_stdio_output@@V?$positional_parameter_base@DV?$stream_output_adapter@D@__crt_stdio_output@@@2@@1@AAE_NXZ@@Z 00448d60 f i libucrtd:output.obj
 0001:00047d90       ??$extract_argument_from_va_list@PAUansi_string@?1??type_case_Z@?$output_processor@DV?$stream_output_adapter@D@__crt_stdio_output@@V?$standard_base@DV?$stream_output_adapter@D@__crt_stdio_output@@@2@@__crt_stdio_output@@AAE_NXZ@PAU1?1??234@AAE_NXZ@@?$standard_base@DV?$stream_output_adapter@D@__crt_stdio_output@@@__crt_stdio_output@@IAE_NAAPAUansi_string@?1??type_case_Z@?$output_processor@DV?$stream_output_adapter@D@__crt_stdio_output@@V?$standard_base@DV?$stream_output_adapter@D@__crt_stdio_output@@@2@@1@AAE_NXZ@@Z 00448d90 f i libucrtd:output.obj
 0001:00047dc0       ??$extract_argument_from_va_list@PAUansi_string@?1??type_case_Z@?$output_processor@DV?$string_output_adapter@D@__crt_stdio_output@@V?$format_validation_base@DV?$string_output_adapter@D@__crt_stdio_output@@@2@@__crt_stdio_output@@AAE_NXZ@PAU1?1??234@AAE_NXZ@@?$standard_base@DV?$string_output_adapter@D@__crt_stdio_output@@@__crt_stdio_output@@IAE_NAAPAUansi_string@?1??type_case_Z@?$output_processor@DV?$string_output_adapter@D@__crt_stdio_output@@V?$format_validation_base@DV?$string_output_adapter@D@__crt_stdio_output@@@2@@1@AAE_NXZ@@Z 00448dc0 f i libucrtd:output.obj
 0001:00047df0       ??$extract_argument_from_va_list@PAUansi_string@?1??type_case_Z@?$output_processor@DV?$string_output_adapter@D@__crt_stdio_output@@V?$positional_parameter_base@DV?$string_output_adapter@D@__crt_stdio_output@@@2@@__crt_stdio_output@@AAE_NXZ@PAU1?1??234@AAE_NXZ@@?$positional_parameter_base@DV?$string_output_adapter@D@__crt_stdio_output@@@__crt_stdio_output@@IAE_NAAPAUansi_string@?1??type_case_Z@?$output_processor@DV?$string_output_adapter@D@__crt_stdio_output@@V?$positional_parameter_base@DV?$string_output_adapter@D@__crt_stdio_output@@@2@@1@AAE_NXZ@@Z 00448df0 f i libucrtd:output.obj
 0001:00047f70       ??$extract_argument_from_va_list@PAUansi_string@?1??type_case_Z@?$output_processor@DV?$string_output_adapter@D@__crt_stdio_output@@V?$positional_parameter_base@DV?$string_output_adapter@D@__crt_stdio_output@@@2@@__crt_stdio_output@@AAE_NXZ@PAU1?1??234@AAE_NXZ@@?$standard_base@DV?$string_output_adapter@D@__crt_stdio_output@@@__crt_stdio_output@@IAE_NAAPAUansi_string@?1??type_case_Z@?$output_processor@DV?$string_output_adapter@D@__crt_stdio_output@@V?$positional_parameter_base@DV?$string_output_adapter@D@__crt_stdio_output@@@2@@1@AAE_NXZ@@Z 00448f70 f i libucrtd:output.obj
 0001:00047fa0       ??$extract_argument_from_va_list@PAUansi_string@?1??type_case_Z@?$output_processor@DV?$string_output_adapter@D@__crt_stdio_output@@V?$standard_base@DV?$string_output_adapter@D@__crt_stdio_output@@@2@@__crt_stdio_output@@AAE_NXZ@PAU1?1??234@AAE_NXZ@@?$standard_base@DV?$string_output_adapter@D@__crt_stdio_output@@@__crt_stdio_output@@IAE_NAAPAUansi_string@?1??type_case_Z@?$output_processor@DV?$string_output_adapter@D@__crt_stdio_output@@V?$standard_base@DV?$string_output_adapter@D@__crt_stdio_output@@@2@@1@AAE_NXZ@@Z 00448fa0 f i libucrtd:output.obj
 0001:00047fd0       ??$extract_argument_from_va_list@PAUansi_string@?1??type_case_Z@?$output_processor@_WV?$stream_output_adapter@_W@__crt_stdio_output@@V?$format_validation_base@_WV?$stream_output_adapter@_W@__crt_stdio_output@@@2@@__crt_stdio_output@@AAE_NXZ@PAU1?1??234@AAE_NXZ@@?$standard_base@_WV?$stream_output_adapter@_W@__crt_stdio_output@@@__crt_stdio_output@@IAE_NAAPAUansi_string@?1??type_case_Z@?$output_processor@_WV?$stream_output_adapter@_W@__crt_stdio_output@@V?$format_validation_base@_WV?$stream_output_adapter@_W@__crt_stdio_output@@@2@@1@AAE_NXZ@@Z 00448fd0 f i libucrtd:output.obj
 0001:00048000       ??$extract_argument_from_va_list@PAUansi_string@?1??type_case_Z@?$output_processor@_WV?$stream_output_adapter@_W@__crt_stdio_output@@V?$positional_parameter_base@_WV?$stream_output_adapter@_W@__crt_stdio_output@@@2@@__crt_stdio_output@@AAE_NXZ@PAU1?1??234@AAE_NXZ@@?$positional_parameter_base@_WV?$stream_output_adapter@_W@__crt_stdio_output@@@__crt_stdio_output@@IAE_NAAPAUansi_string@?1??type_case_Z@?$output_processor@_WV?$stream_output_adapter@_W@__crt_stdio_output@@V?$positional_parameter_base@_WV?$stream_output_adapter@_W@__crt_stdio_output@@@2@@1@AAE_NXZ@@Z 00449000 f i libucrtd:output.obj
 0001:00048180       ??$extract_argument_from_va_list@PAUansi_string@?1??type_case_Z@?$output_processor@_WV?$stream_output_adapter@_W@__crt_stdio_output@@V?$positional_parameter_base@_WV?$stream_output_adapter@_W@__crt_stdio_output@@@2@@__crt_stdio_output@@AAE_NXZ@PAU1?1??234@AAE_NXZ@@?$standard_base@_WV?$stream_output_adapter@_W@__crt_stdio_output@@@__crt_stdio_output@@IAE_NAAPAUansi_string@?1??type_case_Z@?$output_processor@_WV?$stream_output_adapter@_W@__crt_stdio_output@@V?$positional_parameter_base@_WV?$stream_output_adapter@_W@__crt_stdio_output@@@2@@1@AAE_NXZ@@Z 00449180 f i libucrtd:output.obj
 0001:000481b0       ??$extract_argument_from_va_list@PAUansi_string@?1??type_case_Z@?$output_processor@_WV?$stream_output_adapter@_W@__crt_stdio_output@@V?$standard_base@_WV?$stream_output_adapter@_W@__crt_stdio_output@@@2@@__crt_stdio_output@@AAE_NXZ@PAU1?1??234@AAE_NXZ@@?$standard_base@_WV?$stream_output_adapter@_W@__crt_stdio_output@@@__crt_stdio_output@@IAE_NAAPAUansi_string@?1??type_case_Z@?$output_processor@_WV?$stream_output_adapter@_W@__crt_stdio_output@@V?$standard_base@_WV?$stream_output_adapter@_W@__crt_stdio_output@@@2@@1@AAE_NXZ@@Z 004491b0 f i libucrtd:output.obj
 0001:000481e0       ??$extract_argument_from_va_list@PAUansi_string@?1??type_case_Z@?$output_processor@_WV?$string_output_adapter@_W@__crt_stdio_output@@V?$format_validation_base@_WV?$string_output_adapter@_W@__crt_stdio_output@@@2@@__crt_stdio_output@@AAE_NXZ@PAU1?1??234@AAE_NXZ@@?$standard_base@_WV?$string_output_adapter@_W@__crt_stdio_output@@@__crt_stdio_output@@IAE_NAAPAUansi_string@?1??type_case_Z@?$output_processor@_WV?$string_output_adapter@_W@__crt_stdio_output@@V?$format_validation_base@_WV?$string_output_adapter@_W@__crt_stdio_output@@@2@@1@AAE_NXZ@@Z 004491e0 f i libucrtd:output.obj
 0001:00048210       ??$extract_argument_from_va_list@PAUansi_string@?1??type_case_Z@?$output_processor@_WV?$string_output_adapter@_W@__crt_stdio_output@@V?$positional_parameter_base@_WV?$string_output_adapter@_W@__crt_stdio_output@@@2@@__crt_stdio_output@@AAE_NXZ@PAU1?1??234@AAE_NXZ@@?$positional_parameter_base@_WV?$string_output_adapter@_W@__crt_stdio_output@@@__crt_stdio_output@@IAE_NAAPAUansi_string@?1??type_case_Z@?$output_processor@_WV?$string_output_adapter@_W@__crt_stdio_output@@V?$positional_parameter_base@_WV?$string_output_adapter@_W@__crt_stdio_output@@@2@@1@AAE_NXZ@@Z 00449210 f i libucrtd:output.obj
 0001:00048390       ??$extract_argument_from_va_list@PAUansi_string@?1??type_case_Z@?$output_processor@_WV?$string_output_adapter@_W@__crt_stdio_output@@V?$positional_parameter_base@_WV?$string_output_adapter@_W@__crt_stdio_output@@@2@@__crt_stdio_output@@AAE_NXZ@PAU1?1??234@AAE_NXZ@@?$standard_base@_WV?$string_output_adapter@_W@__crt_stdio_output@@@__crt_stdio_output@@IAE_NAAPAUansi_string@?1??type_case_Z@?$output_processor@_WV?$string_output_adapter@_W@__crt_stdio_output@@V?$positional_parameter_base@_WV?$string_output_adapter@_W@__crt_stdio_output@@@2@@1@AAE_NXZ@@Z 00449390 f i libucrtd:output.obj
 0001:000483c0       ??$extract_argument_from_va_list@PAUansi_string@?1??type_case_Z@?$output_processor@_WV?$string_output_adapter@_W@__crt_stdio_output@@V?$standard_base@_WV?$string_output_adapter@_W@__crt_stdio_output@@@2@@__crt_stdio_output@@AAE_NXZ@PAU1?1??234@AAE_NXZ@@?$standard_base@_WV?$string_output_adapter@_W@__crt_stdio_output@@@__crt_stdio_output@@IAE_NAAPAUansi_string@?1??type_case_Z@?$output_processor@_WV?$string_output_adapter@_W@__crt_stdio_output@@V?$standard_base@_WV?$string_output_adapter@_W@__crt_stdio_output@@@2@@1@AAE_NXZ@@Z 004493c0 f i libucrtd:output.obj
 0001:000483f0       ??$extract_argument_from_va_list@PAXPAX@?$positional_parameter_base@DV?$stream_output_adapter@D@__crt_stdio_output@@@__crt_stdio_output@@IAE_NAAPAX@Z 004493f0 f i libucrtd:output.obj
 0001:00048570       ??$extract_argument_from_va_list@PAXPAX@?$positional_parameter_base@DV?$string_output_adapter@D@__crt_stdio_output@@@__crt_stdio_output@@IAE_NAAPAX@Z 00449570 f i libucrtd:output.obj
 0001:000486f0       ??$extract_argument_from_va_list@PAXPAX@?$positional_parameter_base@_WV?$stream_output_adapter@_W@__crt_stdio_output@@@__crt_stdio_output@@IAE_NAAPAX@Z 004496f0 f i libucrtd:output.obj
 0001:00048870       ??$extract_argument_from_va_list@PAXPAX@?$positional_parameter_base@_WV?$string_output_adapter@_W@__crt_stdio_output@@@__crt_stdio_output@@IAE_NAAPAX@Z 00449870 f i libucrtd:output.obj
 0001:000489f0       ??$extract_argument_from_va_list@PAXPAX@?$standard_base@DV?$stream_output_adapter@D@__crt_stdio_output@@@__crt_stdio_output@@IAE_NAAPAX@Z 004499f0 f i libucrtd:output.obj
 0001:00048a20       ??$extract_argument_from_va_list@PAXPAX@?$standard_base@DV?$string_output_adapter@D@__crt_stdio_output@@@__crt_stdio_output@@IAE_NAAPAX@Z 00449a20 f i libucrtd:output.obj
 0001:00048a50       ??$extract_argument_from_va_list@PAXPAX@?$standard_base@_WV?$stream_output_adapter@_W@__crt_stdio_output@@@__crt_stdio_output@@IAE_NAAPAX@Z 00449a50 f i libucrtd:output.obj
 0001:00048a80       ??$extract_argument_from_va_list@PAXPAX@?$standard_base@_WV?$string_output_adapter@_W@__crt_stdio_output@@@__crt_stdio_output@@IAE_NAAPAX@Z 00449a80 f i libucrtd:output.obj
 0001:00048ab0       ??$extract_argument_from_va_list@U_CRT_DOUBLE@@U1@@?$positional_parameter_base@DV?$stream_output_adapter@D@__crt_stdio_output@@@__crt_stdio_output@@IAE_NAAU_CRT_DOUBLE@@@Z 00449ab0 f i libucrtd:output.obj
 0001:00048c60       ??$extract_argument_from_va_list@U_CRT_DOUBLE@@U1@@?$positional_parameter_base@DV?$string_output_adapter@D@__crt_stdio_output@@@__crt_stdio_output@@IAE_NAAU_CRT_DOUBLE@@@Z 00449c60 f i libucrtd:output.obj
 0001:00048e10       ??$extract_argument_from_va_list@U_CRT_DOUBLE@@U1@@?$positional_parameter_base@_WV?$stream_output_adapter@_W@__crt_stdio_output@@@__crt_stdio_output@@IAE_NAAU_CRT_DOUBLE@@@Z 00449e10 f i libucrtd:output.obj
 0001:00048fc0       ??$extract_argument_from_va_list@U_CRT_DOUBLE@@U1@@?$positional_parameter_base@_WV?$string_output_adapter@_W@__crt_stdio_output@@@__crt_stdio_output@@IAE_NAAU_CRT_DOUBLE@@@Z 00449fc0 f i libucrtd:output.obj
 0001:00049170       ??$extract_argument_from_va_list@U_CRT_DOUBLE@@U1@@?$standard_base@DV?$stream_output_adapter@D@__crt_stdio_output@@@__crt_stdio_output@@IAE_NAAU_CRT_DOUBLE@@@Z 0044a170 f i libucrtd:output.obj
 0001:000491d0       ??$extract_argument_from_va_list@U_CRT_DOUBLE@@U1@@?$standard_base@DV?$string_output_adapter@D@__crt_stdio_output@@@__crt_stdio_output@@IAE_NAAU_CRT_DOUBLE@@@Z 0044a1d0 f i libucrtd:output.obj
 0001:00049230       ??$extract_argument_from_va_list@U_CRT_DOUBLE@@U1@@?$standard_base@_WV?$stream_output_adapter@_W@__crt_stdio_output@@@__crt_stdio_output@@IAE_NAAU_CRT_DOUBLE@@@Z 0044a230 f i libucrtd:output.obj
 0001:00049290       ??$extract_argument_from_va_list@U_CRT_DOUBLE@@U1@@?$standard_base@_WV?$string_output_adapter@_W@__crt_stdio_output@@@__crt_stdio_output@@IAE_NAAU_CRT_DOUBLE@@@Z 0044a290 f i libucrtd:output.obj
 0001:000492f0       ??$extract_argument_from_va_list@_J_J@?$positional_parameter_base@DV?$stream_output_adapter@D@__crt_stdio_output@@@__crt_stdio_output@@IAE_NAA_J@Z 0044a2f0 f i libucrtd:output.obj
 0001:00049470       ??$extract_argument_from_va_list@_J_J@?$positional_parameter_base@DV?$string_output_adapter@D@__crt_stdio_output@@@__crt_stdio_output@@IAE_NAA_J@Z 0044a470 f i libucrtd:output.obj
 0001:000495f0       ??$extract_argument_from_va_list@_J_J@?$positional_parameter_base@_WV?$stream_output_adapter@_W@__crt_stdio_output@@@__crt_stdio_output@@IAE_NAA_J@Z 0044a5f0 f i libucrtd:output.obj
 0001:00049770       ??$extract_argument_from_va_list@_J_J@?$positional_parameter_base@_WV?$string_output_adapter@_W@__crt_stdio_output@@@__crt_stdio_output@@IAE_NAA_J@Z 0044a770 f i libucrtd:output.obj
 0001:000498f0       ??$extract_argument_from_va_list@_J_J@?$standard_base@DV?$stream_output_adapter@D@__crt_stdio_output@@@__crt_stdio_output@@IAE_NAA_J@Z 0044a8f0 f i libucrtd:output.obj
 0001:00049930       ??$extract_argument_from_va_list@_J_J@?$standard_base@DV?$string_output_adapter@D@__crt_stdio_output@@@__crt_stdio_output@@IAE_NAA_J@Z 0044a930 f i libucrtd:output.obj
 0001:00049970       ??$extract_argument_from_va_list@_J_J@?$standard_base@_WV?$stream_output_adapter@_W@__crt_stdio_output@@@__crt_stdio_output@@IAE_NAA_J@Z 0044a970 f i libucrtd:output.obj
 0001:000499b0       ??$extract_argument_from_va_list@_J_J@?$standard_base@_WV?$string_output_adapter@_W@__crt_stdio_output@@@__crt_stdio_output@@IAE_NAA_J@Z 0044a9b0 f i libucrtd:output.obj
 0001:000499f0       ??$extract_argument_from_va_list@_K_J@?$positional_parameter_base@DV?$stream_output_adapter@D@__crt_stdio_output@@@__crt_stdio_output@@IAE_NAA_J@Z 0044a9f0 f i libucrtd:output.obj
 0001:00049b70       ??$extract_argument_from_va_list@_K_J@?$positional_parameter_base@DV?$string_output_adapter@D@__crt_stdio_output@@@__crt_stdio_output@@IAE_NAA_J@Z 0044ab70 f i libucrtd:output.obj
 0001:00049cf0       ??$extract_argument_from_va_list@_K_J@?$positional_parameter_base@_WV?$stream_output_adapter@_W@__crt_stdio_output@@@__crt_stdio_output@@IAE_NAA_J@Z 0044acf0 f i libucrtd:output.obj
 0001:00049e70       ??$extract_argument_from_va_list@_K_J@?$positional_parameter_base@_WV?$string_output_adapter@_W@__crt_stdio_output@@@__crt_stdio_output@@IAE_NAA_J@Z 0044ae70 f i libucrtd:output.obj
 0001:00049ff0       ??$extract_argument_from_va_list@_K_J@?$standard_base@DV?$stream_output_adapter@D@__crt_stdio_output@@@__crt_stdio_output@@IAE_NAA_J@Z 0044aff0 f i libucrtd:output.obj
 0001:0004a030       ??$extract_argument_from_va_list@_K_J@?$standard_base@DV?$string_output_adapter@D@__crt_stdio_output@@@__crt_stdio_output@@IAE_NAA_J@Z 0044b030 f i libucrtd:output.obj
 0001:0004a070       ??$extract_argument_from_va_list@_K_J@?$standard_base@_WV?$stream_output_adapter@_W@__crt_stdio_output@@@__crt_stdio_output@@IAE_NAA_J@Z 0044b070 f i libucrtd:output.obj
 0001:0004a0b0       ??$extract_argument_from_va_list@_K_J@?$standard_base@_WV?$string_output_adapter@_W@__crt_stdio_output@@@__crt_stdio_output@@IAE_NAA_J@Z 0044b0b0 f i libucrtd:output.obj
 0001:0004a0f0       ??$extract_argument_from_va_list@_W_W@?$positional_parameter_base@DV?$stream_output_adapter@D@__crt_stdio_output@@@__crt_stdio_output@@IAE_NAA_W@Z 0044b0f0 f i libucrtd:output.obj
 0001:0004a270       ??$extract_argument_from_va_list@_W_W@?$positional_parameter_base@DV?$string_output_adapter@D@__crt_stdio_output@@@__crt_stdio_output@@IAE_NAA_W@Z 0044b270 f i libucrtd:output.obj
 0001:0004a3f0       ??$extract_argument_from_va_list@_W_W@?$positional_parameter_base@_WV?$stream_output_adapter@_W@__crt_stdio_output@@@__crt_stdio_output@@IAE_NAA_W@Z 0044b3f0 f i libucrtd:output.obj
 0001:0004a570       ??$extract_argument_from_va_list@_W_W@?$positional_parameter_base@_WV?$string_output_adapter@_W@__crt_stdio_output@@@__crt_stdio_output@@IAE_NAA_W@Z 0044b570 f i libucrtd:output.obj
 0001:0004a6f0       ??$extract_argument_from_va_list@_W_W@?$standard_base@DV?$stream_output_adapter@D@__crt_stdio_output@@@__crt_stdio_output@@IAE_NAA_W@Z 0044b6f0 f i libucrtd:output.obj
 0001:0004a720       ??$extract_argument_from_va_list@_W_W@?$standard_base@DV?$string_output_adapter@D@__crt_stdio_output@@@__crt_stdio_output@@IAE_NAA_W@Z 0044b720 f i libucrtd:output.obj
 0001:0004a750       ??$extract_argument_from_va_list@_W_W@?$standard_base@_WV?$stream_output_adapter@_W@__crt_stdio_output@@@__crt_stdio_output@@IAE_NAA_W@Z 0044b750 f i libucrtd:output.obj
 0001:0004a780       ??$extract_argument_from_va_list@_W_W@?$standard_base@_WV?$string_output_adapter@_W@__crt_stdio_output@@@__crt_stdio_output@@IAE_NAA_W@Z 0044b780 f i libucrtd:output.obj
 0001:0004a7b0       ??$get_parameter_type@D@?$positional_parameter_base@DV?$stream_output_adapter@D@__crt_stdio_output@@@__crt_stdio_output@@CA?AW4parameter_type@01@PAD@Z 0044b7b0 f i libucrtd:output.obj
 0001:0004a7c0       ??$get_parameter_type@D@?$positional_parameter_base@DV?$string_output_adapter@D@__crt_stdio_output@@@__crt_stdio_output@@CA?AW4parameter_type@01@PAD@Z 0044b7c0 f i libucrtd:output.obj
 0001:0004a7d0       ??$get_parameter_type@D@?$positional_parameter_base@_WV?$stream_output_adapter@_W@__crt_stdio_output@@@__crt_stdio_output@@CA?AW4parameter_type@01@PAD@Z 0044b7d0 f i libucrtd:output.obj
 0001:0004a7e0       ??$get_parameter_type@D@?$positional_parameter_base@_WV?$string_output_adapter@_W@__crt_stdio_output@@@__crt_stdio_output@@CA?AW4parameter_type@01@PAD@Z 0044b7e0 f i libucrtd:output.obj
 0001:0004a7f0       ??$get_parameter_type@Uansi_string@?1??type_case_Z@?$output_processor@DV?$stream_output_adapter@D@__crt_stdio_output@@V?$positional_parameter_base@DV?$stream_output_adapter@D@__crt_stdio_output@@@2@@__crt_stdio_output@@AAE_NXZ@@?$positional_parameter_base@DV?$stream_output_adapter@D@__crt_stdio_output@@@__crt_stdio_output@@CA?AW4parameter_type@01@PAUansi_string@?1??type_case_Z@?$output_processor@DV?$stream_output_adapter@D@__crt_stdio_output@@V?$positional_parameter_base@DV?$stream_output_adapter@D@__crt_stdio_output@@@2@@1@AAE_NXZ@@Z 0044b7f0 f i libucrtd:output.obj
 0001:0004a800       ??$get_parameter_type@Uansi_string@?1??type_case_Z@?$output_processor@DV?$string_output_adapter@D@__crt_stdio_output@@V?$positional_parameter_base@DV?$string_output_adapter@D@__crt_stdio_output@@@2@@__crt_stdio_output@@AAE_NXZ@@?$positional_parameter_base@DV?$string_output_adapter@D@__crt_stdio_output@@@__crt_stdio_output@@CA?AW4parameter_type@01@PAUansi_string@?1??type_case_Z@?$output_processor@DV?$string_output_adapter@D@__crt_stdio_output@@V?$positional_parameter_base@DV?$string_output_adapter@D@__crt_stdio_output@@@2@@1@AAE_NXZ@@Z 0044b800 f i libucrtd:output.obj
 0001:0004a810       ??$get_parameter_type@Uansi_string@?1??type_case_Z@?$output_processor@_WV?$stream_output_adapter@_W@__crt_stdio_output@@V?$positional_parameter_base@_WV?$stream_output_adapter@_W@__crt_stdio_output@@@2@@__crt_stdio_output@@AAE_NXZ@@?$positional_parameter_base@_WV?$stream_output_adapter@_W@__crt_stdio_output@@@__crt_stdio_output@@CA?AW4parameter_type@01@PAUansi_string@?1??type_case_Z@?$output_processor@_WV?$stream_output_adapter@_W@__crt_stdio_output@@V?$positional_parameter_base@_WV?$stream_output_adapter@_W@__crt_stdio_output@@@2@@1@AAE_NXZ@@Z 0044b810 f i libucrtd:output.obj
 0001:0004a820       ??$get_parameter_type@Uansi_string@?1??type_case_Z@?$output_processor@_WV?$string_output_adapter@_W@__crt_stdio_output@@V?$positional_parameter_base@_WV?$string_output_adapter@_W@__crt_stdio_output@@@2@@__crt_stdio_output@@AAE_NXZ@@?$positional_parameter_base@_WV?$string_output_adapter@_W@__crt_stdio_output@@@__crt_stdio_output@@CA?AW4parameter_type@01@PAUansi_string@?1??type_case_Z@?$output_processor@_WV?$string_output_adapter@_W@__crt_stdio_output@@V?$positional_parameter_base@_WV?$string_output_adapter@_W@__crt_stdio_output@@@2@@1@AAE_NXZ@@Z 0044b820 f i libucrtd:output.obj
 0001:0004a830       ??$get_parameter_type@X@?$positional_parameter_base@DV?$stream_output_adapter@D@__crt_stdio_output@@@__crt_stdio_output@@CA?AW4parameter_type@01@PAX@Z 0044b830 f i libucrtd:output.obj
 0001:0004a840       ??$get_parameter_type@X@?$positional_parameter_base@DV?$string_output_adapter@D@__crt_stdio_output@@@__crt_stdio_output@@CA?AW4parameter_type@01@PAX@Z 0044b840 f i libucrtd:output.obj
 0001:0004a850       ??$get_parameter_type@X@?$positional_parameter_base@_WV?$stream_output_adapter@_W@__crt_stdio_output@@@__crt_stdio_output@@CA?AW4parameter_type@01@PAX@Z 0044b850 f i libucrtd:output.obj
 0001:0004a860       ??$get_parameter_type@X@?$positional_parameter_base@_WV?$string_output_adapter@_W@__crt_stdio_output@@@__crt_stdio_output@@CA?AW4parameter_type@01@PAX@Z 0044b860 f i libucrtd:output.obj
 0001:0004a870       ??$is_character_specifier@D@?$positional_parameter_base@DV?$stream_output_adapter@D@__crt_stdio_output@@@__crt_stdio_output@@CA_ND@Z 0044b870 f i libucrtd:output.obj
 0001:0004a8b0       ??$is_character_specifier@D@?$positional_parameter_base@DV?$string_output_adapter@D@__crt_stdio_output@@@__crt_stdio_output@@CA_ND@Z 0044b8b0 f i libucrtd:output.obj
 0001:0004a8f0       ??$is_character_specifier@_W@?$positional_parameter_base@_WV?$stream_output_adapter@_W@__crt_stdio_output@@@__crt_stdio_output@@CA_N_W@Z 0044b8f0 f i libucrtd:output.obj
 0001:0004a930       ??$is_character_specifier@_W@?$positional_parameter_base@_WV?$string_output_adapter@_W@__crt_stdio_output@@@__crt_stdio_output@@CA_N_W@Z 0044b930 f i libucrtd:output.obj
 0001:0004a970       ??$is_integral_specifier@D@?$positional_parameter_base@DV?$stream_output_adapter@D@__crt_stdio_output@@@__crt_stdio_output@@CA_ND@Z 0044b970 f i libucrtd:output.obj
 0001:0004a9f0       ??$is_integral_specifier@D@?$positional_parameter_base@DV?$string_output_adapter@D@__crt_stdio_output@@@__crt_stdio_output@@CA_ND@Z 0044b9f0 f i libucrtd:output.obj
 0001:0004aa70       ??$is_integral_specifier@_W@?$positional_parameter_base@_WV?$stream_output_adapter@_W@__crt_stdio_output@@@__crt_stdio_output@@CA_N_W@Z 0044ba70 f i libucrtd:output.obj
 0001:0004aaf0       ??$is_integral_specifier@_W@?$positional_parameter_base@_WV?$string_output_adapter@_W@__crt_stdio_output@@@__crt_stdio_output@@CA_N_W@Z 0044baf0 f i libucrtd:output.obj
 0001:0004ab70       ??$is_pointer_specifier@D@?$positional_parameter_base@DV?$stream_output_adapter@D@__crt_stdio_output@@@__crt_stdio_output@@CA_ND@Z 0044bb70 f i libucrtd:output.obj
 0001:0004aba0       ??$is_pointer_specifier@D@?$positional_parameter_base@DV?$string_output_adapter@D@__crt_stdio_output@@@__crt_stdio_output@@CA_ND@Z 0044bba0 f i libucrtd:output.obj
 0001:0004abd0       ??$is_pointer_specifier@_W@?$positional_parameter_base@_WV?$stream_output_adapter@_W@__crt_stdio_output@@@__crt_stdio_output@@CA_N_W@Z 0044bbd0 f i libucrtd:output.obj
 0001:0004ac00       ??$is_pointer_specifier@_W@?$positional_parameter_base@_WV?$string_output_adapter@_W@__crt_stdio_output@@@__crt_stdio_output@@CA_N_W@Z 0044bc00 f i libucrtd:output.obj
 0001:0004ac30       ??$is_string_specifier@D@?$positional_parameter_base@DV?$stream_output_adapter@D@__crt_stdio_output@@@__crt_stdio_output@@CA_ND@Z 0044bc30 f i libucrtd:output.obj
 0001:0004ac70       ??$is_string_specifier@D@?$positional_parameter_base@DV?$string_output_adapter@D@__crt_stdio_output@@@__crt_stdio_output@@CA_ND@Z 0044bc70 f i libucrtd:output.obj
 0001:0004acb0       ??$is_string_specifier@_W@?$positional_parameter_base@_WV?$stream_output_adapter@_W@__crt_stdio_output@@@__crt_stdio_output@@CA_N_W@Z 0044bcb0 f i libucrtd:output.obj
 0001:0004acf0       ??$is_string_specifier@_W@?$positional_parameter_base@_WV?$string_output_adapter@_W@__crt_stdio_output@@@__crt_stdio_output@@CA_N_W@Z 0044bcf0 f i libucrtd:output.obj
 0001:0004ad30       ??$is_wide_character_specifier@D@__crt_stdio_output@@YA_N_KDW4length_modifier@0@@Z 0044bd30 f i libucrtd:output.obj
 0001:0004add0       ??$is_wide_character_specifier@_W@__crt_stdio_output@@YA_N_K_WW4length_modifier@0@@Z 0044bdd0 f i libucrtd:output.obj
 0001:0004aec0       ??$peek_va_arg@C@__crt_stdio_output@@YACPAD@Z 0044bec0 f i libucrtd:output.obj
 0001:0004aee0       ??$peek_va_arg@E@__crt_stdio_output@@YAEPAD@Z 0044bee0 f i libucrtd:output.obj
 0001:0004af00       ??$peek_va_arg@F@__crt_stdio_output@@YAFPAD@Z 0044bf00 f i libucrtd:output.obj
 0001:0004af20       ??$peek_va_arg@G@__crt_stdio_output@@YAGPAD@Z 0044bf20 f i libucrtd:output.obj
 0001:0004af40       ??$peek_va_arg@H@__crt_stdio_output@@YAHPAD@Z 0044bf40 f i libucrtd:output.obj
 0001:0004af60       ??$peek_va_arg@I@__crt_stdio_output@@YAIPAD@Z 0044bf60 f i libucrtd:output.obj
 0001:0004af80       ??$peek_va_arg@PAD@__crt_stdio_output@@YAPADPAD@Z 0044bf80 f i libucrtd:output.obj
 0001:0004afa0       ??$peek_va_arg@PAUansi_string@?1??type_case_Z@?$output_processor@DV?$stream_output_adapter@D@__crt_stdio_output@@V?$positional_parameter_base@DV?$stream_output_adapter@D@__crt_stdio_output@@@2@@__crt_stdio_output@@AAE_NXZ@@__crt_stdio_output@@YAPAUansi_string@?1??type_case_Z@?$output_processor@DV?$stream_output_adapter@D@__crt_stdio_output@@V?$positional_parameter_base@DV?$stream_output_adapter@D@__crt_stdio_output@@@2@@0@AAE_NXZ@PAD@Z 0044bfa0 f i libucrtd:output.obj
 0001:0004afc0       ??$peek_va_arg@PAUansi_string@?1??type_case_Z@?$output_processor@DV?$string_output_adapter@D@__crt_stdio_output@@V?$positional_parameter_base@DV?$string_output_adapter@D@__crt_stdio_output@@@2@@__crt_stdio_output@@AAE_NXZ@@__crt_stdio_output@@YAPAUansi_string@?1??type_case_Z@?$output_processor@DV?$string_output_adapter@D@__crt_stdio_output@@V?$positional_parameter_base@DV?$string_output_adapter@D@__crt_stdio_output@@@2@@0@AAE_NXZ@PAD@Z 0044bfc0 f i libucrtd:output.obj
 0001:0004afe0       ??$peek_va_arg@PAUansi_string@?1??type_case_Z@?$output_processor@_WV?$stream_output_adapter@_W@__crt_stdio_output@@V?$positional_parameter_base@_WV?$stream_output_adapter@_W@__crt_stdio_output@@@2@@__crt_stdio_output@@AAE_NXZ@@__crt_stdio_output@@YAPAUansi_string@?1??type_case_Z@?$output_processor@_WV?$stream_output_adapter@_W@__crt_stdio_output@@V?$positional_parameter_base@_WV?$stream_output_adapter@_W@__crt_stdio_output@@@2@@0@AAE_NXZ@PAD@Z 0044bfe0 f i libucrtd:output.obj
 0001:0004b000       ??$peek_va_arg@PAUansi_string@?1??type_case_Z@?$output_processor@_WV?$string_output_adapter@_W@__crt_stdio_output@@V?$positional_parameter_base@_WV?$string_output_adapter@_W@__crt_stdio_output@@@2@@__crt_stdio_output@@AAE_NXZ@@__crt_stdio_output@@YAPAUansi_string@?1??type_case_Z@?$output_processor@_WV?$string_output_adapter@_W@__crt_stdio_output@@V?$positional_parameter_base@_WV?$string_output_adapter@_W@__crt_stdio_output@@@2@@0@AAE_NXZ@PAD@Z 0044c000 f i libucrtd:output.obj
 0001:0004b020       ??$peek_va_arg@PAX@__crt_stdio_output@@YAPAXPAD@Z 0044c020 f i libucrtd:output.obj
 0001:0004b040       ??$peek_va_arg@U_CRT_DOUBLE@@@__crt_stdio_output@@YA?AU_CRT_DOUBLE@@PAD@Z 0044c040 f i libucrtd:output.obj
 0001:0004b060       ??$peek_va_arg@_J@__crt_stdio_output@@YA_JPAD@Z 0044c060 f i libucrtd:output.obj
 0001:0004b080       ??$peek_va_arg@_K@__crt_stdio_output@@YA_KPAD@Z 0044c080 f i libucrtd:output.obj
 0001:0004b0a0       ??$peek_va_arg@_W@__crt_stdio_output@@YA_WPAD@Z 0044c0a0 f i libucrtd:output.obj
 0001:0004b0c0       ??$puttc_nolock@ABDPAU_iobuf@@@?$__crt_char_traits@D@@SAHABD$$QAPAU_iobuf@@@Z 0044c0c0 f i libucrtd:output.obj
 0001:0004b0f0       ??$puttc_nolock@AB_WPAU_iobuf@@@?$__crt_char_traits@_W@@SAGAB_W$$QAPAU_iobuf@@@Z 0044c0f0 f i libucrtd:output.obj
 0001:0004b120       ??$read_va_arg@C@__crt_stdio_output@@YACAAPAD@Z 0044c120 f i libucrtd:output.obj
 0001:0004b150       ??$read_va_arg@E@__crt_stdio_output@@YAEAAPAD@Z 0044c150 f i libucrtd:output.obj
 0001:0004b180       ??$read_va_arg@F@__crt_stdio_output@@YAFAAPAD@Z 0044c180 f i libucrtd:output.obj
 0001:0004b1b0       ??$read_va_arg@G@__crt_stdio_output@@YAGAAPAD@Z 0044c1b0 f i libucrtd:output.obj
 0001:0004b1e0       ??$read_va_arg@H@__crt_stdio_output@@YAHAAPAD@Z 0044c1e0 f i libucrtd:output.obj
 0001:0004b210       ??$read_va_arg@I@__crt_stdio_output@@YAIAAPAD@Z 0044c210 f i libucrtd:output.obj
 0001:0004b240       ??$read_va_arg@PAD@__crt_stdio_output@@YAPADAAPAD@Z 0044c240 f i libucrtd:output.obj
 0001:0004b270       ??$read_va_arg@PAUansi_string@?1??type_case_Z@?$output_processor@DV?$stream_output_adapter@D@__crt_stdio_output@@V?$format_validation_base@DV?$stream_output_adapter@D@__crt_stdio_output@@@2@@__crt_stdio_output@@AAE_NXZ@@__crt_stdio_output@@YAPAUansi_string@?1??type_case_Z@?$output_processor@DV?$stream_output_adapter@D@__crt_stdio_output@@V?$format_validation_base@DV?$stream_output_adapter@D@__crt_stdio_output@@@2@@0@AAE_NXZ@AAPAD@Z 0044c270 f i libucrtd:output.obj
 0001:0004b2a0       ??$read_va_arg@PAUansi_string@?1??type_case_Z@?$output_processor@DV?$stream_output_adapter@D@__crt_stdio_output@@V?$positional_parameter_base@DV?$stream_output_adapter@D@__crt_stdio_output@@@2@@__crt_stdio_output@@AAE_NXZ@@__crt_stdio_output@@YAPAUansi_string@?1??type_case_Z@?$output_processor@DV?$stream_output_adapter@D@__crt_stdio_output@@V?$positional_parameter_base@DV?$stream_output_adapter@D@__crt_stdio_output@@@2@@0@AAE_NXZ@AAPAD@Z 0044c2a0 f i libucrtd:output.obj
 0001:0004b2d0       ??$read_va_arg@PAUansi_string@?1??type_case_Z@?$output_processor@DV?$stream_output_adapter@D@__crt_stdio_output@@V?$standard_base@DV?$stream_output_adapter@D@__crt_stdio_output@@@2@@__crt_stdio_output@@AAE_NXZ@@__crt_stdio_output@@YAPAUansi_string@?1??type_case_Z@?$output_processor@DV?$stream_output_adapter@D@__crt_stdio_output@@V?$standard_base@DV?$stream_output_adapter@D@__crt_stdio_output@@@2@@0@AAE_NXZ@AAPAD@Z 0044c2d0 f i libucrtd:output.obj
 0001:0004b300       ??$read_va_arg@PAUansi_string@?1??type_case_Z@?$output_processor@DV?$string_output_adapter@D@__crt_stdio_output@@V?$format_validation_base@DV?$string_output_adapter@D@__crt_stdio_output@@@2@@__crt_stdio_output@@AAE_NXZ@@__crt_stdio_output@@YAPAUansi_string@?1??type_case_Z@?$output_processor@DV?$string_output_adapter@D@__crt_stdio_output@@V?$format_validation_base@DV?$string_output_adapter@D@__crt_stdio_output@@@2@@0@AAE_NXZ@AAPAD@Z 0044c300 f i libucrtd:output.obj
 0001:0004b330       ??$read_va_arg@PAUansi_string@?1??type_case_Z@?$output_processor@DV?$string_output_adapter@D@__crt_stdio_output@@V?$positional_parameter_base@DV?$string_output_adapter@D@__crt_stdio_output@@@2@@__crt_stdio_output@@AAE_NXZ@@__crt_stdio_output@@YAPAUansi_string@?1??type_case_Z@?$output_processor@DV?$string_output_adapter@D@__crt_stdio_output@@V?$positional_parameter_base@DV?$string_output_adapter@D@__crt_stdio_output@@@2@@0@AAE_NXZ@AAPAD@Z 0044c330 f i libucrtd:output.obj
 0001:0004b360       ??$read_va_arg@PAUansi_string@?1??type_case_Z@?$output_processor@DV?$string_output_adapter@D@__crt_stdio_output@@V?$standard_base@DV?$string_output_adapter@D@__crt_stdio_output@@@2@@__crt_stdio_output@@AAE_NXZ@@__crt_stdio_output@@YAPAUansi_string@?1??type_case_Z@?$output_processor@DV?$string_output_adapter@D@__crt_stdio_output@@V?$standard_base@DV?$string_output_adapter@D@__crt_stdio_output@@@2@@0@AAE_NXZ@AAPAD@Z 0044c360 f i libucrtd:output.obj
 0001:0004b390       ??$read_va_arg@PAUansi_string@?1??type_case_Z@?$output_processor@_WV?$stream_output_adapter@_W@__crt_stdio_output@@V?$format_validation_base@_WV?$stream_output_adapter@_W@__crt_stdio_output@@@2@@__crt_stdio_output@@AAE_NXZ@@__crt_stdio_output@@YAPAUansi_string@?1??type_case_Z@?$output_processor@_WV?$stream_output_adapter@_W@__crt_stdio_output@@V?$format_validation_base@_WV?$stream_output_adapter@_W@__crt_stdio_output@@@2@@0@AAE_NXZ@AAPAD@Z 0044c390 f i libucrtd:output.obj
 0001:0004b3c0       ??$read_va_arg@PAUansi_string@?1??type_case_Z@?$output_processor@_WV?$stream_output_adapter@_W@__crt_stdio_output@@V?$positional_parameter_base@_WV?$stream_output_adapter@_W@__crt_stdio_output@@@2@@__crt_stdio_output@@AAE_NXZ@@__crt_stdio_output@@YAPAUansi_string@?1??type_case_Z@?$output_processor@_WV?$stream_output_adapter@_W@__crt_stdio_output@@V?$positional_parameter_base@_WV?$stream_output_adapter@_W@__crt_stdio_output@@@2@@0@AAE_NXZ@AAPAD@Z 0044c3c0 f i libucrtd:output.obj
 0001:0004b3f0       ??$read_va_arg@PAUansi_string@?1??type_case_Z@?$output_processor@_WV?$stream_output_adapter@_W@__crt_stdio_output@@V?$standard_base@_WV?$stream_output_adapter@_W@__crt_stdio_output@@@2@@__crt_stdio_output@@AAE_NXZ@@__crt_stdio_output@@YAPAUansi_string@?1??type_case_Z@?$output_processor@_WV?$stream_output_adapter@_W@__crt_stdio_output@@V?$standard_base@_WV?$stream_output_adapter@_W@__crt_stdio_output@@@2@@0@AAE_NXZ@AAPAD@Z 0044c3f0 f i libucrtd:output.obj
 0001:0004b420       ??$read_va_arg@PAUansi_string@?1??type_case_Z@?$output_processor@_WV?$string_output_adapter@_W@__crt_stdio_output@@V?$format_validation_base@_WV?$string_output_adapter@_W@__crt_stdio_output@@@2@@__crt_stdio_output@@AAE_NXZ@@__crt_stdio_output@@YAPAUansi_string@?1??type_case_Z@?$output_processor@_WV?$string_output_adapter@_W@__crt_stdio_output@@V?$format_validation_base@_WV?$string_output_adapter@_W@__crt_stdio_output@@@2@@0@AAE_NXZ@AAPAD@Z 0044c420 f i libucrtd:output.obj
 0001:0004b450       ??$read_va_arg@PAUansi_string@?1??type_case_Z@?$output_processor@_WV?$string_output_adapter@_W@__crt_stdio_output@@V?$positional_parameter_base@_WV?$string_output_adapter@_W@__crt_stdio_output@@@2@@__crt_stdio_output@@AAE_NXZ@@__crt_stdio_output@@YAPAUansi_string@?1??type_case_Z@?$output_processor@_WV?$string_output_adapter@_W@__crt_stdio_output@@V?$positional_parameter_base@_WV?$string_output_adapter@_W@__crt_stdio_output@@@2@@0@AAE_NXZ@AAPAD@Z 0044c450 f i libucrtd:output.obj
 0001:0004b480       ??$read_va_arg@PAUansi_string@?1??type_case_Z@?$output_processor@_WV?$string_output_adapter@_W@__crt_stdio_output@@V?$standard_base@_WV?$string_output_adapter@_W@__crt_stdio_output@@@2@@__crt_stdio_output@@AAE_NXZ@@__crt_stdio_output@@YAPAUansi_string@?1??type_case_Z@?$output_processor@_WV?$string_output_adapter@_W@__crt_stdio_output@@V?$standard_base@_WV?$string_output_adapter@_W@__crt_stdio_output@@@2@@0@AAE_NXZ@AAPAD@Z 0044c480 f i libucrtd:output.obj
 0001:0004b4b0       ??$read_va_arg@PAX@__crt_stdio_output@@YAPAXAAPAD@Z 0044c4b0 f i libucrtd:output.obj
 0001:0004b4e0       ??$read_va_arg@U_CRT_DOUBLE@@@__crt_stdio_output@@YA?AU_CRT_DOUBLE@@AAPAD@Z 0044c4e0 f i libucrtd:output.obj
 0001:0004b510       ??$read_va_arg@_J@__crt_stdio_output@@YA_JAAPAD@Z 0044c510 f i libucrtd:output.obj
 0001:0004b540       ??$read_va_arg@_K@__crt_stdio_output@@YA_KAAPAD@Z 0044c540 f i libucrtd:output.obj
 0001:0004b570       ??$read_va_arg@_W@__crt_stdio_output@@YA_WAAPAD@Z 0044c570 f i libucrtd:output.obj
 0001:0004b5a0       ??$scratch_count@D@formatting_buffer@__crt_stdio_output@@QBEIXZ 0044c5a0 f i libucrtd:output.obj
 0001:0004b5c0       ??$scratch_data@D@formatting_buffer@__crt_stdio_output@@QAEPADXZ 0044c5c0 f i libucrtd:output.obj
 0001:0004b620       ??$tcstol@AAPBDPAPADH@?$__crt_char_traits@D@@SAJAAPBD$$QAPAPAD$$QAH@Z 0044c620 f i libucrtd:output.obj
 0001:0004b650       ??$tcstol@AAPB_WPAPA_WH@?$__crt_char_traits@_W@@SAJAAPB_W$$QAPAPA_W$$QAH@Z 0044c650 f i libucrtd:output.obj
 0001:0004b680       ??$tcstol@PBDPAPADH@?$__crt_char_traits@D@@SAJ$$QAPBD$$QAPAPAD$$QAH@Z 0044c680 f i libucrtd:output.obj
 0001:0004b6b0       ??$tcstol@PB_WPAPA_WH@?$__crt_char_traits@_W@@SAJ$$QAPB_W$$QAPAPA_W$$QAH@Z 0044c6b0 f i libucrtd:output.obj
 0001:0004b6e0       ??$type_case_integer_parse_into_buffer@I@?$output_processor@DV?$stream_output_adapter@D@__crt_stdio_output@@V?$format_validation_base@DV?$stream_output_adapter@D@__crt_stdio_output@@@2@@__crt_stdio_output@@AAEXII_N@Z 0044c6e0 f i libucrtd:output.obj
 0001:0004b7e0       ??$type_case_integer_parse_into_buffer@I@?$output_processor@DV?$stream_output_adapter@D@__crt_stdio_output@@V?$positional_parameter_base@DV?$stream_output_adapter@D@__crt_stdio_output@@@2@@__crt_stdio_output@@AAEXII_N@Z 0044c7e0 f i libucrtd:output.obj
 0001:0004b8e0       ??$type_case_integer_parse_into_buffer@I@?$output_processor@DV?$stream_output_adapter@D@__crt_stdio_output@@V?$standard_base@DV?$stream_output_adapter@D@__crt_stdio_output@@@2@@__crt_stdio_output@@AAEXII_N@Z 0044c8e0 f i libucrtd:output.obj
 0001:0004b9e0       ??$type_case_integer_parse_into_buffer@I@?$output_processor@DV?$string_output_adapter@D@__crt_stdio_output@@V?$format_validation_base@DV?$string_output_adapter@D@__crt_stdio_output@@@2@@__crt_stdio_output@@AAEXII_N@Z 0044c9e0 f i libucrtd:output.obj
 0001:0004bae0       ??$type_case_integer_parse_into_buffer@I@?$output_processor@DV?$string_output_adapter@D@__crt_stdio_output@@V?$positional_parameter_base@DV?$string_output_adapter@D@__crt_stdio_output@@@2@@__crt_stdio_output@@AAEXII_N@Z 0044cae0 f i libucrtd:output.obj
 0001:0004bbe0       ??$type_case_integer_parse_into_buffer@I@?$output_processor@DV?$string_output_adapter@D@__crt_stdio_output@@V?$standard_base@DV?$string_output_adapter@D@__crt_stdio_output@@@2@@__crt_stdio_output@@AAEXII_N@Z 0044cbe0 f i libucrtd:output.obj
 0001:0004bce0       ??$type_case_integer_parse_into_buffer@I@?$output_processor@_WV?$stream_output_adapter@_W@__crt_stdio_output@@V?$format_validation_base@_WV?$stream_output_adapter@_W@__crt_stdio_output@@@2@@__crt_stdio_output@@AAEXII_N@Z 0044cce0 f i libucrtd:output.obj
 0001:0004bdf0       ??$type_case_integer_parse_into_buffer@I@?$output_processor@_WV?$stream_output_adapter@_W@__crt_stdio_output@@V?$positional_parameter_base@_WV?$stream_output_adapter@_W@__crt_stdio_output@@@2@@__crt_stdio_output@@AAEXII_N@Z 0044cdf0 f i libucrtd:output.obj
 0001:0004bf00       ??$type_case_integer_parse_into_buffer@I@?$output_processor@_WV?$stream_output_adapter@_W@__crt_stdio_output@@V?$standard_base@_WV?$stream_output_adapter@_W@__crt_stdio_output@@@2@@__crt_stdio_output@@AAEXII_N@Z 0044cf00 f i libucrtd:output.obj
 0001:0004c010       ??$type_case_integer_parse_into_buffer@I@?$output_processor@_WV?$string_output_adapter@_W@__crt_stdio_output@@V?$format_validation_base@_WV?$string_output_adapter@_W@__crt_stdio_output@@@2@@__crt_stdio_output@@AAEXII_N@Z 0044d010 f i libucrtd:output.obj
 0001:0004c120       ??$type_case_integer_parse_into_buffer@I@?$output_processor@_WV?$string_output_adapter@_W@__crt_stdio_output@@V?$positional_parameter_base@_WV?$string_output_adapter@_W@__crt_stdio_output@@@2@@__crt_stdio_output@@AAEXII_N@Z 0044d120 f i libucrtd:output.obj
 0001:0004c230       ??$type_case_integer_parse_into_buffer@I@?$output_processor@_WV?$string_output_adapter@_W@__crt_stdio_output@@V?$standard_base@_WV?$string_output_adapter@_W@__crt_stdio_output@@@2@@__crt_stdio_output@@AAEXII_N@Z 0044d230 f i libucrtd:output.obj
 0001:0004c340       ??$type_case_integer_parse_into_buffer@_K@?$output_processor@DV?$stream_output_adapter@D@__crt_stdio_output@@V?$format_validation_base@DV?$stream_output_adapter@D@__crt_stdio_output@@@2@@__crt_stdio_output@@AAEX_KI_N@Z 0044d340 f i libucrtd:output.obj
 0001:0004c470       ??$type_case_integer_parse_into_buffer@_K@?$output_processor@DV?$stream_output_adapter@D@__crt_stdio_output@@V?$positional_parameter_base@DV?$stream_output_adapter@D@__crt_stdio_output@@@2@@__crt_stdio_output@@AAEX_KI_N@Z 0044d470 f i libucrtd:output.obj
 0001:0004c5a0       ??$type_case_integer_parse_into_buffer@_K@?$output_processor@DV?$stream_output_adapter@D@__crt_stdio_output@@V?$standard_base@DV?$stream_output_adapter@D@__crt_stdio_output@@@2@@__crt_stdio_output@@AAEX_KI_N@Z 0044d5a0 f i libucrtd:output.obj
 0001:0004c6d0       ??$type_case_integer_parse_into_buffer@_K@?$output_processor@DV?$string_output_adapter@D@__crt_stdio_output@@V?$format_validation_base@DV?$string_output_adapter@D@__crt_stdio_output@@@2@@__crt_stdio_output@@AAEX_KI_N@Z 0044d6d0 f i libucrtd:output.obj
 0001:0004c800       ??$type_case_integer_parse_into_buffer@_K@?$output_processor@DV?$string_output_adapter@D@__crt_stdio_output@@V?$positional_parameter_base@DV?$string_output_adapter@D@__crt_stdio_output@@@2@@__crt_stdio_output@@AAEX_KI_N@Z 0044d800 f i libucrtd:output.obj
 0001:0004c930       ??$type_case_integer_parse_into_buffer@_K@?$output_processor@DV?$string_output_adapter@D@__crt_stdio_output@@V?$standard_base@DV?$string_output_adapter@D@__crt_stdio_output@@@2@@__crt_stdio_output@@AAEX_KI_N@Z 0044d930 f i libucrtd:output.obj
 0001:0004ca60       ??$type_case_integer_parse_into_buffer@_K@?$output_processor@_WV?$stream_output_adapter@_W@__crt_stdio_output@@V?$format_validation_base@_WV?$stream_output_adapter@_W@__crt_stdio_output@@@2@@__crt_stdio_output@@AAEX_KI_N@Z 0044da60 f i libucrtd:output.obj
 0001:0004cba0       ??$type_case_integer_parse_into_buffer@_K@?$output_processor@_WV?$stream_output_adapter@_W@__crt_stdio_output@@V?$positional_parameter_base@_WV?$stream_output_adapter@_W@__crt_stdio_output@@@2@@__crt_stdio_output@@AAEX_KI_N@Z 0044dba0 f i libucrtd:output.obj
 0001:0004cce0       ??$type_case_integer_parse_into_buffer@_K@?$output_processor@_WV?$stream_output_adapter@_W@__crt_stdio_output@@V?$standard_base@_WV?$stream_output_adapter@_W@__crt_stdio_output@@@2@@__crt_stdio_output@@AAEX_KI_N@Z 0044dce0 f i libucrtd:output.obj
 0001:0004ce20       ??$type_case_integer_parse_into_buffer@_K@?$output_processor@_WV?$string_output_adapter@_W@__crt_stdio_output@@V?$format_validation_base@_WV?$string_output_adapter@_W@__crt_stdio_output@@@2@@__crt_stdio_output@@AAEX_KI_N@Z 0044de20 f i libucrtd:output.obj
 0001:0004cf60       ??$type_case_integer_parse_into_buffer@_K@?$output_processor@_WV?$string_output_adapter@_W@__crt_stdio_output@@V?$positional_parameter_base@_WV?$string_output_adapter@_W@__crt_stdio_output@@@2@@__crt_stdio_output@@AAEX_KI_N@Z 0044df60 f i libucrtd:output.obj
 0001:0004d0a0       ??$type_case_integer_parse_into_buffer@_K@?$output_processor@_WV?$string_output_adapter@_W@__crt_stdio_output@@V?$standard_base@_WV?$string_output_adapter@_W@__crt_stdio_output@@@2@@__crt_stdio_output@@AAEX_KI_N@Z 0044e0a0 f i libucrtd:output.obj
 0001:0004d1e0       ??$write_multiple_characters@V?$stream_output_adapter@D@__crt_stdio_output@@D@__crt_stdio_output@@YAXABV?$stream_output_adapter@D@0@DHQAH@Z 0044e1e0 f i libucrtd:output.obj
 0001:0004d240       ??$write_multiple_characters@V?$stream_output_adapter@_W@__crt_stdio_output@@D@__crt_stdio_output@@YAXABV?$stream_output_adapter@_W@0@DHQAH@Z 0044e240 f i libucrtd:output.obj
 0001:0004d2a0       ??$write_multiple_characters@V?$string_output_adapter@D@__crt_stdio_output@@D@__crt_stdio_output@@YAXABV?$string_output_adapter@D@0@DHQAH@Z 0044e2a0 f i libucrtd:output.obj
 0001:0004d300       ??$write_multiple_characters@V?$string_output_adapter@_W@__crt_stdio_output@@D@__crt_stdio_output@@YAXABV?$string_output_adapter@_W@0@DHQAH@Z 0044e300 f i libucrtd:output.obj
 0001:0004d780       ??0?$common_data@D@__crt_stdio_output@@IAE@XZ 0044e780 f i libucrtd:output.obj
 0001:0004d850       ??0?$common_data@_W@__crt_stdio_output@@IAE@XZ 0044e850 f i libucrtd:output.obj
 0001:0004d920       ??0?$output_adapter_data@DV?$stream_output_adapter@D@__crt_stdio_output@@@__crt_stdio_output@@IAE@ABV?$stream_output_adapter@D@1@_KQBDQAU__crt_locale_pointers@@QAD@Z 0044e920 f i libucrtd:output.obj
 0001:0004d990       ??0?$output_adapter_data@DV?$string_output_adapter@D@__crt_stdio_output@@@__crt_stdio_output@@IAE@ABV?$string_output_adapter@D@1@_KQBDQAU__crt_locale_pointers@@QAD@Z 0044e990 f i libucrtd:output.obj
 0001:0004da00       ??0?$output_adapter_data@_WV?$stream_output_adapter@_W@__crt_stdio_output@@@__crt_stdio_output@@IAE@ABV?$stream_output_adapter@_W@1@_KQB_WQAU__crt_locale_pointers@@QAD@Z 0044ea00 f i libucrtd:output.obj
 0001:0004da70       ??0?$output_adapter_data@_WV?$string_output_adapter@_W@__crt_stdio_output@@@__crt_stdio_output@@IAE@ABV?$string_output_adapter@_W@1@_KQB_WQAU__crt_locale_pointers@@QAD@Z 0044ea70 f i libucrtd:output.obj
 0001:0004dae0       ??0?$output_processor@DV?$stream_output_adapter@D@__crt_stdio_output@@V?$format_validation_base@DV?$stream_output_adapter@D@__crt_stdio_output@@@2@@__crt_stdio_output@@QAE@ABV?$stream_output_adapter@D@1@_KQBDQAU__crt_locale_pointers@@QAD@Z 0044eae0 f i libucrtd:output.obj
 0001:0004db30       ??0?$output_processor@DV?$stream_output_adapter@D@__crt_stdio_output@@V?$positional_parameter_base@DV?$stream_output_adapter@D@__crt_stdio_output@@@2@@__crt_stdio_output@@QAE@ABV?$stream_output_adapter@D@1@_KQBDQAU__crt_locale_pointers@@QAD@Z 0044eb30 f i libucrtd:output.obj
 0001:0004db80       ??0?$output_processor@DV?$stream_output_adapter@D@__crt_stdio_output@@V?$standard_base@DV?$stream_output_adapter@D@__crt_stdio_output@@@2@@__crt_stdio_output@@QAE@ABV?$stream_output_adapter@D@1@_KQBDQAU__crt_locale_pointers@@QAD@Z 0044eb80 f i libucrtd:output.obj
 0001:0004dbd0       ??0?$output_processor@DV?$string_output_adapter@D@__crt_stdio_output@@V?$format_validation_base@DV?$string_output_adapter@D@__crt_stdio_output@@@2@@__crt_stdio_output@@QAE@ABV?$string_output_adapter@D@1@_KQBDQAU__crt_locale_pointers@@QAD@Z 0044ebd0 f i libucrtd:output.obj
 0001:0004dc20       ??0?$output_processor@DV?$string_output_adapter@D@__crt_stdio_output@@V?$positional_parameter_base@DV?$string_output_adapter@D@__crt_stdio_output@@@2@@__crt_stdio_output@@QAE@ABV?$string_output_adapter@D@1@_KQBDQAU__crt_locale_pointers@@QAD@Z 0044ec20 f i libucrtd:output.obj
 0001:0004dc70       ??0?$output_processor@DV?$string_output_adapter@D@__crt_stdio_output@@V?$standard_base@DV?$string_output_adapter@D@__crt_stdio_output@@@2@@__crt_stdio_output@@QAE@ABV?$string_output_adapter@D@1@_KQBDQAU__crt_locale_pointers@@QAD@Z 0044ec70 f i libucrtd:output.obj
 0001:0004dcc0       ??0?$output_processor@_WV?$stream_output_adapter@_W@__crt_stdio_output@@V?$format_validation_base@_WV?$stream_output_adapter@_W@__crt_stdio_output@@@2@@__crt_stdio_output@@QAE@ABV?$stream_output_adapter@_W@1@_KQB_WQAU__crt_locale_pointers@@QAD@Z 0044ecc0 f i libucrtd:output.obj
 0001:0004dd10       ??0?$output_processor@_WV?$stream_output_adapter@_W@__crt_stdio_output@@V?$positional_parameter_base@_WV?$stream_output_adapter@_W@__crt_stdio_output@@@2@@__crt_stdio_output@@QAE@ABV?$stream_output_adapter@_W@1@_KQB_WQAU__crt_locale_pointers@@QAD@Z 0044ed10 f i libucrtd:output.obj
 0001:0004dd60       ??0?$output_processor@_WV?$stream_output_adapter@_W@__crt_stdio_output@@V?$standard_base@_WV?$stream_output_adapter@_W@__crt_stdio_output@@@2@@__crt_stdio_output@@QAE@ABV?$stream_output_adapter@_W@1@_KQB_WQAU__crt_locale_pointers@@QAD@Z 0044ed60 f i libucrtd:output.obj
 0001:0004ddb0       ??0?$output_processor@_WV?$string_output_adapter@_W@__crt_stdio_output@@V?$format_validation_base@_WV?$string_output_adapter@_W@__crt_stdio_output@@@2@@__crt_stdio_output@@QAE@ABV?$string_output_adapter@_W@1@_KQB_WQAU__crt_locale_pointers@@QAD@Z 0044edb0 f i libucrtd:output.obj
 0001:0004de00       ??0?$output_processor@_WV?$string_output_adapter@_W@__crt_stdio_output@@V?$positional_parameter_base@_WV?$string_output_adapter@_W@__crt_stdio_output@@@2@@__crt_stdio_output@@QAE@ABV?$string_output_adapter@_W@1@_KQB_WQAU__crt_locale_pointers@@QAD@Z 0044ee00 f i libucrtd:output.obj
 0001:0004de50       ??0?$output_processor@_WV?$string_output_adapter@_W@__crt_stdio_output@@V?$standard_base@_WV?$string_output_adapter@_W@__crt_stdio_output@@@2@@__crt_stdio_output@@QAE@ABV?$string_output_adapter@_W@1@_KQB_WQAU__crt_locale_pointers@@QAD@Z 0044ee50 f i libucrtd:output.obj
 0001:0004dea0       ??0?$stream_output_adapter@D@__crt_stdio_output@@QAE@QAU_iobuf@@@Z 0044eea0 f i libucrtd:output.obj
 0001:0004ded0       ??0?$stream_output_adapter@_W@__crt_stdio_output@@QAE@QAU_iobuf@@@Z 0044eed0 f i libucrtd:output.obj
 0001:0004df00       ??0?$string_output_adapter@D@__crt_stdio_output@@QAE@QAU?$string_output_adapter_context@D@1@@Z 0044ef00 f i libucrtd:output.obj
 0001:0004df20       ??0?$string_output_adapter@_W@__crt_stdio_output@@QAE@QAU?$string_output_adapter_context@_W@1@@Z 0044ef20 f i libucrtd:output.obj
 0001:0004df40       ??0_LocaleUpdate@@QAE@QAU__crt_locale_pointers@@@Z 0044ef40 f i libucrtd:output.obj
 0001:0004e060       ??0__acrt_stdio_temporary_buffering_guard@@QAE@QAU_iobuf@@@Z 0044f060 f i libucrtd:output.obj
 0001:0004e0a0       ??0__crt_errno_guard@@QAE@QAH@Z 0044f0a0 f i libucrtd:output.obj
 0001:0004e0e0       ??0formatting_buffer@__crt_stdio_output@@QAE@XZ 0044f0e0 f i libucrtd:output.obj
 0001:0004e120       ??1?$common_data@D@__crt_stdio_output@@QAE@XZ 0044f120 f i libucrtd:output.obj
 0001:0004e140       ??1?$common_data@_W@__crt_stdio_output@@QAE@XZ 0044f140 f i libucrtd:output.obj
 0001:0004e160       ??1?$format_validation_base@DV?$stream_output_adapter@D@__crt_stdio_output@@@__crt_stdio_output@@QAE@XZ 0044f160 f i libucrtd:output.obj
 0001:0004e180       ??1?$format_validation_base@DV?$string_output_adapter@D@__crt_stdio_output@@@__crt_stdio_output@@QAE@XZ 0044f180 f i libucrtd:output.obj
 0001:0004e1a0       ??1?$format_validation_base@_WV?$stream_output_adapter@_W@__crt_stdio_output@@@__crt_stdio_output@@QAE@XZ 0044f1a0 f i libucrtd:output.obj
 0001:0004e1c0       ??1?$format_validation_base@_WV?$string_output_adapter@_W@__crt_stdio_output@@@__crt_stdio_output@@QAE@XZ 0044f1c0 f i libucrtd:output.obj
 0001:0004e1e0       ??1?$output_adapter_data@DV?$stream_output_adapter@D@__crt_stdio_output@@@__crt_stdio_output@@QAE@XZ 0044f1e0 f i libucrtd:output.obj
 0001:0004e200       ??1?$output_adapter_data@DV?$string_output_adapter@D@__crt_stdio_output@@@__crt_stdio_output@@QAE@XZ 0044f200 f i libucrtd:output.obj
 0001:0004e220       ??1?$output_adapter_data@_WV?$stream_output_adapter@_W@__crt_stdio_output@@@__crt_stdio_output@@QAE@XZ 0044f220 f i libucrtd:output.obj
 0001:0004e240       ??1?$output_adapter_data@_WV?$string_output_adapter@_W@__crt_stdio_output@@@__crt_stdio_output@@QAE@XZ 0044f240 f i libucrtd:output.obj
 0001:0004e260       ??1?$output_processor@DV?$stream_output_adapter@D@__crt_stdio_output@@V?$format_validation_base@DV?$stream_output_adapter@D@__crt_stdio_output@@@2@@__crt_stdio_output@@QAE@XZ 0044f260 f i libucrtd:output.obj
 0001:0004e280       ??1?$output_processor@DV?$stream_output_adapter@D@__crt_stdio_output@@V?$positional_parameter_base@DV?$stream_output_adapter@D@__crt_stdio_output@@@2@@__crt_stdio_output@@QAE@XZ 0044f280 f i libucrtd:output.obj
 0001:0004e2a0       ??1?$output_processor@DV?$stream_output_adapter@D@__crt_stdio_output@@V?$standard_base@DV?$stream_output_adapter@D@__crt_stdio_output@@@2@@__crt_stdio_output@@QAE@XZ 0044f2a0 f i libucrtd:output.obj
 0001:0004e2c0       ??1?$output_processor@DV?$string_output_adapter@D@__crt_stdio_output@@V?$format_validation_base@DV?$string_output_adapter@D@__crt_stdio_output@@@2@@__crt_stdio_output@@QAE@XZ 0044f2c0 f i libucrtd:output.obj
 0001:0004e2e0       ??1?$output_processor@DV?$string_output_adapter@D@__crt_stdio_output@@V?$positional_parameter_base@DV?$string_output_adapter@D@__crt_stdio_output@@@2@@__crt_stdio_output@@QAE@XZ 0044f2e0 f i libucrtd:output.obj
 0001:0004e300       ??1?$output_processor@DV?$string_output_adapter@D@__crt_stdio_output@@V?$standard_base@DV?$string_output_adapter@D@__crt_stdio_output@@@2@@__crt_stdio_output@@QAE@XZ 0044f300 f i libucrtd:output.obj
 0001:0004e320       ??1?$output_processor@_WV?$stream_output_adapter@_W@__crt_stdio_output@@V?$format_validation_base@_WV?$stream_output_adapter@_W@__crt_stdio_output@@@2@@__crt_stdio_output@@QAE@XZ 0044f320 f i libucrtd:output.obj
 0001:0004e340       ??1?$output_processor@_WV?$stream_output_adapter@_W@__crt_stdio_output@@V?$positional_parameter_base@_WV?$stream_output_adapter@_W@__crt_stdio_output@@@2@@__crt_stdio_output@@QAE@XZ 0044f340 f i libucrtd:output.obj
 0001:0004e360       ??1?$output_processor@_WV?$stream_output_adapter@_W@__crt_stdio_output@@V?$standard_base@_WV?$stream_output_adapter@_W@__crt_stdio_output@@@2@@__crt_stdio_output@@QAE@XZ 0044f360 f i libucrtd:output.obj
 0001:0004e380       ??1?$output_processor@_WV?$string_output_adapter@_W@__crt_stdio_output@@V?$format_validation_base@_WV?$string_output_adapter@_W@__crt_stdio_output@@@2@@__crt_stdio_output@@QAE@XZ 0044f380 f i libucrtd:output.obj
 0001:0004e3a0       ??1?$output_processor@_WV?$string_output_adapter@_W@__crt_stdio_output@@V?$positional_parameter_base@_WV?$string_output_adapter@_W@__crt_stdio_output@@@2@@__crt_stdio_output@@QAE@XZ 0044f3a0 f i libucrtd:output.obj
 0001:0004e3c0       ??1?$output_processor@_WV?$string_output_adapter@_W@__crt_stdio_output@@V?$standard_base@_WV?$string_output_adapter@_W@__crt_stdio_output@@@2@@__crt_stdio_output@@QAE@XZ 0044f3c0 f i libucrtd:output.obj
 0001:0004e3e0       ??1?$positional_parameter_base@DV?$stream_output_adapter@D@__crt_stdio_output@@@__crt_stdio_output@@QAE@XZ 0044f3e0 f i libucrtd:output.obj
 0001:0004e400       ??1?$positional_parameter_base@DV?$string_output_adapter@D@__crt_stdio_output@@@__crt_stdio_output@@QAE@XZ 0044f400 f i libucrtd:output.obj
 0001:0004e420       ??1?$positional_parameter_base@_WV?$stream_output_adapter@_W@__crt_stdio_output@@@__crt_stdio_output@@QAE@XZ 0044f420 f i libucrtd:output.obj
 0001:0004e440       ??1?$positional_parameter_base@_WV?$string_output_adapter@_W@__crt_stdio_output@@@__crt_stdio_output@@QAE@XZ 0044f440 f i libucrtd:output.obj
 0001:0004e460       ??1?$standard_base@DV?$stream_output_adapter@D@__crt_stdio_output@@@__crt_stdio_output@@QAE@XZ 0044f460 f i libucrtd:output.obj
 0001:0004e480       ??1?$standard_base@DV?$string_output_adapter@D@__crt_stdio_output@@@__crt_stdio_output@@QAE@XZ 0044f480 f i libucrtd:output.obj
 0001:0004e4a0       ??1?$standard_base@_WV?$stream_output_adapter@_W@__crt_stdio_output@@@__crt_stdio_output@@QAE@XZ 0044f4a0 f i libucrtd:output.obj
 0001:0004e4c0       ??1?$standard_base@_WV?$string_output_adapter@_W@__crt_stdio_output@@@__crt_stdio_output@@QAE@XZ 0044f4c0 f i libucrtd:output.obj
 0001:0004e4e0       ??1_LocaleUpdate@@QAE@XZ   0044f4e0 f i libucrtd:output.obj
 0001:0004e520       ??1__acrt_stdio_temporary_buffering_guard@@QAE@XZ 0044f520 f i libucrtd:output.obj
 0001:0004e550       ??1__crt_errno_guard@@QAE@XZ 0044f550 f i libucrtd:output.obj
 0001:0004e590       ??1formatting_buffer@__crt_stdio_output@@QAE@XZ 0044f590 f i libucrtd:output.obj
 0001:0004e5c0       ??4?$__crt_unique_heap_ptr@DU__crt_internal_free_policy@@@@QAEAAV0@$$QAV0@@Z 0044f5c0 f i libucrtd:output.obj
 0001:0004e600       ??C__crt_stdio_stream@@QBEPAU__crt_stdio_stream_data@@XZ 0044f600 f i libucrtd:output.obj
 0001:0004ef20       ?GetLocaleT@_LocaleUpdate@@QAEPAU__crt_locale_pointers@@XZ 0044ff20 f i libucrtd:output.obj
 0001:0004ef40       ?adjust_hexit@?$output_processor@DV?$stream_output_adapter@D@__crt_stdio_output@@V?$format_validation_base@DV?$stream_output_adapter@D@__crt_stdio_output@@@2@@__crt_stdio_output@@CADH_N@Z 0044ff40 f i libucrtd:output.obj
 0001:0004ef90       ?adjust_hexit@?$output_processor@DV?$stream_output_adapter@D@__crt_stdio_output@@V?$positional_parameter_base@DV?$stream_output_adapter@D@__crt_stdio_output@@@2@@__crt_stdio_output@@CADH_N@Z 0044ff90 f i libucrtd:output.obj
 0001:0004efe0       ?adjust_hexit@?$output_processor@DV?$stream_output_adapter@D@__crt_stdio_output@@V?$standard_base@DV?$stream_output_adapter@D@__crt_stdio_output@@@2@@__crt_stdio_output@@CADH_N@Z 0044ffe0 f i libucrtd:output.obj
 0001:0004f030       ?adjust_hexit@?$output_processor@DV?$string_output_adapter@D@__crt_stdio_output@@V?$format_validation_base@DV?$string_output_adapter@D@__crt_stdio_output@@@2@@__crt_stdio_output@@CADH_N@Z 00450030 f i libucrtd:output.obj
 0001:0004f080       ?adjust_hexit@?$output_processor@DV?$string_output_adapter@D@__crt_stdio_output@@V?$positional_parameter_base@DV?$string_output_adapter@D@__crt_stdio_output@@@2@@__crt_stdio_output@@CADH_N@Z 00450080 f i libucrtd:output.obj
 0001:0004f0d0       ?adjust_hexit@?$output_processor@DV?$string_output_adapter@D@__crt_stdio_output@@V?$standard_base@DV?$string_output_adapter@D@__crt_stdio_output@@@2@@__crt_stdio_output@@CADH_N@Z 004500d0 f i libucrtd:output.obj
 0001:0004f120       ?adjust_hexit@?$output_processor@_WV?$stream_output_adapter@_W@__crt_stdio_output@@V?$format_validation_base@_WV?$stream_output_adapter@_W@__crt_stdio_output@@@2@@__crt_stdio_output@@CADH_N@Z 00450120 f i libucrtd:output.obj
 0001:0004f170       ?adjust_hexit@?$output_processor@_WV?$stream_output_adapter@_W@__crt_stdio_output@@V?$positional_parameter_base@_WV?$stream_output_adapter@_W@__crt_stdio_output@@@2@@__crt_stdio_output@@CADH_N@Z 00450170 f i libucrtd:output.obj
 0001:0004f1c0       ?adjust_hexit@?$output_processor@_WV?$stream_output_adapter@_W@__crt_stdio_output@@V?$standard_base@_WV?$stream_output_adapter@_W@__crt_stdio_output@@@2@@__crt_stdio_output@@CADH_N@Z 004501c0 f i libucrtd:output.obj
 0001:0004f210       ?adjust_hexit@?$output_processor@_WV?$string_output_adapter@_W@__crt_stdio_output@@V?$format_validation_base@_WV?$string_output_adapter@_W@__crt_stdio_output@@@2@@__crt_stdio_output@@CADH_N@Z 00450210 f i libucrtd:output.obj
 0001:0004f260       ?adjust_hexit@?$output_processor@_WV?$string_output_adapter@_W@__crt_stdio_output@@V?$positional_parameter_base@_WV?$string_output_adapter@_W@__crt_stdio_output@@@2@@__crt_stdio_output@@CADH_N@Z 00450260 f i libucrtd:output.obj
 0001:0004f2b0       ?adjust_hexit@?$output_processor@_WV?$string_output_adapter@_W@__crt_stdio_output@@V?$standard_base@_WV?$string_output_adapter@_W@__crt_stdio_output@@@2@@__crt_stdio_output@@CADH_N@Z 004502b0 f i libucrtd:output.obj
 0001:0004f300       ?advance_to_next_pass@?$positional_parameter_base@DV?$stream_output_adapter@D@__crt_stdio_output@@@__crt_stdio_output@@IAE_NXZ 00450300 f i libucrtd:output.obj
 0001:0004f3c0       ?advance_to_next_pass@?$positional_parameter_base@DV?$string_output_adapter@D@__crt_stdio_output@@@__crt_stdio_output@@IAE_NXZ 004503c0 f i libucrtd:output.obj
 0001:0004f480       ?advance_to_next_pass@?$positional_parameter_base@_WV?$stream_output_adapter@_W@__crt_stdio_output@@@__crt_stdio_output@@IAE_NXZ 00450480 f i libucrtd:output.obj
 0001:0004f540       ?advance_to_next_pass@?$positional_parameter_base@_WV?$string_output_adapter@_W@__crt_stdio_output@@@__crt_stdio_output@@IAE_NXZ 00450540 f i libucrtd:output.obj
 0001:0004f600       ?advance_to_next_pass@?$standard_base@DV?$stream_output_adapter@D@__crt_stdio_output@@@__crt_stdio_output@@IAE_NXZ 00450600 f i libucrtd:output.obj
 0001:0004f660       ?advance_to_next_pass@?$standard_base@DV?$string_output_adapter@D@__crt_stdio_output@@@__crt_stdio_output@@IAE_NXZ 00450660 f i libucrtd:output.obj
 0001:0004f6c0       ?advance_to_next_pass@?$standard_base@_WV?$stream_output_adapter@_W@__crt_stdio_output@@@__crt_stdio_output@@IAE_NXZ 004506c0 f i libucrtd:output.obj
 0001:0004f720       ?advance_to_next_pass@?$standard_base@_WV?$string_output_adapter@_W@__crt_stdio_output@@@__crt_stdio_output@@IAE_NXZ 00450720 f i libucrtd:output.obj
 0001:0004f780       ?crop_zeroes@__crt_stdio_output@@YAXPADQAU__crt_locale_pointers@@@Z 00450780 f i libucrtd:output.obj
 0001:0004f8b0       ?find_next_state@?$output_processor@DV?$stream_output_adapter@D@__crt_stdio_output@@V?$format_validation_base@DV?$stream_output_adapter@D@__crt_stdio_output@@@2@@__crt_stdio_output@@ABE?AW4state@2@DW432@@Z 004508b0 f i libucrtd:output.obj
 0001:0004f940       ?find_next_state@?$output_processor@DV?$stream_output_adapter@D@__crt_stdio_output@@V?$positional_parameter_base@DV?$stream_output_adapter@D@__crt_stdio_output@@@2@@__crt_stdio_output@@ABE?AW4state@2@DW432@@Z 00450940 f i libucrtd:output.obj
 0001:0004f9d0       ?find_next_state@?$output_processor@DV?$stream_output_adapter@D@__crt_stdio_output@@V?$standard_base@DV?$stream_output_adapter@D@__crt_stdio_output@@@2@@__crt_stdio_output@@ABE?AW4state@2@DW432@@Z 004509d0 f i libucrtd:output.obj
 0001:0004fa60       ?find_next_state@?$output_processor@DV?$string_output_adapter@D@__crt_stdio_output@@V?$format_validation_base@DV?$string_output_adapter@D@__crt_stdio_output@@@2@@__crt_stdio_output@@ABE?AW4state@2@DW432@@Z 00450a60 f i libucrtd:output.obj
 0001:0004faf0       ?find_next_state@?$output_processor@DV?$string_output_adapter@D@__crt_stdio_output@@V?$positional_parameter_base@DV?$string_output_adapter@D@__crt_stdio_output@@@2@@__crt_stdio_output@@ABE?AW4state@2@DW432@@Z 00450af0 f i libucrtd:output.obj
 0001:0004fb80       ?find_next_state@?$output_processor@DV?$string_output_adapter@D@__crt_stdio_output@@V?$standard_base@DV?$string_output_adapter@D@__crt_stdio_output@@@2@@__crt_stdio_output@@ABE?AW4state@2@DW432@@Z 00450b80 f i libucrtd:output.obj
 0001:0004fc10       ?find_next_state@?$output_processor@_WV?$stream_output_adapter@_W@__crt_stdio_output@@V?$format_validation_base@_WV?$stream_output_adapter@_W@__crt_stdio_output@@@2@@__crt_stdio_output@@ABE?AW4state@2@_WW432@@Z 00450c10 f i libucrtd:output.obj
 0001:0004fca0       ?find_next_state@?$output_processor@_WV?$stream_output_adapter@_W@__crt_stdio_output@@V?$positional_parameter_base@_WV?$stream_output_adapter@_W@__crt_stdio_output@@@2@@__crt_stdio_output@@ABE?AW4state@2@_WW432@@Z 00450ca0 f i libucrtd:output.obj
 0001:0004fd30       ?find_next_state@?$output_processor@_WV?$stream_output_adapter@_W@__crt_stdio_output@@V?$standard_base@_WV?$stream_output_adapter@_W@__crt_stdio_output@@@2@@__crt_stdio_output@@ABE?AW4state@2@_WW432@@Z 00450d30 f i libucrtd:output.obj
 0001:0004fdc0       ?find_next_state@?$output_processor@_WV?$string_output_adapter@_W@__crt_stdio_output@@V?$format_validation_base@_WV?$string_output_adapter@_W@__crt_stdio_output@@@2@@__crt_stdio_output@@ABE?AW4state@2@_WW432@@Z 00450dc0 f i libucrtd:output.obj
 0001:0004fe50       ?find_next_state@?$output_processor@_WV?$string_output_adapter@_W@__crt_stdio_output@@V?$positional_parameter_base@_WV?$string_output_adapter@_W@__crt_stdio_output@@@2@@__crt_stdio_output@@ABE?AW4state@2@_WW432@@Z 00450e50 f i libucrtd:output.obj
 0001:0004fee0       ?find_next_state@?$output_processor@_WV?$string_output_adapter@_W@__crt_stdio_output@@V?$standard_base@_WV?$string_output_adapter@_W@__crt_stdio_output@@@2@@__crt_stdio_output@@ABE?AW4state@2@_WW432@@Z 00450ee0 f i libucrtd:output.obj
 0001:0004ff70       ?force_decimal_point@__crt_stdio_output@@YAXPADQAU__crt_locale_pointers@@@Z 00450f70 f i libucrtd:output.obj
 0001:00050050       ?get_parameter_type@?$positional_parameter_base@DV?$stream_output_adapter@D@__crt_stdio_output@@@__crt_stdio_output@@CA?AW4parameter_type@12@F@Z 00451050 f i libucrtd:output.obj
 0001:00050060       ?get_parameter_type@?$positional_parameter_base@DV?$stream_output_adapter@D@__crt_stdio_output@@@__crt_stdio_output@@CA?AW4parameter_type@12@G@Z 00451060 f i libucrtd:output.obj
 0001:00050070       ?get_parameter_type@?$positional_parameter_base@DV?$stream_output_adapter@D@__crt_stdio_output@@@__crt_stdio_output@@CA?AW4parameter_type@12@H@Z 00451070 f i libucrtd:output.obj
 0001:00050080       ?get_parameter_type@?$positional_parameter_base@DV?$stream_output_adapter@D@__crt_stdio_output@@@__crt_stdio_output@@CA?AW4parameter_type@12@I@Z 00451080 f i libucrtd:output.obj
 0001:00050090       ?get_parameter_type@?$positional_parameter_base@DV?$stream_output_adapter@D@__crt_stdio_output@@@__crt_stdio_output@@CA?AW4parameter_type@12@U_CRT_DOUBLE@@@Z 00451090 f i libucrtd:output.obj
 0001:000500a0       ?get_parameter_type@?$positional_parameter_base@DV?$stream_output_adapter@D@__crt_stdio_output@@@__crt_stdio_output@@CA?AW4parameter_type@12@_J@Z 004510a0 f i libucrtd:output.obj
 0001:000500b0       ?get_parameter_type@?$positional_parameter_base@DV?$stream_output_adapter@D@__crt_stdio_output@@@__crt_stdio_output@@CA?AW4parameter_type@12@_K@Z 004510b0 f i libucrtd:output.obj
 0001:000500c0       ?get_parameter_type@?$positional_parameter_base@DV?$stream_output_adapter@D@__crt_stdio_output@@@__crt_stdio_output@@CA?AW4parameter_type@12@_W@Z 004510c0 f i libucrtd:output.obj
 0001:000500d0       ?get_parameter_type@?$positional_parameter_base@DV?$string_output_adapter@D@__crt_stdio_output@@@__crt_stdio_output@@CA?AW4parameter_type@12@F@Z 004510d0 f i libucrtd:output.obj
 0001:000500e0       ?get_parameter_type@?$positional_parameter_base@DV?$string_output_adapter@D@__crt_stdio_output@@@__crt_stdio_output@@CA?AW4parameter_type@12@G@Z 004510e0 f i libucrtd:output.obj
 0001:000500f0       ?get_parameter_type@?$positional_parameter_base@DV?$string_output_adapter@D@__crt_stdio_output@@@__crt_stdio_output@@CA?AW4parameter_type@12@H@Z 004510f0 f i libucrtd:output.obj
 0001:00050100       ?get_parameter_type@?$positional_parameter_base@DV?$string_output_adapter@D@__crt_stdio_output@@@__crt_stdio_output@@CA?AW4parameter_type@12@I@Z 00451100 f i libucrtd:output.obj
 0001:00050110       ?get_parameter_type@?$positional_parameter_base@DV?$string_output_adapter@D@__crt_stdio_output@@@__crt_stdio_output@@CA?AW4parameter_type@12@U_CRT_DOUBLE@@@Z 00451110 f i libucrtd:output.obj
 0001:00050120       ?get_parameter_type@?$positional_parameter_base@DV?$string_output_adapter@D@__crt_stdio_output@@@__crt_stdio_output@@CA?AW4parameter_type@12@_J@Z 00451120 f i libucrtd:output.obj
 0001:00050130       ?get_parameter_type@?$positional_parameter_base@DV?$string_output_adapter@D@__crt_stdio_output@@@__crt_stdio_output@@CA?AW4parameter_type@12@_K@Z 00451130 f i libucrtd:output.obj
 0001:00050140       ?get_parameter_type@?$positional_parameter_base@DV?$string_output_adapter@D@__crt_stdio_output@@@__crt_stdio_output@@CA?AW4parameter_type@12@_W@Z 00451140 f i libucrtd:output.obj
 0001:00050150       ?get_parameter_type@?$positional_parameter_base@_WV?$stream_output_adapter@_W@__crt_stdio_output@@@__crt_stdio_output@@CA?AW4parameter_type@12@F@Z 00451150 f i libucrtd:output.obj
 0001:00050160       ?get_parameter_type@?$positional_parameter_base@_WV?$stream_output_adapter@_W@__crt_stdio_output@@@__crt_stdio_output@@CA?AW4parameter_type@12@G@Z 00451160 f i libucrtd:output.obj
 0001:00050170       ?get_parameter_type@?$positional_parameter_base@_WV?$stream_output_adapter@_W@__crt_stdio_output@@@__crt_stdio_output@@CA?AW4parameter_type@12@H@Z 00451170 f i libucrtd:output.obj
 0001:00050180       ?get_parameter_type@?$positional_parameter_base@_WV?$stream_output_adapter@_W@__crt_stdio_output@@@__crt_stdio_output@@CA?AW4parameter_type@12@I@Z 00451180 f i libucrtd:output.obj
 0001:00050190       ?get_parameter_type@?$positional_parameter_base@_WV?$stream_output_adapter@_W@__crt_stdio_output@@@__crt_stdio_output@@CA?AW4parameter_type@12@U_CRT_DOUBLE@@@Z 00451190 f i libucrtd:output.obj
 0001:000501a0       ?get_parameter_type@?$positional_parameter_base@_WV?$stream_output_adapter@_W@__crt_stdio_output@@@__crt_stdio_output@@CA?AW4parameter_type@12@_J@Z 004511a0 f i libucrtd:output.obj
 0001:000501b0       ?get_parameter_type@?$positional_parameter_base@_WV?$stream_output_adapter@_W@__crt_stdio_output@@@__crt_stdio_output@@CA?AW4parameter_type@12@_K@Z 004511b0 f i libucrtd:output.obj
 0001:000501c0       ?get_parameter_type@?$positional_parameter_base@_WV?$stream_output_adapter@_W@__crt_stdio_output@@@__crt_stdio_output@@CA?AW4parameter_type@12@_W@Z 004511c0 f i libucrtd:output.obj
 0001:000501d0       ?get_parameter_type@?$positional_parameter_base@_WV?$string_output_adapter@_W@__crt_stdio_output@@@__crt_stdio_output@@CA?AW4parameter_type@12@F@Z 004511d0 f i libucrtd:output.obj
 0001:000501e0       ?get_parameter_type@?$positional_parameter_base@_WV?$string_output_adapter@_W@__crt_stdio_output@@@__crt_stdio_output@@CA?AW4parameter_type@12@G@Z 004511e0 f i libucrtd:output.obj
 0001:000501f0       ?get_parameter_type@?$positional_parameter_base@_WV?$string_output_adapter@_W@__crt_stdio_output@@@__crt_stdio_output@@CA?AW4parameter_type@12@H@Z 004511f0 f i libucrtd:output.obj
 0001:00050200       ?get_parameter_type@?$positional_parameter_base@_WV?$string_output_adapter@_W@__crt_stdio_output@@@__crt_stdio_output@@CA?AW4parameter_type@12@I@Z 00451200 f i libucrtd:output.obj
 0001:00050210       ?get_parameter_type@?$positional_parameter_base@_WV?$string_output_adapter@_W@__crt_stdio_output@@@__crt_stdio_output@@CA?AW4parameter_type@12@U_CRT_DOUBLE@@@Z 00451210 f i libucrtd:output.obj
 0001:00050220       ?get_parameter_type@?$positional_parameter_base@_WV?$string_output_adapter@_W@__crt_stdio_output@@@__crt_stdio_output@@CA?AW4parameter_type@12@_J@Z 00451220 f i libucrtd:output.obj
 0001:00050230       ?get_parameter_type@?$positional_parameter_base@_WV?$string_output_adapter@_W@__crt_stdio_output@@@__crt_stdio_output@@CA?AW4parameter_type@12@_K@Z 00451230 f i libucrtd:output.obj
 0001:00050240       ?get_parameter_type@?$positional_parameter_base@_WV?$string_output_adapter@_W@__crt_stdio_output@@@__crt_stdio_output@@CA?AW4parameter_type@12@_W@Z 00451240 f i libucrtd:output.obj
 0001:00050250       ?has_flag@?$output_processor@DV?$stream_output_adapter@D@__crt_stdio_output@@V?$format_validation_base@DV?$stream_output_adapter@D@__crt_stdio_output@@@2@@__crt_stdio_output@@ABE_NI@Z 00451250 f i libucrtd:output.obj
 0001:00050290       ?has_flag@?$output_processor@DV?$stream_output_adapter@D@__crt_stdio_output@@V?$positional_parameter_base@DV?$stream_output_adapter@D@__crt_stdio_output@@@2@@__crt_stdio_output@@ABE_NI@Z 00451290 f i libucrtd:output.obj
 0001:000502d0       ?has_flag@?$output_processor@DV?$stream_output_adapter@D@__crt_stdio_output@@V?$standard_base@DV?$stream_output_adapter@D@__crt_stdio_output@@@2@@__crt_stdio_output@@ABE_NI@Z 004512d0 f i libucrtd:output.obj
 0001:00050310       ?has_flag@?$output_processor@DV?$string_output_adapter@D@__crt_stdio_output@@V?$format_validation_base@DV?$string_output_adapter@D@__crt_stdio_output@@@2@@__crt_stdio_output@@ABE_NI@Z 00451310 f i libucrtd:output.obj
 0001:00050350       ?has_flag@?$output_processor@DV?$string_output_adapter@D@__crt_stdio_output@@V?$positional_parameter_base@DV?$string_output_adapter@D@__crt_stdio_output@@@2@@__crt_stdio_output@@ABE_NI@Z 00451350 f i libucrtd:output.obj
 0001:00050390       ?has_flag@?$output_processor@DV?$string_output_adapter@D@__crt_stdio_output@@V?$standard_base@DV?$string_output_adapter@D@__crt_stdio_output@@@2@@__crt_stdio_output@@ABE_NI@Z 00451390 f i libucrtd:output.obj
 0001:000503d0       ?has_flag@?$output_processor@_WV?$stream_output_adapter@_W@__crt_stdio_output@@V?$format_validation_base@_WV?$stream_output_adapter@_W@__crt_stdio_output@@@2@@__crt_stdio_output@@ABE_NI@Z 004513d0 f i libucrtd:output.obj
 0001:00050410       ?has_flag@?$output_processor@_WV?$stream_output_adapter@_W@__crt_stdio_output@@V?$positional_parameter_base@_WV?$stream_output_adapter@_W@__crt_stdio_output@@@2@@__crt_stdio_output@@ABE_NI@Z 00451410 f i libucrtd:output.obj
 0001:00050450       ?has_flag@?$output_processor@_WV?$stream_output_adapter@_W@__crt_stdio_output@@V?$standard_base@_WV?$stream_output_adapter@_W@__crt_stdio_output@@@2@@__crt_stdio_output@@ABE_NI@Z 00451450 f i libucrtd:output.obj
 0001:00050490       ?has_flag@?$output_processor@_WV?$string_output_adapter@_W@__crt_stdio_output@@V?$format_validation_base@_WV?$string_output_adapter@_W@__crt_stdio_output@@@2@@__crt_stdio_output@@ABE_NI@Z 00451490 f i libucrtd:output.obj
 0001:000504d0       ?has_flag@?$output_processor@_WV?$string_output_adapter@_W@__crt_stdio_output@@V?$positional_parameter_base@_WV?$string_output_adapter@_W@__crt_stdio_output@@@2@@__crt_stdio_output@@ABE_NI@Z 004514d0 f i libucrtd:output.obj
 0001:00050510       ?has_flag@?$output_processor@_WV?$string_output_adapter@_W@__crt_stdio_output@@V?$standard_base@_WV?$string_output_adapter@_W@__crt_stdio_output@@@2@@__crt_stdio_output@@ABE_NI@Z 00451510 f i libucrtd:output.obj
 0001:00050550       ?is_positional_parameter_reappearance_consistent@?$positional_parameter_base@DV?$stream_output_adapter@D@__crt_stdio_output@@@__crt_stdio_output@@AAE_NABUparameter_data@12@W4parameter_type@12@DW4length_modifier@2@@Z 00451550 f i libucrtd:output.obj
 0001:00050800       ?is_positional_parameter_reappearance_consistent@?$positional_parameter_base@DV?$string_output_adapter@D@__crt_stdio_output@@@__crt_stdio_output@@AAE_NABUparameter_data@12@W4parameter_type@12@DW4length_modifier@2@@Z 00451800 f i libucrtd:output.obj
 0001:00050ab0       ?is_positional_parameter_reappearance_consistent@?$positional_parameter_base@_WV?$stream_output_adapter@_W@__crt_stdio_output@@@__crt_stdio_output@@AAE_NABUparameter_data@12@W4parameter_type@12@_WW4length_modifier@2@@Z 00451ab0 f i libucrtd:output.obj
 0001:00050d60       ?is_positional_parameter_reappearance_consistent@?$positional_parameter_base@_WV?$string_output_adapter@_W@__crt_stdio_output@@@__crt_stdio_output@@AAE_NABUparameter_data@12@W4parameter_type@12@_WW4length_modifier@2@@Z 00451d60 f i libucrtd:output.obj
 0001:00051010       ?is_string_backed@__crt_stdio_stream@@QBE_NXZ 00452010 f i libucrtd:output.obj
 0001:00051050       ?narrow_null_string@?$output_processor@DV?$stream_output_adapter@D@__crt_stdio_output@@V?$format_validation_base@DV?$stream_output_adapter@D@__crt_stdio_output@@@2@@__crt_stdio_output@@CAPADXZ 00452050 f i libucrtd:output.obj
 0001:00051060       ?narrow_null_string@?$output_processor@DV?$stream_output_adapter@D@__crt_stdio_output@@V?$positional_parameter_base@DV?$stream_output_adapter@D@__crt_stdio_output@@@2@@__crt_stdio_output@@CAPADXZ 00452060 f i libucrtd:output.obj
 0001:00051070       ?narrow_null_string@?$output_processor@DV?$stream_output_adapter@D@__crt_stdio_output@@V?$standard_base@DV?$stream_output_adapter@D@__crt_stdio_output@@@2@@__crt_stdio_output@@CAPADXZ 00452070 f i libucrtd:output.obj
 0001:00051080       ?narrow_null_string@?$output_processor@DV?$string_output_adapter@D@__crt_stdio_output@@V?$format_validation_base@DV?$string_output_adapter@D@__crt_stdio_output@@@2@@__crt_stdio_output@@CAPADXZ 00452080 f i libucrtd:output.obj
 0001:00051090       ?narrow_null_string@?$output_processor@DV?$string_output_adapter@D@__crt_stdio_output@@V?$positional_parameter_base@DV?$string_output_adapter@D@__crt_stdio_output@@@2@@__crt_stdio_output@@CAPADXZ 00452090 f i libucrtd:output.obj
 0001:000510a0       ?narrow_null_string@?$output_processor@DV?$string_output_adapter@D@__crt_stdio_output@@V?$standard_base@DV?$string_output_adapter@D@__crt_stdio_output@@@2@@__crt_stdio_output@@CAPADXZ 004520a0 f i libucrtd:output.obj
 0001:000510b0       ?narrow_null_string@?$output_processor@_WV?$stream_output_adapter@_W@__crt_stdio_output@@V?$format_validation_base@_WV?$stream_output_adapter@_W@__crt_stdio_output@@@2@@__crt_stdio_output@@CAPADXZ 004520b0 f i libucrtd:output.obj
 0001:000510c0       ?narrow_null_string@?$output_processor@_WV?$stream_output_adapter@_W@__crt_stdio_output@@V?$positional_parameter_base@_WV?$stream_output_adapter@_W@__crt_stdio_output@@@2@@__crt_stdio_output@@CAPADXZ 004520c0 f i libucrtd:output.obj
 0001:000510d0       ?narrow_null_string@?$output_processor@_WV?$stream_output_adapter@_W@__crt_stdio_output@@V?$standard_base@_WV?$stream_output_adapter@_W@__crt_stdio_output@@@2@@__crt_stdio_output@@CAPADXZ 004520d0 f i libucrtd:output.obj
 0001:000510e0       ?narrow_null_string@?$output_processor@_WV?$string_output_adapter@_W@__crt_stdio_output@@V?$format_validation_base@_WV?$string_output_adapter@_W@__crt_stdio_output@@@2@@__crt_stdio_output@@CAPADXZ 004520e0 f i libucrtd:output.obj
 0001:000510f0       ?narrow_null_string@?$output_processor@_WV?$string_output_adapter@_W@__crt_stdio_output@@V?$positional_parameter_base@_WV?$string_output_adapter@_W@__crt_stdio_output@@@2@@__crt_stdio_output@@CAPADXZ 004520f0 f i libucrtd:output.obj
 0001:00051100       ?narrow_null_string@?$output_processor@_WV?$string_output_adapter@_W@__crt_stdio_output@@V?$standard_base@_WV?$string_output_adapter@_W@__crt_stdio_output@@@2@@__crt_stdio_output@@CAPADXZ 00452100 f i libucrtd:output.obj
 0001:00051110       ?parse_int_from_format_string@?$output_processor@DV?$stream_output_adapter@D@__crt_stdio_output@@V?$format_validation_base@DV?$stream_output_adapter@D@__crt_stdio_output@@@2@@__crt_stdio_output@@AAE_NQAH@Z 00452110 f i libucrtd:output.obj
 0001:000511f0       ?parse_int_from_format_string@?$output_processor@DV?$stream_output_adapter@D@__crt_stdio_output@@V?$positional_parameter_base@DV?$stream_output_adapter@D@__crt_stdio_output@@@2@@__crt_stdio_output@@AAE_NQAH@Z 004521f0 f i libucrtd:output.obj
 0001:000512d0       ?parse_int_from_format_string@?$output_processor@DV?$stream_output_adapter@D@__crt_stdio_output@@V?$standard_base@DV?$stream_output_adapter@D@__crt_stdio_output@@@2@@__crt_stdio_output@@AAE_NQAH@Z 004522d0 f i libucrtd:output.obj
 0001:000513b0       ?parse_int_from_format_string@?$output_processor@DV?$string_output_adapter@D@__crt_stdio_output@@V?$format_validation_base@DV?$string_output_adapter@D@__crt_stdio_output@@@2@@__crt_stdio_output@@AAE_NQAH@Z 004523b0 f i libucrtd:output.obj
 0001:00051490       ?parse_int_from_format_string@?$output_processor@DV?$string_output_adapter@D@__crt_stdio_output@@V?$positional_parameter_base@DV?$string_output_adapter@D@__crt_stdio_output@@@2@@__crt_stdio_output@@AAE_NQAH@Z 00452490 f i libucrtd:output.obj
 0001:00051570       ?parse_int_from_format_string@?$output_processor@DV?$string_output_adapter@D@__crt_stdio_output@@V?$standard_base@DV?$string_output_adapter@D@__crt_stdio_output@@@2@@__crt_stdio_output@@AAE_NQAH@Z 00452570 f i libucrtd:output.obj
 0001:00051650       ?parse_int_from_format_string@?$output_processor@_WV?$stream_output_adapter@_W@__crt_stdio_output@@V?$format_validation_base@_WV?$stream_output_adapter@_W@__crt_stdio_output@@@2@@__crt_stdio_output@@AAE_NQAH@Z 00452650 f i libucrtd:output.obj
 0001:00051730       ?parse_int_from_format_string@?$output_processor@_WV?$stream_output_adapter@_W@__crt_stdio_output@@V?$positional_parameter_base@_WV?$stream_output_adapter@_W@__crt_stdio_output@@@2@@__crt_stdio_output@@AAE_NQAH@Z 00452730 f i libucrtd:output.obj
 0001:00051810       ?parse_int_from_format_string@?$output_processor@_WV?$stream_output_adapter@_W@__crt_stdio_output@@V?$standard_base@_WV?$stream_output_adapter@_W@__crt_stdio_output@@@2@@__crt_stdio_output@@AAE_NQAH@Z 00452810 f i libucrtd:output.obj
 0001:000518f0       ?parse_int_from_format_string@?$output_processor@_WV?$string_output_adapter@_W@__crt_stdio_output@@V?$format_validation_base@_WV?$string_output_adapter@_W@__crt_stdio_output@@@2@@__crt_stdio_output@@AAE_NQAH@Z 004528f0 f i libucrtd:output.obj
 0001:000519d0       ?parse_int_from_format_string@?$output_processor@_WV?$string_output_adapter@_W@__crt_stdio_output@@V?$positional_parameter_base@_WV?$string_output_adapter@_W@__crt_stdio_output@@@2@@__crt_stdio_output@@AAE_NQAH@Z 004529d0 f i libucrtd:output.obj
 0001:00051ab0       ?parse_int_from_format_string@?$output_processor@_WV?$string_output_adapter@_W@__crt_stdio_output@@V?$standard_base@_WV?$string_output_adapter@_W@__crt_stdio_output@@@2@@__crt_stdio_output@@AAE_NQAH@Z 00452ab0 f i libucrtd:output.obj
 0001:00051b90       ?process@?$output_processor@DV?$stream_output_adapter@D@__crt_stdio_output@@V?$format_validation_base@DV?$stream_output_adapter@D@__crt_stdio_output@@@2@@__crt_stdio_output@@QAEHXZ 00452b90 f i libucrtd:output.obj
 0001:00051ee0       ?process@?$output_processor@DV?$stream_output_adapter@D@__crt_stdio_output@@V?$positional_parameter_base@DV?$stream_output_adapter@D@__crt_stdio_output@@@2@@__crt_stdio_output@@QAEHXZ 00452ee0 f i libucrtd:output.obj
 0001:00052230       ?process@?$output_processor@DV?$stream_output_adapter@D@__crt_stdio_output@@V?$standard_base@DV?$stream_output_adapter@D@__crt_stdio_output@@@2@@__crt_stdio_output@@QAEHXZ 00453230 f i libucrtd:output.obj
 0001:00052580       ?process@?$output_processor@DV?$string_output_adapter@D@__crt_stdio_output@@V?$format_validation_base@DV?$string_output_adapter@D@__crt_stdio_output@@@2@@__crt_stdio_output@@QAEHXZ 00453580 f i libucrtd:output.obj
 0001:000528d0       ?process@?$output_processor@DV?$string_output_adapter@D@__crt_stdio_output@@V?$positional_parameter_base@DV?$string_output_adapter@D@__crt_stdio_output@@@2@@__crt_stdio_output@@QAEHXZ 004538d0 f i libucrtd:output.obj
 0001:00052c20       ?process@?$output_processor@DV?$string_output_adapter@D@__crt_stdio_output@@V?$standard_base@DV?$string_output_adapter@D@__crt_stdio_output@@@2@@__crt_stdio_output@@QAEHXZ 00453c20 f i libucrtd:output.obj
 0001:00052f70       ?process@?$output_processor@_WV?$stream_output_adapter@_W@__crt_stdio_output@@V?$format_validation_base@_WV?$stream_output_adapter@_W@__crt_stdio_output@@@2@@__crt_stdio_output@@QAEHXZ 00453f70 f i libucrtd:output.obj
 0001:000532c0       ?process@?$output_processor@_WV?$stream_output_adapter@_W@__crt_stdio_output@@V?$positional_parameter_base@_WV?$stream_output_adapter@_W@__crt_stdio_output@@@2@@__crt_stdio_output@@QAEHXZ 004542c0 f i libucrtd:output.obj
 0001:00053610       ?process@?$output_processor@_WV?$stream_output_adapter@_W@__crt_stdio_output@@V?$standard_base@_WV?$stream_output_adapter@_W@__crt_stdio_output@@@2@@__crt_stdio_output@@QAEHXZ 00454610 f i libucrtd:output.obj
 0001:00053960       ?process@?$output_processor@_WV?$string_output_adapter@_W@__crt_stdio_output@@V?$format_validation_base@_WV?$string_output_adapter@_W@__crt_stdio_output@@@2@@__crt_stdio_output@@QAEHXZ 00454960 f i libucrtd:output.obj
 0001:00053cb0       ?process@?$output_processor@_WV?$string_output_adapter@_W@__crt_stdio_output@@V?$positional_parameter_base@_WV?$string_output_adapter@_W@__crt_stdio_output@@@2@@__crt_stdio_output@@QAEHXZ 00454cb0 f i libucrtd:output.obj
 0001:00054000       ?process@?$output_processor@_WV?$string_output_adapter@_W@__crt_stdio_output@@V?$standard_base@_WV?$string_output_adapter@_W@__crt_stdio_output@@@2@@__crt_stdio_output@@QAEHXZ 00455000 f i libucrtd:output.obj
 0001:00054350       ?public_stream@__crt_stdio_stream@@QBEPAU_iobuf@@XZ 00455350 f i libucrtd:output.obj
 0001:00054370       ?set_flag@?$output_processor@DV?$stream_output_adapter@D@__crt_stdio_output@@V?$format_validation_base@DV?$stream_output_adapter@D@__crt_stdio_output@@@2@@__crt_stdio_output@@AAEXI@Z 00455370 f i libucrtd:output.obj
 0001:000543a0       ?set_flag@?$output_processor@DV?$stream_output_adapter@D@__crt_stdio_output@@V?$positional_parameter_base@DV?$stream_output_adapter@D@__crt_stdio_output@@@2@@__crt_stdio_output@@AAEXI@Z 004553a0 f i libucrtd:output.obj
 0001:000543d0       ?set_flag@?$output_processor@DV?$stream_output_adapter@D@__crt_stdio_output@@V?$standard_base@DV?$stream_output_adapter@D@__crt_stdio_output@@@2@@__crt_stdio_output@@AAEXI@Z 004553d0 f i libucrtd:output.obj
 0001:00054400       ?set_flag@?$output_processor@DV?$string_output_adapter@D@__crt_stdio_output@@V?$format_validation_base@DV?$string_output_adapter@D@__crt_stdio_output@@@2@@__crt_stdio_output@@AAEXI@Z 00455400 f i libucrtd:output.obj
 0001:00054430       ?set_flag@?$output_processor@DV?$string_output_adapter@D@__crt_stdio_output@@V?$positional_parameter_base@DV?$string_output_adapter@D@__crt_stdio_output@@@2@@__crt_stdio_output@@AAEXI@Z 00455430 f i libucrtd:output.obj
 0001:00054460       ?set_flag@?$output_processor@DV?$string_output_adapter@D@__crt_stdio_output@@V?$standard_base@DV?$string_output_adapter@D@__crt_stdio_output@@@2@@__crt_stdio_output@@AAEXI@Z 00455460 f i libucrtd:output.obj
 0001:00054490       ?set_flag@?$output_processor@_WV?$stream_output_adapter@_W@__crt_stdio_output@@V?$format_validation_base@_WV?$stream_output_adapter@_W@__crt_stdio_output@@@2@@__crt_stdio_output@@AAEXI@Z 00455490 f i libucrtd:output.obj
 0001:000544c0       ?set_flag@?$output_processor@_WV?$stream_output_adapter@_W@__crt_stdio_output@@V?$positional_parameter_base@_WV?$stream_output_adapter@_W@__crt_stdio_output@@@2@@__crt_stdio_output@@AAEXI@Z 004554c0 f i libucrtd:output.obj
 0001:000544f0       ?set_flag@?$output_processor@_WV?$stream_output_adapter@_W@__crt_stdio_output@@V?$standard_base@_WV?$stream_output_adapter@_W@__crt_stdio_output@@@2@@__crt_stdio_output@@AAEXI@Z 004554f0 f i libucrtd:output.obj
 0001:00054520       ?set_flag@?$output_processor@_WV?$string_output_adapter@_W@__crt_stdio_output@@V?$format_validation_base@_WV?$string_output_adapter@_W@__crt_stdio_output@@@2@@__crt_stdio_output@@AAEXI@Z 00455520 f i libucrtd:output.obj
 0001:00054550       ?set_flag@?$output_processor@_WV?$string_output_adapter@_W@__crt_stdio_output@@V?$positional_parameter_base@_WV?$string_output_adapter@_W@__crt_stdio_output@@@2@@__crt_stdio_output@@AAEXI@Z 00455550 f i libucrtd:output.obj
 0001:00054580       ?set_flag@?$output_processor@_WV?$string_output_adapter@_W@__crt_stdio_output@@V?$standard_base@_WV?$string_output_adapter@_W@__crt_stdio_output@@@2@@__crt_stdio_output@@AAEXI@Z 00455580 f i libucrtd:output.obj
 0001:000545b0       ?should_format@?$positional_parameter_base@DV?$stream_output_adapter@D@__crt_stdio_output@@@__crt_stdio_output@@IAE_NXZ 004555b0 f i libucrtd:output.obj
 0001:00054600       ?should_format@?$positional_parameter_base@DV?$string_output_adapter@D@__crt_stdio_output@@@__crt_stdio_output@@IAE_NXZ 00455600 f i libucrtd:output.obj
 0001:00054650       ?should_format@?$positional_parameter_base@_WV?$stream_output_adapter@_W@__crt_stdio_output@@@__crt_stdio_output@@IAE_NXZ 00455650 f i libucrtd:output.obj
 0001:000546a0       ?should_format@?$positional_parameter_base@_WV?$string_output_adapter@_W@__crt_stdio_output@@@__crt_stdio_output@@IAE_NXZ 004556a0 f i libucrtd:output.obj
 0001:000546f0       ?should_format@?$standard_base@DV?$stream_output_adapter@D@__crt_stdio_output@@@__crt_stdio_output@@IAE_NXZ 004556f0 f i libucrtd:output.obj
 0001:00054710       ?should_format@?$standard_base@DV?$string_output_adapter@D@__crt_stdio_output@@@__crt_stdio_output@@IAE_NXZ 00455710 f i libucrtd:output.obj
 0001:00054730       ?should_format@?$standard_base@_WV?$stream_output_adapter@_W@__crt_stdio_output@@@__crt_stdio_output@@IAE_NXZ 00455730 f i libucrtd:output.obj
 0001:00054750       ?should_format@?$standard_base@_WV?$string_output_adapter@_W@__crt_stdio_output@@@__crt_stdio_output@@IAE_NXZ 00455750 f i libucrtd:output.obj
 0001:00054770       ?should_skip_normal_state_processing@?$positional_parameter_base@DV?$stream_output_adapter@D@__crt_stdio_output@@@__crt_stdio_output@@IAE_NXZ 00455770 f i libucrtd:output.obj
 0001:000547d0       ?should_skip_normal_state_processing@?$positional_parameter_base@DV?$string_output_adapter@D@__crt_stdio_output@@@__crt_stdio_output@@IAE_NXZ 004557d0 f i libucrtd:output.obj
 0001:00054830       ?should_skip_normal_state_processing@?$positional_parameter_base@_WV?$stream_output_adapter@_W@__crt_stdio_output@@@__crt_stdio_output@@IAE_NXZ 00455830 f i libucrtd:output.obj
 0001:00054890       ?should_skip_normal_state_processing@?$positional_parameter_base@_WV?$string_output_adapter@_W@__crt_stdio_output@@@__crt_stdio_output@@IAE_NXZ 00455890 f i libucrtd:output.obj
 0001:000548f0       ?should_skip_normal_state_processing@?$standard_base@DV?$stream_output_adapter@D@__crt_stdio_output@@@__crt_stdio_output@@IAE_NXZ 004558f0 f i libucrtd:output.obj
 0001:00054910       ?should_skip_normal_state_processing@?$standard_base@DV?$string_output_adapter@D@__crt_stdio_output@@@__crt_stdio_output@@IAE_NXZ 00455910 f i libucrtd:output.obj
 0001:00054930       ?should_skip_normal_state_processing@?$standard_base@_WV?$stream_output_adapter@_W@__crt_stdio_output@@@__crt_stdio_output@@IAE_NXZ 00455930 f i libucrtd:output.obj
 0001:00054950       ?should_skip_normal_state_processing@?$standard_base@_WV?$string_output_adapter@_W@__crt_stdio_output@@@__crt_stdio_output@@IAE_NXZ 00455950 f i libucrtd:output.obj
 0001:00054970       ?should_skip_type_state_output@?$positional_parameter_base@DV?$stream_output_adapter@D@__crt_stdio_output@@@__crt_stdio_output@@IBE_NXZ 00455970 f i libucrtd:output.obj
 0001:000549c0       ?should_skip_type_state_output@?$positional_parameter_base@DV?$string_output_adapter@D@__crt_stdio_output@@@__crt_stdio_output@@IBE_NXZ 004559c0 f i libucrtd:output.obj
 0001:00054a10       ?should_skip_type_state_output@?$positional_parameter_base@_WV?$stream_output_adapter@_W@__crt_stdio_output@@@__crt_stdio_output@@IBE_NXZ 00455a10 f i libucrtd:output.obj
 0001:00054a60       ?should_skip_type_state_output@?$positional_parameter_base@_WV?$string_output_adapter@_W@__crt_stdio_output@@@__crt_stdio_output@@IBE_NXZ 00455a60 f i libucrtd:output.obj
 0001:00054ab0       ?should_skip_type_state_output@?$standard_base@DV?$stream_output_adapter@D@__crt_stdio_output@@@__crt_stdio_output@@IBE_NXZ 00455ab0 f i libucrtd:output.obj
 0001:00054ad0       ?should_skip_type_state_output@?$standard_base@DV?$string_output_adapter@D@__crt_stdio_output@@@__crt_stdio_output@@IBE_NXZ 00455ad0 f i libucrtd:output.obj
 0001:00054af0       ?should_skip_type_state_output@?$standard_base@_WV?$stream_output_adapter@_W@__crt_stdio_output@@@__crt_stdio_output@@IBE_NXZ 00455af0 f i libucrtd:output.obj
 0001:00054b10       ?should_skip_type_state_output@?$standard_base@_WV?$string_output_adapter@_W@__crt_stdio_output@@@__crt_stdio_output@@IBE_NXZ 00455b10 f i libucrtd:output.obj
 0001:00054b30       ?state_case_dot@?$output_processor@DV?$stream_output_adapter@D@__crt_stdio_output@@V?$format_validation_base@DV?$stream_output_adapter@D@__crt_stdio_output@@@2@@__crt_stdio_output@@AAE_NXZ 00455b30 f i libucrtd:output.obj
 0001:00054b50       ?state_case_dot@?$output_processor@DV?$stream_output_adapter@D@__crt_stdio_output@@V?$positional_parameter_base@DV?$stream_output_adapter@D@__crt_stdio_output@@@2@@__crt_stdio_output@@AAE_NXZ 00455b50 f i libucrtd:output.obj
 0001:00054b70       ?state_case_dot@?$output_processor@DV?$stream_output_adapter@D@__crt_stdio_output@@V?$standard_base@DV?$stream_output_adapter@D@__crt_stdio_output@@@2@@__crt_stdio_output@@AAE_NXZ 00455b70 f i libucrtd:output.obj
 0001:00054b90       ?state_case_dot@?$output_processor@DV?$string_output_adapter@D@__crt_stdio_output@@V?$format_validation_base@DV?$string_output_adapter@D@__crt_stdio_output@@@2@@__crt_stdio_output@@AAE_NXZ 00455b90 f i libucrtd:output.obj
 0001:00054bb0       ?state_case_dot@?$output_processor@DV?$string_output_adapter@D@__crt_stdio_output@@V?$positional_parameter_base@DV?$string_output_adapter@D@__crt_stdio_output@@@2@@__crt_stdio_output@@AAE_NXZ 00455bb0 f i libucrtd:output.obj
 0001:00054bd0       ?state_case_dot@?$output_processor@DV?$string_output_adapter@D@__crt_stdio_output@@V?$standard_base@DV?$string_output_adapter@D@__crt_stdio_output@@@2@@__crt_stdio_output@@AAE_NXZ 00455bd0 f i libucrtd:output.obj
 0001:00054bf0       ?state_case_dot@?$output_processor@_WV?$stream_output_adapter@_W@__crt_stdio_output@@V?$format_validation_base@_WV?$stream_output_adapter@_W@__crt_stdio_output@@@2@@__crt_stdio_output@@AAE_NXZ 00455bf0 f i libucrtd:output.obj
 0001:00054c10       ?state_case_dot@?$output_processor@_WV?$stream_output_adapter@_W@__crt_stdio_output@@V?$positional_parameter_base@_WV?$stream_output_adapter@_W@__crt_stdio_output@@@2@@__crt_stdio_output@@AAE_NXZ 00455c10 f i libucrtd:output.obj
 0001:00054c30       ?state_case_dot@?$output_processor@_WV?$stream_output_adapter@_W@__crt_stdio_output@@V?$standard_base@_WV?$stream_output_adapter@_W@__crt_stdio_output@@@2@@__crt_stdio_output@@AAE_NXZ 00455c30 f i libucrtd:output.obj
 0001:00054c50       ?state_case_dot@?$output_processor@_WV?$string_output_adapter@_W@__crt_stdio_output@@V?$format_validation_base@_WV?$string_output_adapter@_W@__crt_stdio_output@@@2@@__crt_stdio_output@@AAE_NXZ 00455c50 f i libucrtd:output.obj
 0001:00054c70       ?state_case_dot@?$output_processor@_WV?$string_output_adapter@_W@__crt_stdio_output@@V?$positional_parameter_base@_WV?$string_output_adapter@_W@__crt_stdio_output@@@2@@__crt_stdio_output@@AAE_NXZ 00455c70 f i libucrtd:output.obj
 0001:00054c90       ?state_case_dot@?$output_processor@_WV?$string_output_adapter@_W@__crt_stdio_output@@V?$standard_base@_WV?$string_output_adapter@_W@__crt_stdio_output@@@2@@__crt_stdio_output@@AAE_NXZ 00455c90 f i libucrtd:output.obj
 0001:00054cb0       ?state_case_flag@?$output_processor@DV?$stream_output_adapter@D@__crt_stdio_output@@V?$format_validation_base@DV?$stream_output_adapter@D@__crt_stdio_output@@@2@@__crt_stdio_output@@AAE_NXZ 00455cb0 f i libucrtd:output.obj
 0001:00054d80       ?state_case_flag@?$output_processor@DV?$stream_output_adapter@D@__crt_stdio_output@@V?$positional_parameter_base@DV?$stream_output_adapter@D@__crt_stdio_output@@@2@@__crt_stdio_output@@AAE_NXZ 00455d80 f i libucrtd:output.obj
 0001:00054e50       ?state_case_flag@?$output_processor@DV?$stream_output_adapter@D@__crt_stdio_output@@V?$standard_base@DV?$stream_output_adapter@D@__crt_stdio_output@@@2@@__crt_stdio_output@@AAE_NXZ 00455e50 f i libucrtd:output.obj
 0001:00054f20       ?state_case_flag@?$output_processor@DV?$string_output_adapter@D@__crt_stdio_output@@V?$format_validation_base@DV?$string_output_adapter@D@__crt_stdio_output@@@2@@__crt_stdio_output@@AAE_NXZ 00455f20 f i libucrtd:output.obj
 0001:00054ff0       ?state_case_flag@?$output_processor@DV?$string_output_adapter@D@__crt_stdio_output@@V?$positional_parameter_base@DV?$string_output_adapter@D@__crt_stdio_output@@@2@@__crt_stdio_output@@AAE_NXZ 00455ff0 f i libucrtd:output.obj
 0001:000550c0       ?state_case_flag@?$output_processor@DV?$string_output_adapter@D@__crt_stdio_output@@V?$standard_base@DV?$string_output_adapter@D@__crt_stdio_output@@@2@@__crt_stdio_output@@AAE_NXZ 004560c0 f i libucrtd:output.obj
 0001:00055190       ?state_case_flag@?$output_processor@_WV?$stream_output_adapter@_W@__crt_stdio_output@@V?$format_validation_base@_WV?$stream_output_adapter@_W@__crt_stdio_output@@@2@@__crt_stdio_output@@AAE_NXZ 00456190 f i libucrtd:output.obj
 0001:00055260       ?state_case_flag@?$output_processor@_WV?$stream_output_adapter@_W@__crt_stdio_output@@V?$positional_parameter_base@_WV?$stream_output_adapter@_W@__crt_stdio_output@@@2@@__crt_stdio_output@@AAE_NXZ 00456260 f i libucrtd:output.obj
 0001:00055330       ?state_case_flag@?$output_processor@_WV?$stream_output_adapter@_W@__crt_stdio_output@@V?$standard_base@_WV?$stream_output_adapter@_W@__crt_stdio_output@@@2@@__crt_stdio_output@@AAE_NXZ 00456330 f i libucrtd:output.obj
 0001:00055400       ?state_case_flag@?$output_processor@_WV?$string_output_adapter@_W@__crt_stdio_output@@V?$format_validation_base@_WV?$string_output_adapter@_W@__crt_stdio_output@@@2@@__crt_stdio_output@@AAE_NXZ 00456400 f i libucrtd:output.obj
 0001:000554d0       ?state_case_flag@?$output_processor@_WV?$string_output_adapter@_W@__crt_stdio_output@@V?$positional_parameter_base@_WV?$string_output_adapter@_W@__crt_stdio_output@@@2@@__crt_stdio_output@@AAE_NXZ 004564d0 f i libucrtd:output.obj
 0001:000555a0       ?state_case_flag@?$output_processor@_WV?$string_output_adapter@_W@__crt_stdio_output@@V?$standard_base@_WV?$string_output_adapter@_W@__crt_stdio_output@@@2@@__crt_stdio_output@@AAE_NXZ 004565a0 f i libucrtd:output.obj
 0001:00055670       ?state_case_normal@?$output_processor@DV?$stream_output_adapter@D@__crt_stdio_output@@V?$format_validation_base@DV?$stream_output_adapter@D@__crt_stdio_output@@@2@@__crt_stdio_output@@AAE_NXZ 00456670 f i libucrtd:output.obj
 0001:00055750       ?state_case_normal@?$output_processor@DV?$stream_output_adapter@D@__crt_stdio_output@@V?$positional_parameter_base@DV?$stream_output_adapter@D@__crt_stdio_output@@@2@@__crt_stdio_output@@AAE_NXZ 00456750 f i libucrtd:output.obj
 0001:00055830       ?state_case_normal@?$output_processor@DV?$stream_output_adapter@D@__crt_stdio_output@@V?$standard_base@DV?$stream_output_adapter@D@__crt_stdio_output@@@2@@__crt_stdio_output@@AAE_NXZ 00456830 f i libucrtd:output.obj
 0001:00055910       ?state_case_normal@?$output_processor@DV?$string_output_adapter@D@__crt_stdio_output@@V?$format_validation_base@DV?$string_output_adapter@D@__crt_stdio_output@@@2@@__crt_stdio_output@@AAE_NXZ 00456910 f i libucrtd:output.obj
 0001:000559f0       ?state_case_normal@?$output_processor@DV?$string_output_adapter@D@__crt_stdio_output@@V?$positional_parameter_base@DV?$string_output_adapter@D@__crt_stdio_output@@@2@@__crt_stdio_output@@AAE_NXZ 004569f0 f i libucrtd:output.obj
 0001:00055ad0       ?state_case_normal@?$output_processor@DV?$string_output_adapter@D@__crt_stdio_output@@V?$standard_base@DV?$string_output_adapter@D@__crt_stdio_output@@@2@@__crt_stdio_output@@AAE_NXZ 00456ad0 f i libucrtd:output.obj
 0001:00055bb0       ?state_case_normal@?$output_processor@_WV?$stream_output_adapter@_W@__crt_stdio_output@@V?$format_validation_base@_WV?$stream_output_adapter@_W@__crt_stdio_output@@@2@@__crt_stdio_output@@AAE_NXZ 00456bb0 f i libucrtd:output.obj
 0001:00055c90       ?state_case_normal@?$output_processor@_WV?$stream_output_adapter@_W@__crt_stdio_output@@V?$positional_parameter_base@_WV?$stream_output_adapter@_W@__crt_stdio_output@@@2@@__crt_stdio_output@@AAE_NXZ 00456c90 f i libucrtd:output.obj
 0001:00055d70       ?state_case_normal@?$output_processor@_WV?$stream_output_adapter@_W@__crt_stdio_output@@V?$standard_base@_WV?$stream_output_adapter@_W@__crt_stdio_output@@@2@@__crt_stdio_output@@AAE_NXZ 00456d70 f i libucrtd:output.obj
 0001:00055e50       ?state_case_normal@?$output_processor@_WV?$string_output_adapter@_W@__crt_stdio_output@@V?$format_validation_base@_WV?$string_output_adapter@_W@__crt_stdio_output@@@2@@__crt_stdio_output@@AAE_NXZ 00456e50 f i libucrtd:output.obj
 0001:00055f30       ?state_case_normal@?$output_processor@_WV?$string_output_adapter@_W@__crt_stdio_output@@V?$positional_parameter_base@_WV?$string_output_adapter@_W@__crt_stdio_output@@@2@@__crt_stdio_output@@AAE_NXZ 00456f30 f i libucrtd:output.obj
 0001:00056010       ?state_case_normal@?$output_processor@_WV?$string_output_adapter@_W@__crt_stdio_output@@V?$standard_base@_WV?$string_output_adapter@_W@__crt_stdio_output@@@2@@__crt_stdio_output@@AAE_NXZ 00457010 f i libucrtd:output.obj
 0001:000560f0       ?state_case_normal_common@?$output_processor@DV?$stream_output_adapter@D@__crt_stdio_output@@V?$format_validation_base@DV?$stream_output_adapter@D@__crt_stdio_output@@@2@@__crt_stdio_output@@AAE_NXZ 004570f0 f i libucrtd:output.obj
 0001:00056150       ?state_case_normal_common@?$output_processor@DV?$stream_output_adapter@D@__crt_stdio_output@@V?$positional_parameter_base@DV?$stream_output_adapter@D@__crt_stdio_output@@@2@@__crt_stdio_output@@AAE_NXZ 00457150 f i libucrtd:output.obj
 0001:000561b0       ?state_case_normal_common@?$output_processor@DV?$stream_output_adapter@D@__crt_stdio_output@@V?$standard_base@DV?$stream_output_adapter@D@__crt_stdio_output@@@2@@__crt_stdio_output@@AAE_NXZ 004571b0 f i libucrtd:output.obj
 0001:00056210       ?state_case_normal_common@?$output_processor@DV?$string_output_adapter@D@__crt_stdio_output@@V?$format_validation_base@DV?$string_output_adapter@D@__crt_stdio_output@@@2@@__crt_stdio_output@@AAE_NXZ 00457210 f i libucrtd:output.obj
 0001:00056270       ?state_case_normal_common@?$output_processor@DV?$string_output_adapter@D@__crt_stdio_output@@V?$positional_parameter_base@DV?$string_output_adapter@D@__crt_stdio_output@@@2@@__crt_stdio_output@@AAE_NXZ 00457270 f i libucrtd:output.obj
 0001:000562d0       ?state_case_normal_common@?$output_processor@DV?$string_output_adapter@D@__crt_stdio_output@@V?$standard_base@DV?$string_output_adapter@D@__crt_stdio_output@@@2@@__crt_stdio_output@@AAE_NXZ 004572d0 f i libucrtd:output.obj
 0001:00056330       ?state_case_normal_common@?$output_processor@_WV?$stream_output_adapter@_W@__crt_stdio_output@@V?$format_validation_base@_WV?$stream_output_adapter@_W@__crt_stdio_output@@@2@@__crt_stdio_output@@AAE_NXZ 00457330 f i libucrtd:output.obj
 0001:00056390       ?state_case_normal_common@?$output_processor@_WV?$stream_output_adapter@_W@__crt_stdio_output@@V?$positional_parameter_base@_WV?$stream_output_adapter@_W@__crt_stdio_output@@@2@@__crt_stdio_output@@AAE_NXZ 00457390 f i libucrtd:output.obj
 0001:000563f0       ?state_case_normal_common@?$output_processor@_WV?$stream_output_adapter@_W@__crt_stdio_output@@V?$standard_base@_WV?$stream_output_adapter@_W@__crt_stdio_output@@@2@@__crt_stdio_output@@AAE_NXZ 004573f0 f i libucrtd:output.obj
 0001:00056450       ?state_case_normal_common@?$output_processor@_WV?$string_output_adapter@_W@__crt_stdio_output@@V?$format_validation_base@_WV?$string_output_adapter@_W@__crt_stdio_output@@@2@@__crt_stdio_output@@AAE_NXZ 00457450 f i libucrtd:output.obj
 0001:000564b0       ?state_case_normal_common@?$output_processor@_WV?$string_output_adapter@_W@__crt_stdio_output@@V?$positional_parameter_base@_WV?$string_output_adapter@_W@__crt_stdio_output@@@2@@__crt_stdio_output@@AAE_NXZ 004574b0 f i libucrtd:output.obj
 0001:00056510       ?state_case_normal_common@?$output_processor@_WV?$string_output_adapter@_W@__crt_stdio_output@@V?$standard_base@_WV?$string_output_adapter@_W@__crt_stdio_output@@@2@@__crt_stdio_output@@AAE_NXZ 00457510 f i libucrtd:output.obj
 0001:00056570       ?state_case_normal_tchar@?$output_processor@DV?$stream_output_adapter@D@__crt_stdio_output@@V?$format_validation_base@DV?$stream_output_adapter@D@__crt_stdio_output@@@2@@__crt_stdio_output@@AAE_ND@Z 00457570 f i libucrtd:output.obj
 0001:000566a0       ?state_case_normal_tchar@?$output_processor@DV?$stream_output_adapter@D@__crt_stdio_output@@V?$positional_parameter_base@DV?$stream_output_adapter@D@__crt_stdio_output@@@2@@__crt_stdio_output@@AAE_ND@Z 004576a0 f i libucrtd:output.obj
 0001:000567d0       ?state_case_normal_tchar@?$output_processor@DV?$stream_output_adapter@D@__crt_stdio_output@@V?$standard_base@DV?$stream_output_adapter@D@__crt_stdio_output@@@2@@__crt_stdio_output@@AAE_ND@Z 004577d0 f i libucrtd:output.obj
 0001:00056900       ?state_case_normal_tchar@?$output_processor@DV?$string_output_adapter@D@__crt_stdio_output@@V?$format_validation_base@DV?$string_output_adapter@D@__crt_stdio_output@@@2@@__crt_stdio_output@@AAE_ND@Z 00457900 f i libucrtd:output.obj
 0001:00056a30       ?state_case_normal_tchar@?$output_processor@DV?$string_output_adapter@D@__crt_stdio_output@@V?$positional_parameter_base@DV?$string_output_adapter@D@__crt_stdio_output@@@2@@__crt_stdio_output@@AAE_ND@Z 00457a30 f i libucrtd:output.obj
 0001:00056b60       ?state_case_normal_tchar@?$output_processor@DV?$string_output_adapter@D@__crt_stdio_output@@V?$standard_base@DV?$string_output_adapter@D@__crt_stdio_output@@@2@@__crt_stdio_output@@AAE_ND@Z 00457b60 f i libucrtd:output.obj
 0001:00056c90       ?state_case_normal_tchar@?$output_processor@_WV?$stream_output_adapter@_W@__crt_stdio_output@@V?$format_validation_base@_WV?$stream_output_adapter@_W@__crt_stdio_output@@@2@@__crt_stdio_output@@AAE_N_W@Z 00457c90 f i libucrtd:output.obj
 0001:00056cb0       ?state_case_normal_tchar@?$output_processor@_WV?$stream_output_adapter@_W@__crt_stdio_output@@V?$positional_parameter_base@_WV?$stream_output_adapter@_W@__crt_stdio_output@@@2@@__crt_stdio_output@@AAE_N_W@Z 00457cb0 f i libucrtd:output.obj
 0001:00056cd0       ?state_case_normal_tchar@?$output_processor@_WV?$stream_output_adapter@_W@__crt_stdio_output@@V?$standard_base@_WV?$stream_output_adapter@_W@__crt_stdio_output@@@2@@__crt_stdio_output@@AAE_N_W@Z 00457cd0 f i libucrtd:output.obj
 0001:00056cf0       ?state_case_normal_tchar@?$output_processor@_WV?$string_output_adapter@_W@__crt_stdio_output@@V?$format_validation_base@_WV?$string_output_adapter@_W@__crt_stdio_output@@@2@@__crt_stdio_output@@AAE_N_W@Z 00457cf0 f i libucrtd:output.obj
 0001:00056d10       ?state_case_normal_tchar@?$output_processor@_WV?$string_output_adapter@_W@__crt_stdio_output@@V?$positional_parameter_base@_WV?$string_output_adapter@_W@__crt_stdio_output@@@2@@__crt_stdio_output@@AAE_N_W@Z 00457d10 f i libucrtd:output.obj
 0001:00056d30       ?state_case_normal_tchar@?$output_processor@_WV?$string_output_adapter@_W@__crt_stdio_output@@V?$standard_base@_WV?$string_output_adapter@_W@__crt_stdio_output@@@2@@__crt_stdio_output@@AAE_N_W@Z 00457d30 f i libucrtd:output.obj
 0001:00056d50       ?state_case_percent@?$output_processor@DV?$stream_output_adapter@D@__crt_stdio_output@@V?$format_validation_base@DV?$stream_output_adapter@D@__crt_stdio_output@@@2@@__crt_stdio_output@@AAE_NXZ 00457d50 f i libucrtd:output.obj
 0001:00056db0       ?state_case_percent@?$output_processor@DV?$stream_output_adapter@D@__crt_stdio_output@@V?$positional_parameter_base@DV?$stream_output_adapter@D@__crt_stdio_output@@@2@@__crt_stdio_output@@AAE_NXZ 00457db0 f i libucrtd:output.obj
 0001:00056e10       ?state_case_percent@?$output_processor@DV?$stream_output_adapter@D@__crt_stdio_output@@V?$standard_base@DV?$stream_output_adapter@D@__crt_stdio_output@@@2@@__crt_stdio_output@@AAE_NXZ 00457e10 f i libucrtd:output.obj
 0001:00056e70       ?state_case_percent@?$output_processor@DV?$string_output_adapter@D@__crt_stdio_output@@V?$format_validation_base@DV?$string_output_adapter@D@__crt_stdio_output@@@2@@__crt_stdio_output@@AAE_NXZ 00457e70 f i libucrtd:output.obj
 0001:00056ed0       ?state_case_percent@?$output_processor@DV?$string_output_adapter@D@__crt_stdio_output@@V?$positional_parameter_base@DV?$string_output_adapter@D@__crt_stdio_output@@@2@@__crt_stdio_output@@AAE_NXZ 00457ed0 f i libucrtd:output.obj
 0001:00056f30       ?state_case_percent@?$output_processor@DV?$string_output_adapter@D@__crt_stdio_output@@V?$standard_base@DV?$string_output_adapter@D@__crt_stdio_output@@@2@@__crt_stdio_output@@AAE_NXZ 00457f30 f i libucrtd:output.obj
 0001:00056f90       ?state_case_percent@?$output_processor@_WV?$stream_output_adapter@_W@__crt_stdio_output@@V?$format_validation_base@_WV?$stream_output_adapter@_W@__crt_stdio_output@@@2@@__crt_stdio_output@@AAE_NXZ 00457f90 f i libucrtd:output.obj
 0001:00056ff0       ?state_case_percent@?$output_processor@_WV?$stream_output_adapter@_W@__crt_stdio_output@@V?$positional_parameter_base@_WV?$stream_output_adapter@_W@__crt_stdio_output@@@2@@__crt_stdio_output@@AAE_NXZ 00457ff0 f i libucrtd:output.obj
 0001:00057050       ?state_case_percent@?$output_processor@_WV?$stream_output_adapter@_W@__crt_stdio_output@@V?$standard_base@_WV?$stream_output_adapter@_W@__crt_stdio_output@@@2@@__crt_stdio_output@@AAE_NXZ 00458050 f i libucrtd:output.obj
 0001:000570b0       ?state_case_percent@?$output_processor@_WV?$string_output_adapter@_W@__crt_stdio_output@@V?$format_validation_base@_WV?$string_output_adapter@_W@__crt_stdio_output@@@2@@__crt_stdio_output@@AAE_NXZ 004580b0 f i libucrtd:output.obj
 0001:00057110       ?state_case_percent@?$output_processor@_WV?$string_output_adapter@_W@__crt_stdio_output@@V?$positional_parameter_base@_WV?$string_output_adapter@_W@__crt_stdio_output@@@2@@__crt_stdio_output@@AAE_NXZ 00458110 f i libucrtd:output.obj
 0001:00057170       ?state_case_percent@?$output_processor@_WV?$string_output_adapter@_W@__crt_stdio_output@@V?$standard_base@_WV?$string_output_adapter@_W@__crt_stdio_output@@@2@@__crt_stdio_output@@AAE_NXZ 00458170 f i libucrtd:output.obj
 0001:000571d0       ?state_case_precision@?$output_processor@DV?$stream_output_adapter@D@__crt_stdio_output@@V?$format_validation_base@DV?$stream_output_adapter@D@__crt_stdio_output@@@2@@__crt_stdio_output@@AAE_NXZ 004581d0 f i libucrtd:output.obj
 0001:00057250       ?state_case_precision@?$output_processor@DV?$stream_output_adapter@D@__crt_stdio_output@@V?$positional_parameter_base@DV?$stream_output_adapter@D@__crt_stdio_output@@@2@@__crt_stdio_output@@AAE_NXZ 00458250 f i libucrtd:output.obj
 0001:000572d0       ?state_case_precision@?$output_processor@DV?$stream_output_adapter@D@__crt_stdio_output@@V?$standard_base@DV?$stream_output_adapter@D@__crt_stdio_output@@@2@@__crt_stdio_output@@AAE_NXZ 004582d0 f i libucrtd:output.obj
 0001:00057350       ?state_case_precision@?$output_processor@DV?$string_output_adapter@D@__crt_stdio_output@@V?$format_validation_base@DV?$string_output_adapter@D@__crt_stdio_output@@@2@@__crt_stdio_output@@AAE_NXZ 00458350 f i libucrtd:output.obj
 0001:000573d0       ?state_case_precision@?$output_processor@DV?$string_output_adapter@D@__crt_stdio_output@@V?$positional_parameter_base@DV?$string_output_adapter@D@__crt_stdio_output@@@2@@__crt_stdio_output@@AAE_NXZ 004583d0 f i libucrtd:output.obj
 0001:00057450       ?state_case_precision@?$output_processor@DV?$string_output_adapter@D@__crt_stdio_output@@V?$standard_base@DV?$string_output_adapter@D@__crt_stdio_output@@@2@@__crt_stdio_output@@AAE_NXZ 00458450 f i libucrtd:output.obj
 0001:000574d0       ?state_case_precision@?$output_processor@_WV?$stream_output_adapter@_W@__crt_stdio_output@@V?$format_validation_base@_WV?$stream_output_adapter@_W@__crt_stdio_output@@@2@@__crt_stdio_output@@AAE_NXZ 004584d0 f i libucrtd:output.obj
 0001:00057550       ?state_case_precision@?$output_processor@_WV?$stream_output_adapter@_W@__crt_stdio_output@@V?$positional_parameter_base@_WV?$stream_output_adapter@_W@__crt_stdio_output@@@2@@__crt_stdio_output@@AAE_NXZ 00458550 f i libucrtd:output.obj
 0001:000575d0       ?state_case_precision@?$output_processor@_WV?$stream_output_adapter@_W@__crt_stdio_output@@V?$standard_base@_WV?$stream_output_adapter@_W@__crt_stdio_output@@@2@@__crt_stdio_output@@AAE_NXZ 004585d0 f i libucrtd:output.obj
 0001:00057650       ?state_case_precision@?$output_processor@_WV?$string_output_adapter@_W@__crt_stdio_output@@V?$format_validation_base@_WV?$string_output_adapter@_W@__crt_stdio_output@@@2@@__crt_stdio_output@@AAE_NXZ 00458650 f i libucrtd:output.obj
 0001:000576d0       ?state_case_precision@?$output_processor@_WV?$string_output_adapter@_W@__crt_stdio_output@@V?$positional_parameter_base@_WV?$string_output_adapter@_W@__crt_stdio_output@@@2@@__crt_stdio_output@@AAE_NXZ 004586d0 f i libucrtd:output.obj
 0001:00057750       ?state_case_precision@?$output_processor@_WV?$string_output_adapter@_W@__crt_stdio_output@@V?$standard_base@_WV?$string_output_adapter@_W@__crt_stdio_output@@@2@@__crt_stdio_output@@AAE_NXZ 00458750 f i libucrtd:output.obj
 0001:000577d0       ?state_case_size@?$output_processor@DV?$stream_output_adapter@D@__crt_stdio_output@@V?$format_validation_base@DV?$stream_output_adapter@D@__crt_stdio_output@@@2@@__crt_stdio_output@@AAE_NXZ 004587d0 f i libucrtd:output.obj
 0001:00057c90       ?state_case_size@?$output_processor@DV?$stream_output_adapter@D@__crt_stdio_output@@V?$positional_parameter_base@DV?$stream_output_adapter@D@__crt_stdio_output@@@2@@__crt_stdio_output@@AAE_NXZ 00458c90 f i libucrtd:output.obj
 0001:00058150       ?state_case_size@?$output_processor@DV?$stream_output_adapter@D@__crt_stdio_output@@V?$standard_base@DV?$stream_output_adapter@D@__crt_stdio_output@@@2@@__crt_stdio_output@@AAE_NXZ 00459150 f i libucrtd:output.obj
 0001:00058610       ?state_case_size@?$output_processor@DV?$string_output_adapter@D@__crt_stdio_output@@V?$format_validation_base@DV?$string_output_adapter@D@__crt_stdio_output@@@2@@__crt_stdio_output@@AAE_NXZ 00459610 f i libucrtd:output.obj
 0001:00058ad0       ?state_case_size@?$output_processor@DV?$string_output_adapter@D@__crt_stdio_output@@V?$positional_parameter_base@DV?$string_output_adapter@D@__crt_stdio_output@@@2@@__crt_stdio_output@@AAE_NXZ 00459ad0 f i libucrtd:output.obj
 0001:00058f90       ?state_case_size@?$output_processor@DV?$string_output_adapter@D@__crt_stdio_output@@V?$standard_base@DV?$string_output_adapter@D@__crt_stdio_output@@@2@@__crt_stdio_output@@AAE_NXZ 00459f90 f i libucrtd:output.obj
 0001:00059450       ?state_case_size@?$output_processor@_WV?$stream_output_adapter@_W@__crt_stdio_output@@V?$format_validation_base@_WV?$stream_output_adapter@_W@__crt_stdio_output@@@2@@__crt_stdio_output@@AAE_NXZ 0045a450 f i libucrtd:output.obj
 0001:00059910       ?state_case_size@?$output_processor@_WV?$stream_output_adapter@_W@__crt_stdio_output@@V?$positional_parameter_base@_WV?$stream_output_adapter@_W@__crt_stdio_output@@@2@@__crt_stdio_output@@AAE_NXZ 0045a910 f i libucrtd:output.obj
 0001:00059dd0       ?state_case_size@?$output_processor@_WV?$stream_output_adapter@_W@__crt_stdio_output@@V?$standard_base@_WV?$stream_output_adapter@_W@__crt_stdio_output@@@2@@__crt_stdio_output@@AAE_NXZ 0045add0 f i libucrtd:output.obj
 0001:0005a290       ?state_case_size@?$output_processor@_WV?$string_output_adapter@_W@__crt_stdio_output@@V?$format_validation_base@_WV?$string_output_adapter@_W@__crt_stdio_output@@@2@@__crt_stdio_output@@AAE_NXZ 0045b290 f i libucrtd:output.obj
 0001:0005a750       ?state_case_size@?$output_processor@_WV?$string_output_adapter@_W@__crt_stdio_output@@V?$positional_parameter_base@_WV?$string_output_adapter@_W@__crt_stdio_output@@@2@@__crt_stdio_output@@AAE_NXZ 0045b750 f i libucrtd:output.obj
 0001:0005ac10       ?state_case_size@?$output_processor@_WV?$string_output_adapter@_W@__crt_stdio_output@@V?$standard_base@_WV?$string_output_adapter@_W@__crt_stdio_output@@@2@@__crt_stdio_output@@AAE_NXZ 0045bc10 f i libucrtd:output.obj
 0001:0005b0d0       ?state_case_type@?$output_processor@DV?$stream_output_adapter@D@__crt_stdio_output@@V?$format_validation_base@DV?$stream_output_adapter@D@__crt_stdio_output@@@2@@__crt_stdio_output@@AAE_NXZ 0045c0d0 f i libucrtd:output.obj
 0001:0005b570       ?state_case_type@?$output_processor@DV?$stream_output_adapter@D@__crt_stdio_output@@V?$positional_parameter_base@DV?$stream_output_adapter@D@__crt_stdio_output@@@2@@__crt_stdio_output@@AAE_NXZ 0045c570 f i libucrtd:output.obj
 0001:0005ba10       ?state_case_type@?$output_processor@DV?$stream_output_adapter@D@__crt_stdio_output@@V?$standard_base@DV?$stream_output_adapter@D@__crt_stdio_output@@@2@@__crt_stdio_output@@AAE_NXZ 0045ca10 f i libucrtd:output.obj
 0001:0005beb0       ?state_case_type@?$output_processor@DV?$string_output_adapter@D@__crt_stdio_output@@V?$format_validation_base@DV?$string_output_adapter@D@__crt_stdio_output@@@2@@__crt_stdio_output@@AAE_NXZ 0045ceb0 f i libucrtd:output.obj
 0001:0005c350       ?state_case_type@?$output_processor@DV?$string_output_adapter@D@__crt_stdio_output@@V?$positional_parameter_base@DV?$string_output_adapter@D@__crt_stdio_output@@@2@@__crt_stdio_output@@AAE_NXZ 0045d350 f i libucrtd:output.obj
 0001:0005c7f0       ?state_case_type@?$output_processor@DV?$string_output_adapter@D@__crt_stdio_output@@V?$standard_base@DV?$string_output_adapter@D@__crt_stdio_output@@@2@@__crt_stdio_output@@AAE_NXZ 0045d7f0 f i libucrtd:output.obj
 0001:0005cc90       ?state_case_type@?$output_processor@_WV?$stream_output_adapter@_W@__crt_stdio_output@@V?$format_validation_base@_WV?$stream_output_adapter@_W@__crt_stdio_output@@@2@@__crt_stdio_output@@AAE_NXZ 0045dc90 f i libucrtd:output.obj
 0001:0005d160       ?state_case_type@?$output_processor@_WV?$stream_output_adapter@_W@__crt_stdio_output@@V?$positional_parameter_base@_WV?$stream_output_adapter@_W@__crt_stdio_output@@@2@@__crt_stdio_output@@AAE_NXZ 0045e160 f i libucrtd:output.obj
 0001:0005d630       ?state_case_type@?$output_processor@_WV?$stream_output_adapter@_W@__crt_stdio_output@@V?$standard_base@_WV?$stream_output_adapter@_W@__crt_stdio_output@@@2@@__crt_stdio_output@@AAE_NXZ 0045e630 f i libucrtd:output.obj
 0001:0005db00       ?state_case_type@?$output_processor@_WV?$string_output_adapter@_W@__crt_stdio_output@@V?$format_validation_base@_WV?$string_output_adapter@_W@__crt_stdio_output@@@2@@__crt_stdio_output@@AAE_NXZ 0045eb00 f i libucrtd:output.obj
 0001:0005dfd0       ?state_case_type@?$output_processor@_WV?$string_output_adapter@_W@__crt_stdio_output@@V?$positional_parameter_base@_WV?$string_output_adapter@_W@__crt_stdio_output@@@2@@__crt_stdio_output@@AAE_NXZ 0045efd0 f i libucrtd:output.obj
 0001:0005e4a0       ?state_case_type@?$output_processor@_WV?$string_output_adapter@_W@__crt_stdio_output@@V?$standard_base@_WV?$string_output_adapter@_W@__crt_stdio_output@@@2@@__crt_stdio_output@@AAE_NXZ 0045f4a0 f i libucrtd:output.obj
 0001:0005e970       ?state_case_width@?$output_processor@DV?$stream_output_adapter@D@__crt_stdio_output@@V?$format_validation_base@DV?$stream_output_adapter@D@__crt_stdio_output@@@2@@__crt_stdio_output@@AAE_NXZ 0045f970 f i libucrtd:output.obj
 0001:0005ea00       ?state_case_width@?$output_processor@DV?$stream_output_adapter@D@__crt_stdio_output@@V?$positional_parameter_base@DV?$stream_output_adapter@D@__crt_stdio_output@@@2@@__crt_stdio_output@@AAE_NXZ 0045fa00 f i libucrtd:output.obj
 0001:0005ea90       ?state_case_width@?$output_processor@DV?$stream_output_adapter@D@__crt_stdio_output@@V?$standard_base@DV?$stream_output_adapter@D@__crt_stdio_output@@@2@@__crt_stdio_output@@AAE_NXZ 0045fa90 f i libucrtd:output.obj
 0001:0005eb20       ?state_case_width@?$output_processor@DV?$string_output_adapter@D@__crt_stdio_output@@V?$format_validation_base@DV?$string_output_adapter@D@__crt_stdio_output@@@2@@__crt_stdio_output@@AAE_NXZ 0045fb20 f i libucrtd:output.obj
 0001:0005ebb0       ?state_case_width@?$output_processor@DV?$string_output_adapter@D@__crt_stdio_output@@V?$positional_parameter_base@DV?$string_output_adapter@D@__crt_stdio_output@@@2@@__crt_stdio_output@@AAE_NXZ 0045fbb0 f i libucrtd:output.obj
 0001:0005ec40       ?state_case_width@?$output_processor@DV?$string_output_adapter@D@__crt_stdio_output@@V?$standard_base@DV?$string_output_adapter@D@__crt_stdio_output@@@2@@__crt_stdio_output@@AAE_NXZ 0045fc40 f i libucrtd:output.obj
 0001:0005ecd0       ?state_case_width@?$output_processor@_WV?$stream_output_adapter@_W@__crt_stdio_output@@V?$format_validation_base@_WV?$stream_output_adapter@_W@__crt_stdio_output@@@2@@__crt_stdio_output@@AAE_NXZ 0045fcd0 f i libucrtd:output.obj
 0001:0005ed60       ?state_case_width@?$output_processor@_WV?$stream_output_adapter@_W@__crt_stdio_output@@V?$positional_parameter_base@_WV?$stream_output_adapter@_W@__crt_stdio_output@@@2@@__crt_stdio_output@@AAE_NXZ 0045fd60 f i libucrtd:output.obj
 0001:0005edf0       ?state_case_width@?$output_processor@_WV?$stream_output_adapter@_W@__crt_stdio_output@@V?$standard_base@_WV?$stream_output_adapter@_W@__crt_stdio_output@@@2@@__crt_stdio_output@@AAE_NXZ 0045fdf0 f i libucrtd:output.obj
 0001:0005ee80       ?state_case_width@?$output_processor@_WV?$string_output_adapter@_W@__crt_stdio_output@@V?$format_validation_base@_WV?$string_output_adapter@_W@__crt_stdio_output@@@2@@__crt_stdio_output@@AAE_NXZ 0045fe80 f i libucrtd:output.obj
 0001:0005ef10       ?state_case_width@?$output_processor@_WV?$string_output_adapter@_W@__crt_stdio_output@@V?$positional_parameter_base@_WV?$string_output_adapter@_W@__crt_stdio_output@@@2@@__crt_stdio_output@@AAE_NXZ 0045ff10 f i libucrtd:output.obj
 0001:0005efa0       ?state_case_width@?$output_processor@_WV?$string_output_adapter@_W@__crt_stdio_output@@V?$standard_base@_WV?$string_output_adapter@_W@__crt_stdio_output@@@2@@__crt_stdio_output@@AAE_NXZ 0045ffa0 f i libucrtd:output.obj
 0001:0005f030       ?state_count@?$format_validation_base@DV?$stream_output_adapter@D@__crt_stdio_output@@@__crt_stdio_output@@KAIXZ 00460030 f i libucrtd:output.obj
 0001:0005f040       ?state_count@?$format_validation_base@DV?$string_output_adapter@D@__crt_stdio_output@@@__crt_stdio_output@@KAIXZ 00460040 f i libucrtd:output.obj
 0001:0005f050       ?state_count@?$format_validation_base@_WV?$stream_output_adapter@_W@__crt_stdio_output@@@__crt_stdio_output@@KAIXZ 00460050 f i libucrtd:output.obj
 0001:0005f060       ?state_count@?$format_validation_base@_WV?$string_output_adapter@_W@__crt_stdio_output@@@__crt_stdio_output@@KAIXZ 00460060 f i libucrtd:output.obj
 0001:0005f070       ?state_count@?$standard_base@DV?$stream_output_adapter@D@__crt_stdio_output@@@__crt_stdio_output@@KAIXZ 00460070 f i libucrtd:output.obj
 0001:0005f080       ?state_count@?$standard_base@DV?$string_output_adapter@D@__crt_stdio_output@@@__crt_stdio_output@@KAIXZ 00460080 f i libucrtd:output.obj
 0001:0005f090       ?state_count@?$standard_base@_WV?$stream_output_adapter@_W@__crt_stdio_output@@@__crt_stdio_output@@KAIXZ 00460090 f i libucrtd:output.obj
 0001:0005f0a0       ?state_count@?$standard_base@_WV?$string_output_adapter@_W@__crt_stdio_output@@@__crt_stdio_output@@KAIXZ 004600a0 f i libucrtd:output.obj
 0001:0005f0b0       ?state_transition_table@?$format_validation_base@DV?$stream_output_adapter@D@__crt_stdio_output@@@__crt_stdio_output@@KAPBEXZ 004600b0 f i libucrtd:output.obj
 0001:0005f0c0       ?state_transition_table@?$format_validation_base@DV?$string_output_adapter@D@__crt_stdio_output@@@__crt_stdio_output@@KAPBEXZ 004600c0 f i libucrtd:output.obj
 0001:0005f0d0       ?state_transition_table@?$format_validation_base@_WV?$stream_output_adapter@_W@__crt_stdio_output@@@__crt_stdio_output@@KAPBEXZ 004600d0 f i libucrtd:output.obj
 0001:0005f0e0       ?state_transition_table@?$format_validation_base@_WV?$string_output_adapter@_W@__crt_stdio_output@@@__crt_stdio_output@@KAPBEXZ 004600e0 f i libucrtd:output.obj
 0001:0005f0f0       ?state_transition_table@?$standard_base@DV?$stream_output_adapter@D@__crt_stdio_output@@@__crt_stdio_output@@KAPBEXZ 004600f0 f i libucrtd:output.obj
 0001:0005f100       ?state_transition_table@?$standard_base@DV?$string_output_adapter@D@__crt_stdio_output@@@__crt_stdio_output@@KAPBEXZ 00460100 f i libucrtd:output.obj
 0001:0005f110       ?state_transition_table@?$standard_base@_WV?$stream_output_adapter@_W@__crt_stdio_output@@@__crt_stdio_output@@KAPBEXZ 00460110 f i libucrtd:output.obj
 0001:0005f120       ?state_transition_table@?$standard_base@_WV?$string_output_adapter@_W@__crt_stdio_output@@@__crt_stdio_output@@KAPBEXZ 00460120 f i libucrtd:output.obj
 0001:0005f130       ?to_integer_size@__crt_stdio_output@@YAIW4length_modifier@1@@Z 00460130 f i libucrtd:output.obj
 0001:0005f200       ?type_case_X@?$output_processor@DV?$stream_output_adapter@D@__crt_stdio_output@@V?$format_validation_base@DV?$stream_output_adapter@D@__crt_stdio_output@@@2@@__crt_stdio_output@@AAE_NXZ 00460200 f i libucrtd:output.obj
 0001:0005f220       ?type_case_X@?$output_processor@DV?$stream_output_adapter@D@__crt_stdio_output@@V?$positional_parameter_base@DV?$stream_output_adapter@D@__crt_stdio_output@@@2@@__crt_stdio_output@@AAE_NXZ 00460220 f i libucrtd:output.obj
 0001:0005f240       ?type_case_X@?$output_processor@DV?$stream_output_adapter@D@__crt_stdio_output@@V?$standard_base@DV?$stream_output_adapter@D@__crt_stdio_output@@@2@@__crt_stdio_output@@AAE_NXZ 00460240 f i libucrtd:output.obj
 0001:0005f260       ?type_case_X@?$output_processor@DV?$string_output_adapter@D@__crt_stdio_output@@V?$format_validation_base@DV?$string_output_adapter@D@__crt_stdio_output@@@2@@__crt_stdio_output@@AAE_NXZ 00460260 f i libucrtd:output.obj
 0001:0005f280       ?type_case_X@?$output_processor@DV?$string_output_adapter@D@__crt_stdio_output@@V?$positional_parameter_base@DV?$string_output_adapter@D@__crt_stdio_output@@@2@@__crt_stdio_output@@AAE_NXZ 00460280 f i libucrtd:output.obj
 0001:0005f2a0       ?type_case_X@?$output_processor@DV?$string_output_adapter@D@__crt_stdio_output@@V?$standard_base@DV?$string_output_adapter@D@__crt_stdio_output@@@2@@__crt_stdio_output@@AAE_NXZ 004602a0 f i libucrtd:output.obj
 0001:0005f2c0       ?type_case_X@?$output_processor@_WV?$stream_output_adapter@_W@__crt_stdio_output@@V?$format_validation_base@_WV?$stream_output_adapter@_W@__crt_stdio_output@@@2@@__crt_stdio_output@@AAE_NXZ 004602c0 f i libucrtd:output.obj
 0001:0005f2e0       ?type_case_X@?$output_processor@_WV?$stream_output_adapter@_W@__crt_stdio_output@@V?$positional_parameter_base@_WV?$stream_output_adapter@_W@__crt_stdio_output@@@2@@__crt_stdio_output@@AAE_NXZ 004602e0 f i libucrtd:output.obj
 0001:0005f300       ?type_case_X@?$output_processor@_WV?$stream_output_adapter@_W@__crt_stdio_output@@V?$standard_base@_WV?$stream_output_adapter@_W@__crt_stdio_output@@@2@@__crt_stdio_output@@AAE_NXZ 00460300 f i libucrtd:output.obj
 0001:0005f320       ?type_case_X@?$output_processor@_WV?$string_output_adapter@_W@__crt_stdio_output@@V?$format_validation_base@_WV?$string_output_adapter@_W@__crt_stdio_output@@@2@@__crt_stdio_output@@AAE_NXZ 00460320 f i libucrtd:output.obj
 0001:0005f340       ?type_case_X@?$output_processor@_WV?$string_output_adapter@_W@__crt_stdio_output@@V?$positional_parameter_base@_WV?$string_output_adapter@_W@__crt_stdio_output@@@2@@__crt_stdio_output@@AAE_NXZ 00460340 f i libucrtd:output.obj
 0001:0005f360       ?type_case_X@?$output_processor@_WV?$string_output_adapter@_W@__crt_stdio_output@@V?$standard_base@_WV?$string_output_adapter@_W@__crt_stdio_output@@@2@@__crt_stdio_output@@AAE_NXZ 00460360 f i libucrtd:output.obj
 0001:0005f380       ?type_case_Z@?$output_processor@DV?$stream_output_adapter@D@__crt_stdio_output@@V?$format_validation_base@DV?$stream_output_adapter@D@__crt_stdio_output@@@2@@__crt_stdio_output@@AAE_NXZ 00460380 f i libucrtd:output.obj
 0001:0005f4b0       ?type_case_Z@?$output_processor@DV?$stream_output_adapter@D@__crt_stdio_output@@V?$positional_parameter_base@DV?$stream_output_adapter@D@__crt_stdio_output@@@2@@__crt_stdio_output@@AAE_NXZ 004604b0 f i libucrtd:output.obj
 0001:0005f5e0       ?type_case_Z@?$output_processor@DV?$stream_output_adapter@D@__crt_stdio_output@@V?$standard_base@DV?$stream_output_adapter@D@__crt_stdio_output@@@2@@__crt_stdio_output@@AAE_NXZ 004605e0 f i libucrtd:output.obj
 0001:0005f710       ?type_case_Z@?$output_processor@DV?$string_output_adapter@D@__crt_stdio_output@@V?$format_validation_base@DV?$string_output_adapter@D@__crt_stdio_output@@@2@@__crt_stdio_output@@AAE_NXZ 00460710 f i libucrtd:output.obj
 0001:0005f840       ?type_case_Z@?$output_processor@DV?$string_output_adapter@D@__crt_stdio_output@@V?$positional_parameter_base@DV?$string_output_adapter@D@__crt_stdio_output@@@2@@__crt_stdio_output@@AAE_NXZ 00460840 f i libucrtd:output.obj
 0001:0005f970       ?type_case_Z@?$output_processor@DV?$string_output_adapter@D@__crt_stdio_output@@V?$standard_base@DV?$string_output_adapter@D@__crt_stdio_output@@@2@@__crt_stdio_output@@AAE_NXZ 00460970 f i libucrtd:output.obj
 0001:0005faa0       ?type_case_Z@?$output_processor@_WV?$stream_output_adapter@_W@__crt_stdio_output@@V?$format_validation_base@_WV?$stream_output_adapter@_W@__crt_stdio_output@@@2@@__crt_stdio_output@@AAE_NXZ 00460aa0 f i libucrtd:output.obj
 0001:0005fbd0       ?type_case_Z@?$output_processor@_WV?$stream_output_adapter@_W@__crt_stdio_output@@V?$positional_parameter_base@_WV?$stream_output_adapter@_W@__crt_stdio_output@@@2@@__crt_stdio_output@@AAE_NXZ 00460bd0 f i libucrtd:output.obj
 0001:0005fd00       ?type_case_Z@?$output_processor@_WV?$stream_output_adapter@_W@__crt_stdio_output@@V?$standard_base@_WV?$stream_output_adapter@_W@__crt_stdio_output@@@2@@__crt_stdio_output@@AAE_NXZ 00460d00 f i libucrtd:output.obj
 0001:0005fe30       ?type_case_Z@?$output_processor@_WV?$string_output_adapter@_W@__crt_stdio_output@@V?$format_validation_base@_WV?$string_output_adapter@_W@__crt_stdio_output@@@2@@__crt_stdio_output@@AAE_NXZ 00460e30 f i libucrtd:output.obj
 0001:0005ff60       ?type_case_Z@?$output_processor@_WV?$string_output_adapter@_W@__crt_stdio_output@@V?$positional_parameter_base@_WV?$string_output_adapter@_W@__crt_stdio_output@@@2@@__crt_stdio_output@@AAE_NXZ 00460f60 f i libucrtd:output.obj
 0001:00060090       ?type_case_Z@?$output_processor@_WV?$string_output_adapter@_W@__crt_stdio_output@@V?$standard_base@_WV?$string_output_adapter@_W@__crt_stdio_output@@@2@@__crt_stdio_output@@AAE_NXZ 00461090 f i libucrtd:output.obj
 0001:000601c0       ?type_case_a@?$output_processor@DV?$stream_output_adapter@D@__crt_stdio_output@@V?$format_validation_base@DV?$stream_output_adapter@D@__crt_stdio_output@@@2@@__crt_stdio_output@@AAE_NXZ 004611c0 f i libucrtd:output.obj
 0001:000604b0       ?type_case_a@?$output_processor@DV?$stream_output_adapter@D@__crt_stdio_output@@V?$positional_parameter_base@DV?$stream_output_adapter@D@__crt_stdio_output@@@2@@__crt_stdio_output@@AAE_NXZ 004614b0 f i libucrtd:output.obj
 0001:000607a0       ?type_case_a@?$output_processor@DV?$stream_output_adapter@D@__crt_stdio_output@@V?$standard_base@DV?$stream_output_adapter@D@__crt_stdio_output@@@2@@__crt_stdio_output@@AAE_NXZ 004617a0 f i libucrtd:output.obj
 0001:00060a90       ?type_case_a@?$output_processor@DV?$string_output_adapter@D@__crt_stdio_output@@V?$format_validation_base@DV?$string_output_adapter@D@__crt_stdio_output@@@2@@__crt_stdio_output@@AAE_NXZ 00461a90 f i libucrtd:output.obj
 0001:00060d80       ?type_case_a@?$output_processor@DV?$string_output_adapter@D@__crt_stdio_output@@V?$positional_parameter_base@DV?$string_output_adapter@D@__crt_stdio_output@@@2@@__crt_stdio_output@@AAE_NXZ 00461d80 f i libucrtd:output.obj
 0001:00061070       ?type_case_a@?$output_processor@DV?$string_output_adapter@D@__crt_stdio_output@@V?$standard_base@DV?$string_output_adapter@D@__crt_stdio_output@@@2@@__crt_stdio_output@@AAE_NXZ 00462070 f i libucrtd:output.obj
 0001:00061360       ?type_case_a@?$output_processor@_WV?$stream_output_adapter@_W@__crt_stdio_output@@V?$format_validation_base@_WV?$stream_output_adapter@_W@__crt_stdio_output@@@2@@__crt_stdio_output@@AAE_NXZ 00462360 f i libucrtd:output.obj
 0001:00061660       ?type_case_a@?$output_processor@_WV?$stream_output_adapter@_W@__crt_stdio_output@@V?$positional_parameter_base@_WV?$stream_output_adapter@_W@__crt_stdio_output@@@2@@__crt_stdio_output@@AAE_NXZ 00462660 f i libucrtd:output.obj
 0001:00061960       ?type_case_a@?$output_processor@_WV?$stream_output_adapter@_W@__crt_stdio_output@@V?$standard_base@_WV?$stream_output_adapter@_W@__crt_stdio_output@@@2@@__crt_stdio_output@@AAE_NXZ 00462960 f i libucrtd:output.obj
 0001:00061c60       ?type_case_a@?$output_processor@_WV?$string_output_adapter@_W@__crt_stdio_output@@V?$format_validation_base@_WV?$string_output_adapter@_W@__crt_stdio_output@@@2@@__crt_stdio_output@@AAE_NXZ 00462c60 f i libucrtd:output.obj
 0001:00061f60       ?type_case_a@?$output_processor@_WV?$string_output_adapter@_W@__crt_stdio_output@@V?$positional_parameter_base@_WV?$string_output_adapter@_W@__crt_stdio_output@@@2@@__crt_stdio_output@@AAE_NXZ 00462f60 f i libucrtd:output.obj
 0001:00062260       ?type_case_a@?$output_processor@_WV?$string_output_adapter@_W@__crt_stdio_output@@V?$standard_base@_WV?$string_output_adapter@_W@__crt_stdio_output@@@2@@__crt_stdio_output@@AAE_NXZ 00463260 f i libucrtd:output.obj
 0001:00062560       ?type_case_c@?$output_processor@DV?$stream_output_adapter@D@__crt_stdio_output@@V?$format_validation_base@DV?$stream_output_adapter@D@__crt_stdio_output@@@2@@__crt_stdio_output@@AAE_NXZ 00463560 f i libucrtd:output.obj
 0001:00062580       ?type_case_c@?$output_processor@DV?$stream_output_adapter@D@__crt_stdio_output@@V?$positional_parameter_base@DV?$stream_output_adapter@D@__crt_stdio_output@@@2@@__crt_stdio_output@@AAE_NXZ 00463580 f i libucrtd:output.obj
 0001:000625a0       ?type_case_c@?$output_processor@DV?$stream_output_adapter@D@__crt_stdio_output@@V?$standard_base@DV?$stream_output_adapter@D@__crt_stdio_output@@@2@@__crt_stdio_output@@AAE_NXZ 004635a0 f i libucrtd:output.obj
 0001:000625c0       ?type_case_c@?$output_processor@DV?$string_output_adapter@D@__crt_stdio_output@@V?$format_validation_base@DV?$string_output_adapter@D@__crt_stdio_output@@@2@@__crt_stdio_output@@AAE_NXZ 004635c0 f i libucrtd:output.obj
 0001:000625e0       ?type_case_c@?$output_processor@DV?$string_output_adapter@D@__crt_stdio_output@@V?$positional_parameter_base@DV?$string_output_adapter@D@__crt_stdio_output@@@2@@__crt_stdio_output@@AAE_NXZ 004635e0 f i libucrtd:output.obj
 0001:00062600       ?type_case_c@?$output_processor@DV?$string_output_adapter@D@__crt_stdio_output@@V?$standard_base@DV?$string_output_adapter@D@__crt_stdio_output@@@2@@__crt_stdio_output@@AAE_NXZ 00463600 f i libucrtd:output.obj
 0001:00062620       ?type_case_c@?$output_processor@_WV?$stream_output_adapter@_W@__crt_stdio_output@@V?$format_validation_base@_WV?$stream_output_adapter@_W@__crt_stdio_output@@@2@@__crt_stdio_output@@AAE_NXZ 00463620 f i libucrtd:output.obj
 0001:00062640       ?type_case_c@?$output_processor@_WV?$stream_output_adapter@_W@__crt_stdio_output@@V?$positional_parameter_base@_WV?$stream_output_adapter@_W@__crt_stdio_output@@@2@@__crt_stdio_output@@AAE_NXZ 00463640 f i libucrtd:output.obj
 0001:00062660       ?type_case_c@?$output_processor@_WV?$stream_output_adapter@_W@__crt_stdio_output@@V?$standard_base@_WV?$stream_output_adapter@_W@__crt_stdio_output@@@2@@__crt_stdio_output@@AAE_NXZ 00463660 f i libucrtd:output.obj
 0001:00062680       ?type_case_c@?$output_processor@_WV?$string_output_adapter@_W@__crt_stdio_output@@V?$format_validation_base@_WV?$string_output_adapter@_W@__crt_stdio_output@@@2@@__crt_stdio_output@@AAE_NXZ 00463680 f i libucrtd:output.obj
 0001:000626a0       ?type_case_c@?$output_processor@_WV?$string_output_adapter@_W@__crt_stdio_output@@V?$positional_parameter_base@_WV?$string_output_adapter@_W@__crt_stdio_output@@@2@@__crt_stdio_output@@AAE_NXZ 004636a0 f i libucrtd:output.obj
 0001:000626c0       ?type_case_c@?$output_processor@_WV?$string_output_adapter@_W@__crt_stdio_output@@V?$standard_base@_WV?$string_output_adapter@_W@__crt_stdio_output@@@2@@__crt_stdio_output@@AAE_NXZ 004636c0 f i libucrtd:output.obj
 0001:000626e0       ?type_case_c_tchar@?$output_processor@DV?$stream_output_adapter@D@__crt_stdio_output@@V?$format_validation_base@DV?$stream_output_adapter@D@__crt_stdio_output@@@2@@__crt_stdio_output@@AAE_ND@Z 004636e0 f i libucrtd:output.obj
 0001:00062830       ?type_case_c_tchar@?$output_processor@DV?$stream_output_adapter@D@__crt_stdio_output@@V?$positional_parameter_base@DV?$stream_output_adapter@D@__crt_stdio_output@@@2@@__crt_stdio_output@@AAE_ND@Z 00463830 f i libucrtd:output.obj
 0001:00062980       ?type_case_c_tchar@?$output_processor@DV?$stream_output_adapter@D@__crt_stdio_output@@V?$standard_base@DV?$stream_output_adapter@D@__crt_stdio_output@@@2@@__crt_stdio_output@@AAE_ND@Z 00463980 f i libucrtd:output.obj
 0001:00062ad0       ?type_case_c_tchar@?$output_processor@DV?$string_output_adapter@D@__crt_stdio_output@@V?$format_validation_base@DV?$string_output_adapter@D@__crt_stdio_output@@@2@@__crt_stdio_output@@AAE_ND@Z 00463ad0 f i libucrtd:output.obj
 0001:00062c20       ?type_case_c_tchar@?$output_processor@DV?$string_output_adapter@D@__crt_stdio_output@@V?$positional_parameter_base@DV?$string_output_adapter@D@__crt_stdio_output@@@2@@__crt_stdio_output@@AAE_ND@Z 00463c20 f i libucrtd:output.obj
 0001:00062d70       ?type_case_c_tchar@?$output_processor@DV?$string_output_adapter@D@__crt_stdio_output@@V?$standard_base@DV?$string_output_adapter@D@__crt_stdio_output@@@2@@__crt_stdio_output@@AAE_ND@Z 00463d70 f i libucrtd:output.obj
 0001:00062ec0       ?type_case_c_tchar@?$output_processor@_WV?$stream_output_adapter@_W@__crt_stdio_output@@V?$format_validation_base@_WV?$stream_output_adapter@_W@__crt_stdio_output@@@2@@__crt_stdio_output@@AAE_N_W@Z 00463ec0 f i libucrtd:output.obj
 0001:00063000       ?type_case_c_tchar@?$output_processor@_WV?$stream_output_adapter@_W@__crt_stdio_output@@V?$positional_parameter_base@_WV?$stream_output_adapter@_W@__crt_stdio_output@@@2@@__crt_stdio_output@@AAE_N_W@Z 00464000 f i libucrtd:output.obj
 0001:00063140       ?type_case_c_tchar@?$output_processor@_WV?$stream_output_adapter@_W@__crt_stdio_output@@V?$standard_base@_WV?$stream_output_adapter@_W@__crt_stdio_output@@@2@@__crt_stdio_output@@AAE_N_W@Z 00464140 f i libucrtd:output.obj
 0001:00063280       ?type_case_c_tchar@?$output_processor@_WV?$string_output_adapter@_W@__crt_stdio_output@@V?$format_validation_base@_WV?$string_output_adapter@_W@__crt_stdio_output@@@2@@__crt_stdio_output@@AAE_N_W@Z 00464280 f i libucrtd:output.obj
 0001:000633c0       ?type_case_c_tchar@?$output_processor@_WV?$string_output_adapter@_W@__crt_stdio_output@@V?$positional_parameter_base@_WV?$string_output_adapter@_W@__crt_stdio_output@@@2@@__crt_stdio_output@@AAE_N_W@Z 004643c0 f i libucrtd:output.obj
 0001:00063500       ?type_case_c_tchar@?$output_processor@_WV?$string_output_adapter@_W@__crt_stdio_output@@V?$standard_base@_WV?$string_output_adapter@_W@__crt_stdio_output@@@2@@__crt_stdio_output@@AAE_N_W@Z 00464500 f i libucrtd:output.obj
 0001:00063640       ?type_case_d@?$output_processor@DV?$stream_output_adapter@D@__crt_stdio_output@@V?$format_validation_base@DV?$stream_output_adapter@D@__crt_stdio_output@@@2@@__crt_stdio_output@@AAE_NXZ 00464640 f i libucrtd:output.obj
 0001:00063670       ?type_case_d@?$output_processor@DV?$stream_output_adapter@D@__crt_stdio_output@@V?$positional_parameter_base@DV?$stream_output_adapter@D@__crt_stdio_output@@@2@@__crt_stdio_output@@AAE_NXZ 00464670 f i libucrtd:output.obj
 0001:000636a0       ?type_case_d@?$output_processor@DV?$stream_output_adapter@D@__crt_stdio_output@@V?$standard_base@DV?$stream_output_adapter@D@__crt_stdio_output@@@2@@__crt_stdio_output@@AAE_NXZ 004646a0 f i libucrtd:output.obj
 0001:000636d0       ?type_case_d@?$output_processor@DV?$string_output_adapter@D@__crt_stdio_output@@V?$format_validation_base@DV?$string_output_adapter@D@__crt_stdio_output@@@2@@__crt_stdio_output@@AAE_NXZ 004646d0 f i libucrtd:output.obj
 0001:00063700       ?type_case_d@?$output_processor@DV?$string_output_adapter@D@__crt_stdio_output@@V?$positional_parameter_base@DV?$string_output_adapter@D@__crt_stdio_output@@@2@@__crt_stdio_output@@AAE_NXZ 00464700 f i libucrtd:output.obj
 0001:00063730       ?type_case_d@?$output_processor@DV?$string_output_adapter@D@__crt_stdio_output@@V?$standard_base@DV?$string_output_adapter@D@__crt_stdio_output@@@2@@__crt_stdio_output@@AAE_NXZ 00464730 f i libucrtd:output.obj
 0001:00063760       ?type_case_d@?$output_processor@_WV?$stream_output_adapter@_W@__crt_stdio_output@@V?$format_validation_base@_WV?$stream_output_adapter@_W@__crt_stdio_output@@@2@@__crt_stdio_output@@AAE_NXZ 00464760 f i libucrtd:output.obj
 0001:00063790       ?type_case_d@?$output_processor@_WV?$stream_output_adapter@_W@__crt_stdio_output@@V?$positional_parameter_base@_WV?$stream_output_adapter@_W@__crt_stdio_output@@@2@@__crt_stdio_output@@AAE_NXZ 00464790 f i libucrtd:output.obj
 0001:000637c0       ?type_case_d@?$output_processor@_WV?$stream_output_adapter@_W@__crt_stdio_output@@V?$standard_base@_WV?$stream_output_adapter@_W@__crt_stdio_output@@@2@@__crt_stdio_output@@AAE_NXZ 004647c0 f i libucrtd:output.obj
 0001:000637f0       ?type_case_d@?$output_processor@_WV?$string_output_adapter@_W@__crt_stdio_output@@V?$format_validation_base@_WV?$string_output_adapter@_W@__crt_stdio_output@@@2@@__crt_stdio_output@@AAE_NXZ 004647f0 f i libucrtd:output.obj
 0001:00063820       ?type_case_d@?$output_processor@_WV?$string_output_adapter@_W@__crt_stdio_output@@V?$positional_parameter_base@_WV?$string_output_adapter@_W@__crt_stdio_output@@@2@@__crt_stdio_output@@AAE_NXZ 00464820 f i libucrtd:output.obj
 0001:00063850       ?type_case_d@?$output_processor@_WV?$string_output_adapter@_W@__crt_stdio_output@@V?$standard_base@_WV?$string_output_adapter@_W@__crt_stdio_output@@@2@@__crt_stdio_output@@AAE_NXZ 00464850 f i libucrtd:output.obj
 0001:00063880       ?type_case_integer@?$output_processor@DV?$stream_output_adapter@D@__crt_stdio_output@@V?$format_validation_base@DV?$stream_output_adapter@D@__crt_stdio_output@@@2@@__crt_stdio_output@@AAE_NI_N@Z 00464880 f i libucrtd:output.obj
 0001:00063c90       ?type_case_integer@?$output_processor@DV?$stream_output_adapter@D@__crt_stdio_output@@V?$positional_parameter_base@DV?$stream_output_adapter@D@__crt_stdio_output@@@2@@__crt_stdio_output@@AAE_NI_N@Z 00464c90 f i libucrtd:output.obj
 0001:000640a0       ?type_case_integer@?$output_processor@DV?$stream_output_adapter@D@__crt_stdio_output@@V?$standard_base@DV?$stream_output_adapter@D@__crt_stdio_output@@@2@@__crt_stdio_output@@AAE_NI_N@Z 004650a0 f i libucrtd:output.obj
 0001:000644b0       ?type_case_integer@?$output_processor@DV?$string_output_adapter@D@__crt_stdio_output@@V?$format_validation_base@DV?$string_output_adapter@D@__crt_stdio_output@@@2@@__crt_stdio_output@@AAE_NI_N@Z 004654b0 f i libucrtd:output.obj
 0001:000648c0       ?type_case_integer@?$output_processor@DV?$string_output_adapter@D@__crt_stdio_output@@V?$positional_parameter_base@DV?$string_output_adapter@D@__crt_stdio_output@@@2@@__crt_stdio_output@@AAE_NI_N@Z 004658c0 f i libucrtd:output.obj
 0001:00064cd0       ?type_case_integer@?$output_processor@DV?$string_output_adapter@D@__crt_stdio_output@@V?$standard_base@DV?$string_output_adapter@D@__crt_stdio_output@@@2@@__crt_stdio_output@@AAE_NI_N@Z 00465cd0 f i libucrtd:output.obj
 0001:000650e0       ?type_case_integer@?$output_processor@_WV?$stream_output_adapter@_W@__crt_stdio_output@@V?$format_validation_base@_WV?$stream_output_adapter@_W@__crt_stdio_output@@@2@@__crt_stdio_output@@AAE_NI_N@Z 004660e0 f i libucrtd:output.obj
 0001:000654f0       ?type_case_integer@?$output_processor@_WV?$stream_output_adapter@_W@__crt_stdio_output@@V?$positional_parameter_base@_WV?$stream_output_adapter@_W@__crt_stdio_output@@@2@@__crt_stdio_output@@AAE_NI_N@Z 004664f0 f i libucrtd:output.obj
 0001:00065900       ?type_case_integer@?$output_processor@_WV?$stream_output_adapter@_W@__crt_stdio_output@@V?$standard_base@_WV?$stream_output_adapter@_W@__crt_stdio_output@@@2@@__crt_stdio_output@@AAE_NI_N@Z 00466900 f i libucrtd:output.obj
 0001:00065d10       ?type_case_integer@?$output_processor@_WV?$string_output_adapter@_W@__crt_stdio_output@@V?$format_validation_base@_WV?$string_output_adapter@_W@__crt_stdio_output@@@2@@__crt_stdio_output@@AAE_NI_N@Z 00466d10 f i libucrtd:output.obj
 0001:00066120       ?type_case_integer@?$output_processor@_WV?$string_output_adapter@_W@__crt_stdio_output@@V?$positional_parameter_base@_WV?$string_output_adapter@_W@__crt_stdio_output@@@2@@__crt_stdio_output@@AAE_NI_N@Z 00467120 f i libucrtd:output.obj
 0001:00066530       ?type_case_integer@?$output_processor@_WV?$string_output_adapter@_W@__crt_stdio_output@@V?$standard_base@_WV?$string_output_adapter@_W@__crt_stdio_output@@@2@@__crt_stdio_output@@AAE_NI_N@Z 00467530 f i libucrtd:output.obj
 0001:00066940       ?type_case_n@?$output_processor@DV?$stream_output_adapter@D@__crt_stdio_output@@V?$format_validation_base@DV?$stream_output_adapter@D@__crt_stdio_output@@@2@@__crt_stdio_output@@AAE_NXZ 00467940 f i libucrtd:output.obj
 0001:00066bb0       ?type_case_n@?$output_processor@DV?$stream_output_adapter@D@__crt_stdio_output@@V?$positional_parameter_base@DV?$stream_output_adapter@D@__crt_stdio_output@@@2@@__crt_stdio_output@@AAE_NXZ 00467bb0 f i libucrtd:output.obj
 0001:00066e20       ?type_case_n@?$output_processor@DV?$stream_output_adapter@D@__crt_stdio_output@@V?$standard_base@DV?$stream_output_adapter@D@__crt_stdio_output@@@2@@__crt_stdio_output@@AAE_NXZ 00467e20 f i libucrtd:output.obj
 0001:00067090       ?type_case_n@?$output_processor@DV?$string_output_adapter@D@__crt_stdio_output@@V?$format_validation_base@DV?$string_output_adapter@D@__crt_stdio_output@@@2@@__crt_stdio_output@@AAE_NXZ 00468090 f i libucrtd:output.obj
 0001:00067300       ?type_case_n@?$output_processor@DV?$string_output_adapter@D@__crt_stdio_output@@V?$positional_parameter_base@DV?$string_output_adapter@D@__crt_stdio_output@@@2@@__crt_stdio_output@@AAE_NXZ 00468300 f i libucrtd:output.obj
 0001:00067570       ?type_case_n@?$output_processor@DV?$string_output_adapter@D@__crt_stdio_output@@V?$standard_base@DV?$string_output_adapter@D@__crt_stdio_output@@@2@@__crt_stdio_output@@AAE_NXZ 00468570 f i libucrtd:output.obj
 0001:000677e0       ?type_case_n@?$output_processor@_WV?$stream_output_adapter@_W@__crt_stdio_output@@V?$format_validation_base@_WV?$stream_output_adapter@_W@__crt_stdio_output@@@2@@__crt_stdio_output@@AAE_NXZ 004687e0 f i libucrtd:output.obj
 0001:00067a50       ?type_case_n@?$output_processor@_WV?$stream_output_adapter@_W@__crt_stdio_output@@V?$positional_parameter_base@_WV?$stream_output_adapter@_W@__crt_stdio_output@@@2@@__crt_stdio_output@@AAE_NXZ 00468a50 f i libucrtd:output.obj
 0001:00067cc0       ?type_case_n@?$output_processor@_WV?$stream_output_adapter@_W@__crt_stdio_output@@V?$standard_base@_WV?$stream_output_adapter@_W@__crt_stdio_output@@@2@@__crt_stdio_output@@AAE_NXZ 00468cc0 f i libucrtd:output.obj
 0001:00067f30       ?type_case_n@?$output_processor@_WV?$string_output_adapter@_W@__crt_stdio_output@@V?$format_validation_base@_WV?$string_output_adapter@_W@__crt_stdio_output@@@2@@__crt_stdio_output@@AAE_NXZ 00468f30 f i libucrtd:output.obj
 0001:000681a0       ?type_case_n@?$output_processor@_WV?$string_output_adapter@_W@__crt_stdio_output@@V?$positional_parameter_base@_WV?$string_output_adapter@_W@__crt_stdio_output@@@2@@__crt_stdio_output@@AAE_NXZ 004691a0 f i libucrtd:output.obj
 0001:00068410       ?type_case_n@?$output_processor@_WV?$string_output_adapter@_W@__crt_stdio_output@@V?$standard_base@_WV?$string_output_adapter@_W@__crt_stdio_output@@@2@@__crt_stdio_output@@AAE_NXZ 00469410 f i libucrtd:output.obj
 0001:00068680       ?type_case_o@?$output_processor@DV?$stream_output_adapter@D@__crt_stdio_output@@V?$format_validation_base@DV?$stream_output_adapter@D@__crt_stdio_output@@@2@@__crt_stdio_output@@AAE_NXZ 00469680 f i libucrtd:output.obj
 0001:000686d0       ?type_case_o@?$output_processor@DV?$stream_output_adapter@D@__crt_stdio_output@@V?$positional_parameter_base@DV?$stream_output_adapter@D@__crt_stdio_output@@@2@@__crt_stdio_output@@AAE_NXZ 004696d0 f i libucrtd:output.obj
 0001:00068720       ?type_case_o@?$output_processor@DV?$stream_output_adapter@D@__crt_stdio_output@@V?$standard_base@DV?$stream_output_adapter@D@__crt_stdio_output@@@2@@__crt_stdio_output@@AAE_NXZ 00469720 f i libucrtd:output.obj
 0001:00068770       ?type_case_o@?$output_processor@DV?$string_output_adapter@D@__crt_stdio_output@@V?$format_validation_base@DV?$string_output_adapter@D@__crt_stdio_output@@@2@@__crt_stdio_output@@AAE_NXZ 00469770 f i libucrtd:output.obj
 0001:000687c0       ?type_case_o@?$output_processor@DV?$string_output_adapter@D@__crt_stdio_output@@V?$positional_parameter_base@DV?$string_output_adapter@D@__crt_stdio_output@@@2@@__crt_stdio_output@@AAE_NXZ 004697c0 f i libucrtd:output.obj
 0001:00068810       ?type_case_o@?$output_processor@DV?$string_output_adapter@D@__crt_stdio_output@@V?$standard_base@DV?$string_output_adapter@D@__crt_stdio_output@@@2@@__crt_stdio_output@@AAE_NXZ 00469810 f i libucrtd:output.obj
 0001:00068860       ?type_case_o@?$output_processor@_WV?$stream_output_adapter@_W@__crt_stdio_output@@V?$format_validation_base@_WV?$stream_output_adapter@_W@__crt_stdio_output@@@2@@__crt_stdio_output@@AAE_NXZ 00469860 f i libucrtd:output.obj
 0001:000688b0       ?type_case_o@?$output_processor@_WV?$stream_output_adapter@_W@__crt_stdio_output@@V?$positional_parameter_base@_WV?$stream_output_adapter@_W@__crt_stdio_output@@@2@@__crt_stdio_output@@AAE_NXZ 004698b0 f i libucrtd:output.obj
 0001:00068900       ?type_case_o@?$output_processor@_WV?$stream_output_adapter@_W@__crt_stdio_output@@V?$standard_base@_WV?$stream_output_adapter@_W@__crt_stdio_output@@@2@@__crt_stdio_output@@AAE_NXZ 00469900 f i libucrtd:output.obj
 0001:00068950       ?type_case_o@?$output_processor@_WV?$string_output_adapter@_W@__crt_stdio_output@@V?$format_validation_base@_WV?$string_output_adapter@_W@__crt_stdio_output@@@2@@__crt_stdio_output@@AAE_NXZ 00469950 f i libucrtd:output.obj
 0001:000689a0       ?type_case_o@?$output_processor@_WV?$string_output_adapter@_W@__crt_stdio_output@@V?$positional_parameter_base@_WV?$string_output_adapter@_W@__crt_stdio_output@@@2@@__crt_stdio_output@@AAE_NXZ 004699a0 f i libucrtd:output.obj
 0001:000689f0       ?type_case_o@?$output_processor@_WV?$string_output_adapter@_W@__crt_stdio_output@@V?$standard_base@_WV?$string_output_adapter@_W@__crt_stdio_output@@@2@@__crt_stdio_output@@AAE_NXZ 004699f0 f i libucrtd:output.obj
 0001:00068a40       ?type_case_p@?$output_processor@DV?$stream_output_adapter@D@__crt_stdio_output@@V?$format_validation_base@DV?$stream_output_adapter@D@__crt_stdio_output@@@2@@__crt_stdio_output@@AAE_NXZ 00469a40 f i libucrtd:output.obj
 0001:00068a80       ?type_case_p@?$output_processor@DV?$stream_output_adapter@D@__crt_stdio_output@@V?$positional_parameter_base@DV?$stream_output_adapter@D@__crt_stdio_output@@@2@@__crt_stdio_output@@AAE_NXZ 00469a80 f i libucrtd:output.obj
 0001:00068ac0       ?type_case_p@?$output_processor@DV?$stream_output_adapter@D@__crt_stdio_output@@V?$standard_base@DV?$stream_output_adapter@D@__crt_stdio_output@@@2@@__crt_stdio_output@@AAE_NXZ 00469ac0 f i libucrtd:output.obj
 0001:00068b00       ?type_case_p@?$output_processor@DV?$string_output_adapter@D@__crt_stdio_output@@V?$format_validation_base@DV?$string_output_adapter@D@__crt_stdio_output@@@2@@__crt_stdio_output@@AAE_NXZ 00469b00 f i libucrtd:output.obj
 0001:00068b40       ?type_case_p@?$output_processor@DV?$string_output_adapter@D@__crt_stdio_output@@V?$positional_parameter_base@DV?$string_output_adapter@D@__crt_stdio_output@@@2@@__crt_stdio_output@@AAE_NXZ 00469b40 f i libucrtd:output.obj
 0001:00068b80       ?type_case_p@?$output_processor@DV?$string_output_adapter@D@__crt_stdio_output@@V?$standard_base@DV?$string_output_adapter@D@__crt_stdio_output@@@2@@__crt_stdio_output@@AAE_NXZ 00469b80 f i libucrtd:output.obj
 0001:00068bc0       ?type_case_p@?$output_processor@_WV?$stream_output_adapter@_W@__crt_stdio_output@@V?$format_validation_base@_WV?$stream_output_adapter@_W@__crt_stdio_output@@@2@@__crt_stdio_output@@AAE_NXZ 00469bc0 f i libucrtd:output.obj
 0001:00068c00       ?type_case_p@?$output_processor@_WV?$stream_output_adapter@_W@__crt_stdio_output@@V?$positional_parameter_base@_WV?$stream_output_adapter@_W@__crt_stdio_output@@@2@@__crt_stdio_output@@AAE_NXZ 00469c00 f i libucrtd:output.obj
 0001:00068c40       ?type_case_p@?$output_processor@_WV?$stream_output_adapter@_W@__crt_stdio_output@@V?$standard_base@_WV?$stream_output_adapter@_W@__crt_stdio_output@@@2@@__crt_stdio_output@@AAE_NXZ 00469c40 f i libucrtd:output.obj
 0001:00068c80       ?type_case_p@?$output_processor@_WV?$string_output_adapter@_W@__crt_stdio_output@@V?$format_validation_base@_WV?$string_output_adapter@_W@__crt_stdio_output@@@2@@__crt_stdio_output@@AAE_NXZ 00469c80 f i libucrtd:output.obj
 0001:00068cc0       ?type_case_p@?$output_processor@_WV?$string_output_adapter@_W@__crt_stdio_output@@V?$positional_parameter_base@_WV?$string_output_adapter@_W@__crt_stdio_output@@@2@@__crt_stdio_output@@AAE_NXZ 00469cc0 f i libucrtd:output.obj
 0001:00068d00       ?type_case_p@?$output_processor@_WV?$string_output_adapter@_W@__crt_stdio_output@@V?$standard_base@_WV?$string_output_adapter@_W@__crt_stdio_output@@@2@@__crt_stdio_output@@AAE_NXZ 00469d00 f i libucrtd:output.obj
 0001:00068d40       ?type_case_s@?$output_processor@DV?$stream_output_adapter@D@__crt_stdio_output@@V?$format_validation_base@DV?$stream_output_adapter@D@__crt_stdio_output@@@2@@__crt_stdio_output@@AAE_NXZ 00469d40 f i libucrtd:output.obj
 0001:00068e70       ?type_case_s@?$output_processor@DV?$stream_output_adapter@D@__crt_stdio_output@@V?$positional_parameter_base@DV?$stream_output_adapter@D@__crt_stdio_output@@@2@@__crt_stdio_output@@AAE_NXZ 00469e70 f i libucrtd:output.obj
 0001:00068fa0       ?type_case_s@?$output_processor@DV?$stream_output_adapter@D@__crt_stdio_output@@V?$standard_base@DV?$stream_output_adapter@D@__crt_stdio_output@@@2@@__crt_stdio_output@@AAE_NXZ 00469fa0 f i libucrtd:output.obj
 0001:000690d0       ?type_case_s@?$output_processor@DV?$string_output_adapter@D@__crt_stdio_output@@V?$format_validation_base@DV?$string_output_adapter@D@__crt_stdio_output@@@2@@__crt_stdio_output@@AAE_NXZ 0046a0d0 f i libucrtd:output.obj
 0001:00069200       ?type_case_s@?$output_processor@DV?$string_output_adapter@D@__crt_stdio_output@@V?$positional_parameter_base@DV?$string_output_adapter@D@__crt_stdio_output@@@2@@__crt_stdio_output@@AAE_NXZ 0046a200 f i libucrtd:output.obj
 0001:00069330       ?type_case_s@?$output_processor@DV?$string_output_adapter@D@__crt_stdio_output@@V?$standard_base@DV?$string_output_adapter@D@__crt_stdio_output@@@2@@__crt_stdio_output@@AAE_NXZ 0046a330 f i libucrtd:output.obj
 0001:00069460       ?type_case_s@?$output_processor@_WV?$stream_output_adapter@_W@__crt_stdio_output@@V?$format_validation_base@_WV?$stream_output_adapter@_W@__crt_stdio_output@@@2@@__crt_stdio_output@@AAE_NXZ 0046a460 f i libucrtd:output.obj
 0001:00069590       ?type_case_s@?$output_processor@_WV?$stream_output_adapter@_W@__crt_stdio_output@@V?$positional_parameter_base@_WV?$stream_output_adapter@_W@__crt_stdio_output@@@2@@__crt_stdio_output@@AAE_NXZ 0046a590 f i libucrtd:output.obj
 0001:000696c0       ?type_case_s@?$output_processor@_WV?$stream_output_adapter@_W@__crt_stdio_output@@V?$standard_base@_WV?$stream_output_adapter@_W@__crt_stdio_output@@@2@@__crt_stdio_output@@AAE_NXZ 0046a6c0 f i libucrtd:output.obj
 0001:000697f0       ?type_case_s@?$output_processor@_WV?$string_output_adapter@_W@__crt_stdio_output@@V?$format_validation_base@_WV?$string_output_adapter@_W@__crt_stdio_output@@@2@@__crt_stdio_output@@AAE_NXZ 0046a7f0 f i libucrtd:output.obj
 0001:00069920       ?type_case_s@?$output_processor@_WV?$string_output_adapter@_W@__crt_stdio_output@@V?$positional_parameter_base@_WV?$string_output_adapter@_W@__crt_stdio_output@@@2@@__crt_stdio_output@@AAE_NXZ 0046a920 f i libucrtd:output.obj
 0001:00069a50       ?type_case_s@?$output_processor@_WV?$string_output_adapter@_W@__crt_stdio_output@@V?$standard_base@_WV?$string_output_adapter@_W@__crt_stdio_output@@@2@@__crt_stdio_output@@AAE_NXZ 0046aa50 f i libucrtd:output.obj
 0001:00069b80       ?type_case_s_compute_narrow_string_length@?$output_processor@DV?$stream_output_adapter@D@__crt_stdio_output@@V?$format_validation_base@DV?$stream_output_adapter@D@__crt_stdio_output@@@2@@__crt_stdio_output@@ABEHHD@Z 0046ab80 f i libucrtd:output.obj
 0001:00069bb0       ?type_case_s_compute_narrow_string_length@?$output_processor@DV?$stream_output_adapter@D@__crt_stdio_output@@V?$positional_parameter_base@DV?$stream_output_adapter@D@__crt_stdio_output@@@2@@__crt_stdio_output@@ABEHHD@Z 0046abb0 f i libucrtd:output.obj
 0001:00069be0       ?type_case_s_compute_narrow_string_length@?$output_processor@DV?$stream_output_adapter@D@__crt_stdio_output@@V?$standard_base@DV?$stream_output_adapter@D@__crt_stdio_output@@@2@@__crt_stdio_output@@ABEHHD@Z 0046abe0 f i libucrtd:output.obj
 0001:00069c10       ?type_case_s_compute_narrow_string_length@?$output_processor@DV?$string_output_adapter@D@__crt_stdio_output@@V?$format_validation_base@DV?$string_output_adapter@D@__crt_stdio_output@@@2@@__crt_stdio_output@@ABEHHD@Z 0046ac10 f i libucrtd:output.obj
 0001:00069c40       ?type_case_s_compute_narrow_string_length@?$output_processor@DV?$string_output_adapter@D@__crt_stdio_output@@V?$positional_parameter_base@DV?$string_output_adapter@D@__crt_stdio_output@@@2@@__crt_stdio_output@@ABEHHD@Z 0046ac40 f i libucrtd:output.obj
 0001:00069c70       ?type_case_s_compute_narrow_string_length@?$output_processor@DV?$string_output_adapter@D@__crt_stdio_output@@V?$standard_base@DV?$string_output_adapter@D@__crt_stdio_output@@@2@@__crt_stdio_output@@ABEHHD@Z 0046ac70 f i libucrtd:output.obj
 0001:00069ca0       ?type_case_s_compute_narrow_string_length@?$output_processor@_WV?$stream_output_adapter@_W@__crt_stdio_output@@V?$format_validation_base@_WV?$stream_output_adapter@_W@__crt_stdio_output@@@2@@__crt_stdio_output@@ABEHH_W@Z 0046aca0 f i libucrtd:output.obj
 0001:00069d30       ?type_case_s_compute_narrow_string_length@?$output_processor@_WV?$stream_output_adapter@_W@__crt_stdio_output@@V?$positional_parameter_base@_WV?$stream_output_adapter@_W@__crt_stdio_output@@@2@@__crt_stdio_output@@ABEHH_W@Z 0046ad30 f i libucrtd:output.obj
 0001:00069dc0       ?type_case_s_compute_narrow_string_length@?$output_processor@_WV?$stream_output_adapter@_W@__crt_stdio_output@@V?$standard_base@_WV?$stream_output_adapter@_W@__crt_stdio_output@@@2@@__crt_stdio_output@@ABEHH_W@Z 0046adc0 f i libucrtd:output.obj
 0001:00069e50       ?type_case_s_compute_narrow_string_length@?$output_processor@_WV?$string_output_adapter@_W@__crt_stdio_output@@V?$format_validation_base@_WV?$string_output_adapter@_W@__crt_stdio_output@@@2@@__crt_stdio_output@@ABEHH_W@Z 0046ae50 f i libucrtd:output.obj
 0001:00069ee0       ?type_case_s_compute_narrow_string_length@?$output_processor@_WV?$string_output_adapter@_W@__crt_stdio_output@@V?$positional_parameter_base@_WV?$string_output_adapter@_W@__crt_stdio_output@@@2@@__crt_stdio_output@@ABEHH_W@Z 0046aee0 f i libucrtd:output.obj
 0001:00069f70       ?type_case_s_compute_narrow_string_length@?$output_processor@_WV?$string_output_adapter@_W@__crt_stdio_output@@V?$standard_base@_WV?$string_output_adapter@_W@__crt_stdio_output@@@2@@__crt_stdio_output@@ABEHH_W@Z 0046af70 f i libucrtd:output.obj
 0001:0006a000       ?type_case_u@?$output_processor@DV?$stream_output_adapter@D@__crt_stdio_output@@V?$format_validation_base@DV?$stream_output_adapter@D@__crt_stdio_output@@@2@@__crt_stdio_output@@AAE_NXZ 0046b000 f i libucrtd:output.obj
 0001:0006a020       ?type_case_u@?$output_processor@DV?$stream_output_adapter@D@__crt_stdio_output@@V?$positional_parameter_base@DV?$stream_output_adapter@D@__crt_stdio_output@@@2@@__crt_stdio_output@@AAE_NXZ 0046b020 f i libucrtd:output.obj
 0001:0006a040       ?type_case_u@?$output_processor@DV?$stream_output_adapter@D@__crt_stdio_output@@V?$standard_base@DV?$stream_output_adapter@D@__crt_stdio_output@@@2@@__crt_stdio_output@@AAE_NXZ 0046b040 f i libucrtd:output.obj
 0001:0006a060       ?type_case_u@?$output_processor@DV?$string_output_adapter@D@__crt_stdio_output@@V?$format_validation_base@DV?$string_output_adapter@D@__crt_stdio_output@@@2@@__crt_stdio_output@@AAE_NXZ 0046b060 f i libucrtd:output.obj
 0001:0006a080       ?type_case_u@?$output_processor@DV?$string_output_adapter@D@__crt_stdio_output@@V?$positional_parameter_base@DV?$string_output_adapter@D@__crt_stdio_output@@@2@@__crt_stdio_output@@AAE_NXZ 0046b080 f i libucrtd:output.obj
 0001:0006a0a0       ?type_case_u@?$output_processor@DV?$string_output_adapter@D@__crt_stdio_output@@V?$standard_base@DV?$string_output_adapter@D@__crt_stdio_output@@@2@@__crt_stdio_output@@AAE_NXZ 0046b0a0 f i libucrtd:output.obj
 0001:0006a0c0       ?type_case_u@?$output_processor@_WV?$stream_output_adapter@_W@__crt_stdio_output@@V?$format_validation_base@_WV?$stream_output_adapter@_W@__crt_stdio_output@@@2@@__crt_stdio_output@@AAE_NXZ 0046b0c0 f i libucrtd:output.obj
 0001:0006a0e0       ?type_case_u@?$output_processor@_WV?$stream_output_adapter@_W@__crt_stdio_output@@V?$positional_parameter_base@_WV?$stream_output_adapter@_W@__crt_stdio_output@@@2@@__crt_stdio_output@@AAE_NXZ 0046b0e0 f i libucrtd:output.obj
 0001:0006a100       ?type_case_u@?$output_processor@_WV?$stream_output_adapter@_W@__crt_stdio_output@@V?$standard_base@_WV?$stream_output_adapter@_W@__crt_stdio_output@@@2@@__crt_stdio_output@@AAE_NXZ 0046b100 f i libucrtd:output.obj
 0001:0006a120       ?type_case_u@?$output_processor@_WV?$string_output_adapter@_W@__crt_stdio_output@@V?$format_validation_base@_WV?$string_output_adapter@_W@__crt_stdio_output@@@2@@__crt_stdio_output@@AAE_NXZ 0046b120 f i libucrtd:output.obj
 0001:0006a140       ?type_case_u@?$output_processor@_WV?$string_output_adapter@_W@__crt_stdio_output@@V?$positional_parameter_base@_WV?$string_output_adapter@_W@__crt_stdio_output@@@2@@__crt_stdio_output@@AAE_NXZ 0046b140 f i libucrtd:output.obj
 0001:0006a160       ?type_case_u@?$output_processor@_WV?$string_output_adapter@_W@__crt_stdio_output@@V?$standard_base@_WV?$string_output_adapter@_W@__crt_stdio_output@@@2@@__crt_stdio_output@@AAE_NXZ 0046b160 f i libucrtd:output.obj
 0001:0006a180       ?type_case_x@?$output_processor@DV?$stream_output_adapter@D@__crt_stdio_output@@V?$format_validation_base@DV?$stream_output_adapter@D@__crt_stdio_output@@@2@@__crt_stdio_output@@AAE_NXZ 0046b180 f i libucrtd:output.obj
 0001:0006a1a0       ?type_case_x@?$output_processor@DV?$stream_output_adapter@D@__crt_stdio_output@@V?$positional_parameter_base@DV?$stream_output_adapter@D@__crt_stdio_output@@@2@@__crt_stdio_output@@AAE_NXZ 0046b1a0 f i libucrtd:output.obj
 0001:0006a1c0       ?type_case_x@?$output_processor@DV?$stream_output_adapter@D@__crt_stdio_output@@V?$standard_base@DV?$stream_output_adapter@D@__crt_stdio_output@@@2@@__crt_stdio_output@@AAE_NXZ 0046b1c0 f i libucrtd:output.obj
 0001:0006a1e0       ?type_case_x@?$output_processor@DV?$string_output_adapter@D@__crt_stdio_output@@V?$format_validation_base@DV?$string_output_adapter@D@__crt_stdio_output@@@2@@__crt_stdio_output@@AAE_NXZ 0046b1e0 f i libucrtd:output.obj
 0001:0006a200       ?type_case_x@?$output_processor@DV?$string_output_adapter@D@__crt_stdio_output@@V?$positional_parameter_base@DV?$string_output_adapter@D@__crt_stdio_output@@@2@@__crt_stdio_output@@AAE_NXZ 0046b200 f i libucrtd:output.obj
 0001:0006a220       ?type_case_x@?$output_processor@DV?$string_output_adapter@D@__crt_stdio_output@@V?$standard_base@DV?$string_output_adapter@D@__crt_stdio_output@@@2@@__crt_stdio_output@@AAE_NXZ 0046b220 f i libucrtd:output.obj
 0001:0006a240       ?type_case_x@?$output_processor@_WV?$stream_output_adapter@_W@__crt_stdio_output@@V?$format_validation_base@_WV?$stream_output_adapter@_W@__crt_stdio_output@@@2@@__crt_stdio_output@@AAE_NXZ 0046b240 f i libucrtd:output.obj
 0001:0006a260       ?type_case_x@?$output_processor@_WV?$stream_output_adapter@_W@__crt_stdio_output@@V?$positional_parameter_base@_WV?$stream_output_adapter@_W@__crt_stdio_output@@@2@@__crt_stdio_output@@AAE_NXZ 0046b260 f i libucrtd:output.obj
 0001:0006a280       ?type_case_x@?$output_processor@_WV?$stream_output_adapter@_W@__crt_stdio_output@@V?$standard_base@_WV?$stream_output_adapter@_W@__crt_stdio_output@@@2@@__crt_stdio_output@@AAE_NXZ 0046b280 f i libucrtd:output.obj
 0001:0006a2a0       ?type_case_x@?$output_processor@_WV?$string_output_adapter@_W@__crt_stdio_output@@V?$format_validation_base@_WV?$string_output_adapter@_W@__crt_stdio_output@@@2@@__crt_stdio_output@@AAE_NXZ 0046b2a0 f i libucrtd:output.obj
 0001:0006a2c0       ?type_case_x@?$output_processor@_WV?$string_output_adapter@_W@__crt_stdio_output@@V?$positional_parameter_base@_WV?$string_output_adapter@_W@__crt_stdio_output@@@2@@__crt_stdio_output@@AAE_NXZ 0046b2c0 f i libucrtd:output.obj
 0001:0006a2e0       ?type_case_x@?$output_processor@_WV?$string_output_adapter@_W@__crt_stdio_output@@V?$standard_base@_WV?$string_output_adapter@_W@__crt_stdio_output@@@2@@__crt_stdio_output@@AAE_NXZ 0046b2e0 f i libucrtd:output.obj
 0001:0006a300       ?unset_flag@?$output_processor@DV?$stream_output_adapter@D@__crt_stdio_output@@V?$format_validation_base@DV?$stream_output_adapter@D@__crt_stdio_output@@@2@@__crt_stdio_output@@AAEXI@Z 0046b300 f i libucrtd:output.obj
 0001:0006a330       ?unset_flag@?$output_processor@DV?$stream_output_adapter@D@__crt_stdio_output@@V?$positional_parameter_base@DV?$stream_output_adapter@D@__crt_stdio_output@@@2@@__crt_stdio_output@@AAEXI@Z 0046b330 f i libucrtd:output.obj
 0001:0006a360       ?unset_flag@?$output_processor@DV?$stream_output_adapter@D@__crt_stdio_output@@V?$standard_base@DV?$stream_output_adapter@D@__crt_stdio_output@@@2@@__crt_stdio_output@@AAEXI@Z 0046b360 f i libucrtd:output.obj
 0001:0006a390       ?unset_flag@?$output_processor@DV?$string_output_adapter@D@__crt_stdio_output@@V?$format_validation_base@DV?$string_output_adapter@D@__crt_stdio_output@@@2@@__crt_stdio_output@@AAEXI@Z 0046b390 f i libucrtd:output.obj
 0001:0006a3c0       ?unset_flag@?$output_processor@DV?$string_output_adapter@D@__crt_stdio_output@@V?$positional_parameter_base@DV?$string_output_adapter@D@__crt_stdio_output@@@2@@__crt_stdio_output@@AAEXI@Z 0046b3c0 f i libucrtd:output.obj
 0001:0006a3f0       ?unset_flag@?$output_processor@DV?$string_output_adapter@D@__crt_stdio_output@@V?$standard_base@DV?$string_output_adapter@D@__crt_stdio_output@@@2@@__crt_stdio_output@@AAEXI@Z 0046b3f0 f i libucrtd:output.obj
 0001:0006a420       ?unset_flag@?$output_processor@_WV?$stream_output_adapter@_W@__crt_stdio_output@@V?$format_validation_base@_WV?$stream_output_adapter@_W@__crt_stdio_output@@@2@@__crt_stdio_output@@AAEXI@Z 0046b420 f i libucrtd:output.obj
 0001:0006a450       ?unset_flag@?$output_processor@_WV?$stream_output_adapter@_W@__crt_stdio_output@@V?$positional_parameter_base@_WV?$stream_output_adapter@_W@__crt_stdio_output@@@2@@__crt_stdio_output@@AAEXI@Z 0046b450 f i libucrtd:output.obj
 0001:0006a480       ?unset_flag@?$output_processor@_WV?$stream_output_adapter@_W@__crt_stdio_output@@V?$standard_base@_WV?$stream_output_adapter@_W@__crt_stdio_output@@@2@@__crt_stdio_output@@AAEXI@Z 0046b480 f i libucrtd:output.obj
 0001:0006a4b0       ?unset_flag@?$output_processor@_WV?$string_output_adapter@_W@__crt_stdio_output@@V?$format_validation_base@_WV?$string_output_adapter@_W@__crt_stdio_output@@@2@@__crt_stdio_output@@AAEXI@Z 0046b4b0 f i libucrtd:output.obj
 0001:0006a4e0       ?unset_flag@?$output_processor@_WV?$string_output_adapter@_W@__crt_stdio_output@@V?$positional_parameter_base@_WV?$string_output_adapter@_W@__crt_stdio_output@@@2@@__crt_stdio_output@@AAEXI@Z 0046b4e0 f i libucrtd:output.obj
 0001:0006a510       ?unset_flag@?$output_processor@_WV?$string_output_adapter@_W@__crt_stdio_output@@V?$standard_base@_WV?$string_output_adapter@_W@__crt_stdio_output@@@2@@__crt_stdio_output@@AAEXI@Z 0046b510 f i libucrtd:output.obj
 0001:0006a540       ?update_field_width@?$positional_parameter_base@DV?$stream_output_adapter@D@__crt_stdio_output@@@__crt_stdio_output@@IAE_NXZ 0046b540 f i libucrtd:output.obj
 0001:0006a720       ?update_field_width@?$positional_parameter_base@DV?$string_output_adapter@D@__crt_stdio_output@@@__crt_stdio_output@@IAE_NXZ 0046b720 f i libucrtd:output.obj
 0001:0006a900       ?update_field_width@?$positional_parameter_base@_WV?$stream_output_adapter@_W@__crt_stdio_output@@@__crt_stdio_output@@IAE_NXZ 0046b900 f i libucrtd:output.obj
 0001:0006aae0       ?update_field_width@?$positional_parameter_base@_WV?$string_output_adapter@_W@__crt_stdio_output@@@__crt_stdio_output@@IAE_NXZ 0046bae0 f i libucrtd:output.obj
 0001:0006acc0       ?update_field_width@?$standard_base@DV?$stream_output_adapter@D@__crt_stdio_output@@@__crt_stdio_output@@IAE_NXZ 0046bcc0 f i libucrtd:output.obj
 0001:0006acf0       ?update_field_width@?$standard_base@DV?$string_output_adapter@D@__crt_stdio_output@@@__crt_stdio_output@@IAE_NXZ 0046bcf0 f i libucrtd:output.obj
 0001:0006ad20       ?update_field_width@?$standard_base@_WV?$stream_output_adapter@_W@__crt_stdio_output@@@__crt_stdio_output@@IAE_NXZ 0046bd20 f i libucrtd:output.obj
 0001:0006ad50       ?update_field_width@?$standard_base@_WV?$string_output_adapter@_W@__crt_stdio_output@@@__crt_stdio_output@@IAE_NXZ 0046bd50 f i libucrtd:output.obj
 0001:0006ad80       ?update_precision@?$positional_parameter_base@DV?$stream_output_adapter@D@__crt_stdio_output@@@__crt_stdio_output@@IAE_NXZ 0046bd80 f i libucrtd:output.obj
 0001:0006af60       ?update_precision@?$positional_parameter_base@DV?$string_output_adapter@D@__crt_stdio_output@@@__crt_stdio_output@@IAE_NXZ 0046bf60 f i libucrtd:output.obj
 0001:0006b140       ?update_precision@?$positional_parameter_base@_WV?$stream_output_adapter@_W@__crt_stdio_output@@@__crt_stdio_output@@IAE_NXZ 0046c140 f i libucrtd:output.obj
 0001:0006b320       ?update_precision@?$positional_parameter_base@_WV?$string_output_adapter@_W@__crt_stdio_output@@@__crt_stdio_output@@IAE_NXZ 0046c320 f i libucrtd:output.obj
 0001:0006b500       ?update_precision@?$standard_base@DV?$stream_output_adapter@D@__crt_stdio_output@@@__crt_stdio_output@@IAE_NXZ 0046c500 f i libucrtd:output.obj
 0001:0006b530       ?update_precision@?$standard_base@DV?$string_output_adapter@D@__crt_stdio_output@@@__crt_stdio_output@@IAE_NXZ 0046c530 f i libucrtd:output.obj
 0001:0006b560       ?update_precision@?$standard_base@_WV?$stream_output_adapter@_W@__crt_stdio_output@@@__crt_stdio_output@@IAE_NXZ 0046c560 f i libucrtd:output.obj
 0001:0006b590       ?update_precision@?$standard_base@_WV?$string_output_adapter@_W@__crt_stdio_output@@@__crt_stdio_output@@IAE_NXZ 0046c590 f i libucrtd:output.obj
 0001:0006b5c0       ?valid@__crt_stdio_stream@@QBE_NXZ 0046c5c0 f i libucrtd:output.obj
 0001:0006b600       ?validate@?$stream_output_adapter@D@__crt_stdio_output@@QBE_NXZ 0046c600 f i libucrtd:output.obj
 0001:0006b6d0       ?validate@?$stream_output_adapter@_W@__crt_stdio_output@@QBE_NXZ 0046c6d0 f i libucrtd:output.obj
 0001:0006b7a0       ?validate@?$string_output_adapter@D@__crt_stdio_output@@QBE_NXZ 0046c7a0 f i libucrtd:output.obj
 0001:0006b860       ?validate@?$string_output_adapter@_W@__crt_stdio_output@@QBE_NXZ 0046c860 f i libucrtd:output.obj
 0001:0006b920       ?validate_and_store_parameter_data@?$positional_parameter_base@DV?$stream_output_adapter@D@__crt_stdio_output@@@__crt_stdio_output@@AAE_NAAUparameter_data@12@W4parameter_type@12@DW4length_modifier@2@@Z 0046c920 f i libucrtd:output.obj
 0001:0006ba30       ?validate_and_store_parameter_data@?$positional_parameter_base@DV?$string_output_adapter@D@__crt_stdio_output@@@__crt_stdio_output@@AAE_NAAUparameter_data@12@W4parameter_type@12@DW4length_modifier@2@@Z 0046ca30 f i libucrtd:output.obj
 0001:0006bb40       ?validate_and_store_parameter_data@?$positional_parameter_base@_WV?$stream_output_adapter@_W@__crt_stdio_output@@@__crt_stdio_output@@AAE_NAAUparameter_data@12@W4parameter_type@12@_WW4length_modifier@2@@Z 0046cb40 f i libucrtd:output.obj
 0001:0006bc50       ?validate_and_store_parameter_data@?$positional_parameter_base@_WV?$string_output_adapter@_W@__crt_stdio_output@@@__crt_stdio_output@@AAE_NAAUparameter_data@12@W4parameter_type@12@_WW4length_modifier@2@@Z 0046cc50 f i libucrtd:output.obj
 0001:0006bd60       ?validate_and_update_state_at_beginning_of_format_character@?$positional_parameter_base@DV?$stream_output_adapter@D@__crt_stdio_output@@@__crt_stdio_output@@IAE_NXZ 0046cd60 f i libucrtd:output.obj
 0001:0006c010       ?validate_and_update_state_at_beginning_of_format_character@?$positional_parameter_base@DV?$string_output_adapter@D@__crt_stdio_output@@@__crt_stdio_output@@IAE_NXZ 0046d010 f i libucrtd:output.obj
 0001:0006c2c0       ?validate_and_update_state_at_beginning_of_format_character@?$positional_parameter_base@_WV?$stream_output_adapter@_W@__crt_stdio_output@@@__crt_stdio_output@@IAE_NXZ 0046d2c0 f i libucrtd:output.obj
 0001:0006c570       ?validate_and_update_state_at_beginning_of_format_character@?$positional_parameter_base@_WV?$string_output_adapter@_W@__crt_stdio_output@@@__crt_stdio_output@@IAE_NXZ 0046d570 f i libucrtd:output.obj
 0001:0006c820       ?validate_and_update_state_at_beginning_of_format_character@?$standard_base@DV?$stream_output_adapter@D@__crt_stdio_output@@@__crt_stdio_output@@IAE_NXZ 0046d820 f i libucrtd:output.obj
 0001:0006c840       ?validate_and_update_state_at_beginning_of_format_character@?$standard_base@DV?$string_output_adapter@D@__crt_stdio_output@@@__crt_stdio_output@@IAE_NXZ 0046d840 f i libucrtd:output.obj
 0001:0006c860       ?validate_and_update_state_at_beginning_of_format_character@?$standard_base@_WV?$stream_output_adapter@_W@__crt_stdio_output@@@__crt_stdio_output@@IAE_NXZ 0046d860 f i libucrtd:output.obj
 0001:0006c880       ?validate_and_update_state_at_beginning_of_format_character@?$standard_base@_WV?$string_output_adapter@_W@__crt_stdio_output@@@__crt_stdio_output@@IAE_NXZ 0046d880 f i libucrtd:output.obj
 0001:0006c8a0       ?validate_and_update_state_at_end_of_format_string@?$format_validation_base@DV?$stream_output_adapter@D@__crt_stdio_output@@@__crt_stdio_output@@IBE_NXZ 0046d8a0 f i libucrtd:output.obj
 0001:0006c960       ?validate_and_update_state_at_end_of_format_string@?$format_validation_base@DV?$string_output_adapter@D@__crt_stdio_output@@@__crt_stdio_output@@IBE_NXZ 0046d960 f i libucrtd:output.obj
 0001:0006ca20       ?validate_and_update_state_at_end_of_format_string@?$format_validation_base@_WV?$stream_output_adapter@_W@__crt_stdio_output@@@__crt_stdio_output@@IBE_NXZ 0046da20 f i libucrtd:output.obj
 0001:0006cae0       ?validate_and_update_state_at_end_of_format_string@?$format_validation_base@_WV?$string_output_adapter@_W@__crt_stdio_output@@@__crt_stdio_output@@IBE_NXZ 0046dae0 f i libucrtd:output.obj
 0001:0006cba0       ?validate_and_update_state_at_end_of_format_string@?$positional_parameter_base@DV?$stream_output_adapter@D@__crt_stdio_output@@@__crt_stdio_output@@IAE_NXZ 0046dba0 f i libucrtd:output.obj
 0001:0006cda0       ?validate_and_update_state_at_end_of_format_string@?$positional_parameter_base@DV?$string_output_adapter@D@__crt_stdio_output@@@__crt_stdio_output@@IAE_NXZ 0046dda0 f i libucrtd:output.obj
 0001:0006cfa0       ?validate_and_update_state_at_end_of_format_string@?$positional_parameter_base@_WV?$stream_output_adapter@_W@__crt_stdio_output@@@__crt_stdio_output@@IAE_NXZ 0046dfa0 f i libucrtd:output.obj
 0001:0006d1a0       ?validate_and_update_state_at_end_of_format_string@?$positional_parameter_base@_WV?$string_output_adapter@_W@__crt_stdio_output@@@__crt_stdio_output@@IAE_NXZ 0046e1a0 f i libucrtd:output.obj
 0001:0006d3a0       ?validate_and_update_state_at_end_of_format_string@?$standard_base@DV?$stream_output_adapter@D@__crt_stdio_output@@@__crt_stdio_output@@IBE_NXZ 0046e3a0 f i libucrtd:output.obj
 0001:0006d3c0       ?validate_and_update_state_at_end_of_format_string@?$standard_base@DV?$string_output_adapter@D@__crt_stdio_output@@@__crt_stdio_output@@IBE_NXZ 0046e3c0 f i libucrtd:output.obj
 0001:0006d3e0       ?validate_and_update_state_at_end_of_format_string@?$standard_base@_WV?$stream_output_adapter@_W@__crt_stdio_output@@@__crt_stdio_output@@IBE_NXZ 0046e3e0 f i libucrtd:output.obj
 0001:0006d400       ?validate_and_update_state_at_end_of_format_string@?$standard_base@_WV?$string_output_adapter@_W@__crt_stdio_output@@@__crt_stdio_output@@IBE_NXZ 0046e400 f i libucrtd:output.obj
 0001:0006d420       ?validate_state_for_type_case_a@?$positional_parameter_base@DV?$stream_output_adapter@D@__crt_stdio_output@@@__crt_stdio_output@@IAE_NXZ 0046e420 f i libucrtd:output.obj
 0001:0006d550       ?validate_state_for_type_case_a@?$positional_parameter_base@DV?$string_output_adapter@D@__crt_stdio_output@@@__crt_stdio_output@@IAE_NXZ 0046e550 f i libucrtd:output.obj
 0001:0006d680       ?validate_state_for_type_case_a@?$positional_parameter_base@_WV?$stream_output_adapter@_W@__crt_stdio_output@@@__crt_stdio_output@@IAE_NXZ 0046e680 f i libucrtd:output.obj
 0001:0006d7b0       ?validate_state_for_type_case_a@?$positional_parameter_base@_WV?$string_output_adapter@_W@__crt_stdio_output@@@__crt_stdio_output@@IAE_NXZ 0046e7b0 f i libucrtd:output.obj
 0001:0006d8e0       ?validate_state_for_type_case_a@?$standard_base@DV?$stream_output_adapter@D@__crt_stdio_output@@@__crt_stdio_output@@IBE_NXZ 0046e8e0 f i libucrtd:output.obj
 0001:0006d900       ?validate_state_for_type_case_a@?$standard_base@DV?$string_output_adapter@D@__crt_stdio_output@@@__crt_stdio_output@@IBE_NXZ 0046e900 f i libucrtd:output.obj
 0001:0006d920       ?validate_state_for_type_case_a@?$standard_base@_WV?$stream_output_adapter@_W@__crt_stdio_output@@@__crt_stdio_output@@IBE_NXZ 0046e920 f i libucrtd:output.obj
 0001:0006d940       ?validate_state_for_type_case_a@?$standard_base@_WV?$string_output_adapter@_W@__crt_stdio_output@@@__crt_stdio_output@@IBE_NXZ 0046e940 f i libucrtd:output.obj
 0001:0006d960       ?validate_stream_is_ansi_if_required@?$__acrt_stdio_char_traits@D@@SA_NQAU_iobuf@@@Z 0046e960 f i libucrtd:output.obj
 0001:0006dae0       ?validate_stream_is_ansi_if_required@?$__acrt_stdio_char_traits@_W@@SA_NQAU_iobuf@@@Z 0046eae0 f i libucrtd:output.obj
 0001:0006daf0       ?wide_null_string@?$output_processor@DV?$stream_output_adapter@D@__crt_stdio_output@@V?$format_validation_base@DV?$stream_output_adapter@D@__crt_stdio_output@@@2@@__crt_stdio_output@@CAPA_WXZ 0046eaf0 f i libucrtd:output.obj
 0001:0006db00       ?wide_null_string@?$output_processor@DV?$stream_output_adapter@D@__crt_stdio_output@@V?$positional_parameter_base@DV?$stream_output_adapter@D@__crt_stdio_output@@@2@@__crt_stdio_output@@CAPA_WXZ 0046eb00 f i libucrtd:output.obj
 0001:0006db10       ?wide_null_string@?$output_processor@DV?$stream_output_adapter@D@__crt_stdio_output@@V?$standard_base@DV?$stream_output_adapter@D@__crt_stdio_output@@@2@@__crt_stdio_output@@CAPA_WXZ 0046eb10 f i libucrtd:output.obj
 0001:0006db20       ?wide_null_string@?$output_processor@DV?$string_output_adapter@D@__crt_stdio_output@@V?$format_validation_base@DV?$string_output_adapter@D@__crt_stdio_output@@@2@@__crt_stdio_output@@CAPA_WXZ 0046eb20 f i libucrtd:output.obj
 0001:0006db30       ?wide_null_string@?$output_processor@DV?$string_output_adapter@D@__crt_stdio_output@@V?$positional_parameter_base@DV?$string_output_adapter@D@__crt_stdio_output@@@2@@__crt_stdio_output@@CAPA_WXZ 0046eb30 f i libucrtd:output.obj
 0001:0006db40       ?wide_null_string@?$output_processor@DV?$string_output_adapter@D@__crt_stdio_output@@V?$standard_base@DV?$string_output_adapter@D@__crt_stdio_output@@@2@@__crt_stdio_output@@CAPA_WXZ 0046eb40 f i libucrtd:output.obj
 0001:0006db50       ?wide_null_string@?$output_processor@_WV?$stream_output_adapter@_W@__crt_stdio_output@@V?$format_validation_base@_WV?$stream_output_adapter@_W@__crt_stdio_output@@@2@@__crt_stdio_output@@CAPA_WXZ 0046eb50 f i libucrtd:output.obj
 0001:0006db60       ?wide_null_string@?$output_processor@_WV?$stream_output_adapter@_W@__crt_stdio_output@@V?$positional_parameter_base@_WV?$stream_output_adapter@_W@__crt_stdio_output@@@2@@__crt_stdio_output@@CAPA_WXZ 0046eb60 f i libucrtd:output.obj
 0001:0006db70       ?wide_null_string@?$output_processor@_WV?$stream_output_adapter@_W@__crt_stdio_output@@V?$standard_base@_WV?$stream_output_adapter@_W@__crt_stdio_output@@@2@@__crt_stdio_output@@CAPA_WXZ 0046eb70 f i libucrtd:output.obj
 0001:0006db80       ?wide_null_string@?$output_processor@_WV?$string_output_adapter@_W@__crt_stdio_output@@V?$format_validation_base@_WV?$string_output_adapter@_W@__crt_stdio_output@@@2@@__crt_stdio_output@@CAPA_WXZ 0046eb80 f i libucrtd:output.obj
 0001:0006db90       ?wide_null_string@?$output_processor@_WV?$string_output_adapter@_W@__crt_stdio_output@@V?$positional_parameter_base@_WV?$string_output_adapter@_W@__crt_stdio_output@@@2@@__crt_stdio_output@@CAPA_WXZ 0046eb90 f i libucrtd:output.obj
 0001:0006dba0       ?wide_null_string@?$output_processor@_WV?$string_output_adapter@_W@__crt_stdio_output@@V?$standard_base@_WV?$string_output_adapter@_W@__crt_stdio_output@@@2@@__crt_stdio_output@@CAPA_WXZ 0046eba0 f i libucrtd:output.obj
 0001:0006dbb0       ?write_character@?$stream_output_adapter@D@__crt_stdio_output@@QBEXDQAH@Z 0046ebb0 f i libucrtd:output.obj
 0001:0006dc50       ?write_character@?$stream_output_adapter@_W@__crt_stdio_output@@QBEX_WQAH@Z 0046ec50 f i libucrtd:output.obj
 0001:0006dcf0       ?write_character@?$string_output_adapter@D@__crt_stdio_output@@QBE_NDQAH@Z 0046ecf0 f i libucrtd:output.obj
 0001:0006ddb0       ?write_character@?$string_output_adapter@_W@__crt_stdio_output@@QBE_N_WQAH@Z 0046edb0 f i libucrtd:output.obj
 0001:0006de70       ?write_stored_string_tchar@?$output_processor@DV?$stream_output_adapter@D@__crt_stdio_output@@V?$format_validation_base@DV?$stream_output_adapter@D@__crt_stdio_output@@@2@@__crt_stdio_output@@AAE_ND@Z 0046ee70 f i libucrtd:output.obj
 0001:0006dfc0       ?write_stored_string_tchar@?$output_processor@DV?$stream_output_adapter@D@__crt_stdio_output@@V?$positional_parameter_base@DV?$stream_output_adapter@D@__crt_stdio_output@@@2@@__crt_stdio_output@@AAE_ND@Z 0046efc0 f i libucrtd:output.obj
 0001:0006e110       ?write_stored_string_tchar@?$output_processor@DV?$stream_output_adapter@D@__crt_stdio_output@@V?$standard_base@DV?$stream_output_adapter@D@__crt_stdio_output@@@2@@__crt_stdio_output@@AAE_ND@Z 0046f110 f i libucrtd:output.obj
 0001:0006e260       ?write_stored_string_tchar@?$output_processor@DV?$string_output_adapter@D@__crt_stdio_output@@V?$format_validation_base@DV?$string_output_adapter@D@__crt_stdio_output@@@2@@__crt_stdio_output@@AAE_ND@Z 0046f260 f i libucrtd:output.obj
 0001:0006e3b0       ?write_stored_string_tchar@?$output_processor@DV?$string_output_adapter@D@__crt_stdio_output@@V?$positional_parameter_base@DV?$string_output_adapter@D@__crt_stdio_output@@@2@@__crt_stdio_output@@AAE_ND@Z 0046f3b0 f i libucrtd:output.obj
 0001:0006e500       ?write_stored_string_tchar@?$output_processor@DV?$string_output_adapter@D@__crt_stdio_output@@V?$standard_base@DV?$string_output_adapter@D@__crt_stdio_output@@@2@@__crt_stdio_output@@AAE_ND@Z 0046f500 f i libucrtd:output.obj
 0001:0006e650       ?write_stored_string_tchar@?$output_processor@_WV?$stream_output_adapter@_W@__crt_stdio_output@@V?$format_validation_base@_WV?$stream_output_adapter@_W@__crt_stdio_output@@@2@@__crt_stdio_output@@AAE_N_W@Z 0046f650 f i libucrtd:output.obj
 0001:0006e770       ?write_stored_string_tchar@?$output_processor@_WV?$stream_output_adapter@_W@__crt_stdio_output@@V?$positional_parameter_base@_WV?$stream_output_adapter@_W@__crt_stdio_output@@@2@@__crt_stdio_output@@AAE_N_W@Z 0046f770 f i libucrtd:output.obj
 0001:0006e890       ?write_stored_string_tchar@?$output_processor@_WV?$stream_output_adapter@_W@__crt_stdio_output@@V?$standard_base@_WV?$stream_output_adapter@_W@__crt_stdio_output@@@2@@__crt_stdio_output@@AAE_N_W@Z 0046f890 f i libucrtd:output.obj
 0001:0006e9b0       ?write_stored_string_tchar@?$output_processor@_WV?$string_output_adapter@_W@__crt_stdio_output@@V?$format_validation_base@_WV?$string_output_adapter@_W@__crt_stdio_output@@@2@@__crt_stdio_output@@AAE_N_W@Z 0046f9b0 f i libucrtd:output.obj
 0001:0006ead0       ?write_stored_string_tchar@?$output_processor@_WV?$string_output_adapter@_W@__crt_stdio_output@@V?$positional_parameter_base@_WV?$string_output_adapter@_W@__crt_stdio_output@@@2@@__crt_stdio_output@@AAE_N_W@Z 0046fad0 f i libucrtd:output.obj
 0001:0006ebf0       ?write_stored_string_tchar@?$output_processor@_WV?$string_output_adapter@_W@__crt_stdio_output@@V?$standard_base@_WV?$string_output_adapter@_W@__crt_stdio_output@@@2@@__crt_stdio_output@@AAE_N_W@Z 0046fbf0 f i libucrtd:output.obj
 0001:0006ed10       ?write_string@?$stream_output_adapter@D@__crt_stdio_output@@QBEXQBDHQAH1@Z 0046fd10 f i libucrtd:output.obj
 0001:0006edf0       ?write_string@?$stream_output_adapter@_W@__crt_stdio_output@@QBEXQB_WHQAH1@Z 0046fdf0 f i libucrtd:output.obj
 0001:0006eed0       ?write_string@?$string_output_adapter@D@__crt_stdio_output@@QBEXQBDHQAH1@Z 0046fed0 f i libucrtd:output.obj
 0001:0006f030       ?write_string@?$string_output_adapter@_W@__crt_stdio_output@@QBEXQB_WHQAH1@Z 00470030 f i libucrtd:output.obj
 0001:0006f190       ___acrt_isleadbyte_l_noupdate 00470190 f i libucrtd:output.obj
 0001:0006f1c0       ___acrt_locale_changed     004701c0 f i libucrtd:output.obj
 0001:0006f200       ___stdio_common_vfprintf   00470200 f   libucrtd:output.obj
 0001:0006f230       ___stdio_common_vfprintf_p 00470230 f   libucrtd:output.obj
 0001:0006f260       ___stdio_common_vfprintf_s 00470260 f   libucrtd:output.obj
 0001:0006f290       ___stdio_common_vfwprintf  00470290 f   libucrtd:output.obj
 0001:0006f2c0       ___stdio_common_vfwprintf_p 004702c0 f   libucrtd:output.obj
 0001:0006f2f0       ___stdio_common_vfwprintf_s 004702f0 f   libucrtd:output.obj
 0001:0006f320       ___stdio_common_vsnprintf_s 00470320 f   libucrtd:output.obj
 0001:0006f360       ___stdio_common_vsnwprintf_s 00470360 f   libucrtd:output.obj
 0001:0006f3a0       ___stdio_common_vsprintf   004703a0 f   libucrtd:output.obj
 0001:0006f3e0       ___stdio_common_vsprintf_p 004703e0 f   libucrtd:output.obj
 0001:0006f420       ___stdio_common_vsprintf_s 00470420 f   libucrtd:output.obj
 0001:0006f460       ___stdio_common_vswprintf  00470460 f   libucrtd:output.obj
 0001:0006f4a0       ___stdio_common_vswprintf_p 004704a0 f   libucrtd:output.obj
 0001:0006f4e0       ___stdio_common_vswprintf_s 004704e0 f   libucrtd:output.obj
 0001:0006f520       ??$?RPAU__crt_stdio_stream_data@@@__crt_internal_free_policy@@QBEXQBQAU__crt_stdio_stream_data@@@Z 00470520 f i libucrtd:_file.obj
 0001:0006f550       ??0?$__crt_unique_heap_ptr@PAU__crt_stdio_stream_data@@U__crt_internal_free_policy@@@@QAE@QAPAU__crt_stdio_stream_data@@@Z 00470550 f i libucrtd:_file.obj
 0001:0006f570       ??1?$__crt_unique_heap_ptr@PAU__crt_stdio_stream_data@@U__crt_internal_free_policy@@@@QAE@XZ 00470570 f i libucrtd:_file.obj
 0001:0006f590       ?detach@?$__crt_unique_heap_ptr@PAU__crt_stdio_stream_data@@U__crt_internal_free_policy@@@@QAEPAPAU__crt_stdio_stream_data@@XZ 00470590 f i libucrtd:_file.obj
 0001:0006f5c0       ?release@?$__crt_unique_heap_ptr@PAU__crt_stdio_stream_data@@U__crt_internal_free_policy@@@@QAEXXZ 004705c0 f i libucrtd:_file.obj
 0001:0006f600       ___acrt_initialize_stdio   00470600 f   libucrtd:_file.obj
 0001:0006f7d0       ___acrt_iob_func           004707d0 f   libucrtd:_file.obj
 0001:0006f7f0       ___acrt_uninitialize_stdio 004707f0 f   libucrtd:_file.obj
 0001:0006f890       __get_stream_buffer_pointers 00470890 f   libucrtd:_file.obj
 0001:0006f9a0       __lock_file                004709a0 f   libucrtd:_file.obj
 0001:0006f9d0       __unlock_file              004709d0 f   libucrtd:_file.obj
 0001:00070090       ??$getc_nolock@PAU_iobuf@@@?$__crt_char_traits@D@@SAH$$QAPAU_iobuf@@@Z 00471090 f i libucrtd:fgets.obj
 0001:000700b0       ??$getc_nolock@PAU_iobuf@@@?$__crt_char_traits@_W@@SAG$$QAPAU_iobuf@@@Z 004710b0 f i libucrtd:fgets.obj
 0001:000700d0       _fgets                     004710d0 f   libucrtd:fgets.obj
 0001:00070110       _fgetws                    00471110 f   libucrtd:fgets.obj
 0001:000708b0       ??$open_file@ABQBDABQBDABHPAU_iobuf@@@?$__crt_char_traits@D@@SAPAU_iobuf@@ABQBD0ABH$$QAPAU1@@Z 004718b0 f i libucrtd:freopen.obj
 0001:000708e0       ??$open_file@ABQB_WABQB_WABHPAU_iobuf@@@?$__crt_char_traits@_W@@SAPAU_iobuf@@ABQB_W0ABH$$QAPAU1@@Z 004718e0 f i libucrtd:freopen.obj
 0001:00070910       ?is_in_use@__crt_stdio_stream@@QBE_NXZ 00471910 f i libucrtd:freopen.obj
 0001:00070950       ?set_flags@__crt_stdio_stream@@QBE_NJ@Z 00471950 f i libucrtd:freopen.obj
 0001:000709b0       ?unset_flags@__crt_stdio_stream@@QBE_NJ@Z 004719b0 f i libucrtd:freopen.obj
 0001:00070a10       __wfreopen                 00471a10 f   libucrtd:freopen.obj
 0001:00070a60       __wfreopen_s               00471a60 f   libucrtd:freopen.obj
 0001:00070aa0       _freopen                   00471aa0 f   libucrtd:freopen.obj
 0001:00070af0       _freopen_s                 00471af0 f   libucrtd:freopen.obj
 0001:00070b30       ??$?RV<lambda_1fb4243d5e107ad4daf16ff362ca4a34>@@AAV<lambda_55f9cbce55698c0319f95c01c080475b>@@V<lambda_d740392b9cecdfa14abfd902a66ab607>@@@?$__crt_seh_guarded_call@H@@QAEH$$QAV<lambda_1fb4243d5e107ad4daf16ff362ca4a34>@@AAV<lambda_55f9cbce55698c0319f95c01c080475b>@@$$QAV<lambda_d740392b9cecdfa14abfd902a66ab607>@@@Z 00471b30 f i libucrtd:puts.obj
 0001:00070be0       ??$__acrt_lock_stream_and_call@V<lambda_55f9cbce55698c0319f95c01c080475b>@@@@YAHQAU_iobuf@@$$QAV<lambda_55f9cbce55698c0319f95c01c080475b>@@@Z 00471be0 f i libucrtd:puts.obj
 0001:00070df0       _puts                      00471df0 f   libucrtd:puts.obj
 0001:00071040       _strncpy                   00472040 f   libucrtd:strncpy.obj
 0001:000711d0       ___acrt_get_locale_data_prefix 004721d0 f i libucrtd:_ctype.obj
 0001:000711f0       ___isascii                 004721f0 f i libucrtd:_ctype.obj
 0001:00071220       ___iscsym                  00472220 f i libucrtd:_ctype.obj
 0001:00071270       ___iscsymf                 00472270 f i libucrtd:_ctype.obj
 0001:000712b0       ___toascii                 004722b0 f i libucrtd:_ctype.obj
 0001:000712c0       __chvalidchk_l             004722c0 f i libucrtd:_ctype.obj
 0001:000712f0       __isalnum_l                004722f0 f i libucrtd:_ctype.obj
 0001:00071340       __isalpha_l                00472340 f i libucrtd:_ctype.obj
 0001:00071390       __isblank_l                00472390 f i libucrtd:_ctype.obj
 0001:00071400       __ischartype_l             00472400 f i libucrtd:_ctype.obj
 0001:00071460       __iscntrl_l                00472460 f i libucrtd:_ctype.obj
 0001:000714b0       __iscsym_l                 004724b0 f i libucrtd:_ctype.obj
 0001:00071500       __iscsymf_l                00472500 f i libucrtd:_ctype.obj
 0001:00071550       __isdigit_l                00472550 f i libucrtd:_ctype.obj
 0001:000715a0       __isgraph_l                004725a0 f i libucrtd:_ctype.obj
 0001:000715f0       __islower_l                004725f0 f i libucrtd:_ctype.obj
 0001:00071640       __isprint_l                00472640 f i libucrtd:_ctype.obj
 0001:00071690       __ispunct_l                00472690 f i libucrtd:_ctype.obj
 0001:000716e0       __isspace_l                004726e0 f i libucrtd:_ctype.obj
 0001:00071730       __isupper_l                00472730 f i libucrtd:_ctype.obj
 0001:00071780       __isxdigit_l               00472780 f i libucrtd:_ctype.obj
 0001:000717d0       _isalnum                   004727d0 f i libucrtd:_ctype.obj
 0001:00071820       _isalpha                   00472820 f i libucrtd:_ctype.obj
 0001:00071870       _isblank                   00472870 f i libucrtd:_ctype.obj
 0001:000718e0       _iscntrl                   004728e0 f i libucrtd:_ctype.obj
 0001:00071930       _isdigit                   00472930 f i libucrtd:_ctype.obj
 0001:00071980       _isgraph                   00472980 f i libucrtd:_ctype.obj
 0001:000719d0       _islower                   004729d0 f i libucrtd:_ctype.obj
 0001:00071a20       _isprint                   00472a20 f i libucrtd:_ctype.obj
 0001:00071a70       _ispunct                   00472a70 f i libucrtd:_ctype.obj
 0001:00071ac0       _isspace                   00472ac0 f i libucrtd:_ctype.obj
 0001:00071b10       _isupper                   00472b10 f i libucrtd:_ctype.obj
 0001:00071b60       _isxdigit                  00472b60 f i libucrtd:_ctype.obj
 0001:00071bb0       _strncmp                   00472bb0 f   libucrtd:strncmp.obj
 0001:00071c50       __strnicmp                 00472c50 f   libucrtd:strnicmp.obj
 0001:00071e90       __strnicmp_l               00472e90 f   libucrtd:strnicmp.obj
 0001:000721c0       _strcpy                    004731c0 f   libucrtd:strcat.obj
 0001:000721d0       _strcat                    004731d0 f   libucrtd:strcat.obj
 0001:000728e0       __tolower                  004738e0 f   libucrtd:tolower_toupper.obj
 0001:000728f0       __tolower_l                004738f0 f   libucrtd:tolower_toupper.obj
 0001:00072920       __toupper                  00473920 f   libucrtd:tolower_toupper.obj
 0001:00072930       __toupper_l                00473930 f   libucrtd:tolower_toupper.obj
 0001:00072960       _tolower                   00473960 f   libucrtd:tolower_toupper.obj
 0001:000729d0       _toupper                   004739d0 f   libucrtd:tolower_toupper.obj
 0001:00072a40       _rand                      00473a40 f   libucrtd:rand.obj
 0001:00072a90       _srand                     00473a90 f   libucrtd:rand.obj
 0001:00072ab0       _free                      00473ab0 f   libucrtd:free.obj
 0001:00072ad0       _malloc                    00473ad0 f   libucrtd:malloc.obj
 0001:00072af0       _fmod                      00473af0 f   libucrtd:87fmod.obj
 0001:00072afa       __CIfmod                   00473afa f   libucrtd:87fmod.obj
 0001:00072b80       __seh_filter_dll           00473b80 f   libucrtd:exception_filter.obj
 0001:00072bb0       __seh_filter_exe           00473bb0 f   libucrtd:exception_filter.obj
 0001:00073070       ___acrt_report_runtime_error 00474070 f   libucrtd:report_runtime_error.obj
 0001:000732e0       __query_app_type           004742e0 f   libucrtd:report_runtime_error.obj
 0001:000732f0       __set_app_type             004742f0 f   libucrtd:report_runtime_error.obj
 0001:00073310       ??$__crt_fast_decode_pointer@P6AHPAU_exception@@@Z@@YAP6AHPAU_exception@@@ZQ6AH0@Z@Z 00474310 f i libucrtd:matherr.obj
 0001:00073350       ??$__crt_fast_encode_pointer@P6AHPAU_exception@@@Z@@YAP6AHPAU_exception@@@ZQ6AH0@Z@Z 00474350 f i libucrtd:matherr.obj
 0001:00073390       ?get_current_state_index@__crt_state_management@@YAIXZ 00474390 f i libucrtd:matherr.obj
 0001:000733a0       ?initialize@?$dual_state_global@P6AHPAU_exception@@@Z@__crt_state_management@@QAEXQ6AHPAU_exception@@@Z@Z 004743a0 f i libucrtd:matherr.obj
 0001:000733f0       ?value@?$dual_state_global@P6AHPAU_exception@@@Z@__crt_state_management@@QAEAAP6AHPAU_exception@@@ZXZ 004743f0 f i libucrtd:matherr.obj
 0001:00073410       ___acrt_has_user_matherr   00474410 f   libucrtd:matherr.obj
 0001:00073460       ___acrt_initialize_user_matherr 00474460 f   libucrtd:matherr.obj
 0001:00073480       ___acrt_invoke_user_matherr 00474480 f   libucrtd:matherr.obj
 0001:00073500       ___setusermatherr          00474500 f   libucrtd:matherr.obj
 0001:00073530       ??$?RE@__crt_internal_free_policy@@QBEXQBE@Z 00474530 f i libucrtd:argv_parsing.obj
 0001:00073560       ??$?RPAD@__crt_internal_free_policy@@QBEXQBQAD@Z 00474560 f i libucrtd:argv_parsing.obj
 0001:00073590       ??$?RPA_W@__crt_internal_free_policy@@QBEXQBQA_W@Z 00474590 f i libucrtd:argv_parsing.obj
 0001:00073c40       ??$get_module_file_name@$$TAAY0BAF@DH@?$__crt_char_traits@D@@SAK$$QA$$TAAY0BAF@D$$QAH@Z 00474c40 f i libucrtd:argv_parsing.obj
 0001:00073c70       ??$get_module_file_name@$$TAAY0BAF@_WH@?$__crt_char_traits@_W@@SAK$$QA$$TAAY0BAF@_W$$QAH@Z 00474c70 f i libucrtd:argv_parsing.obj
 0001:00074560       ??$set_program_name@PAD@?$__crt_char_traits@D@@SAX$$QAPAD@Z 00475560 f i libucrtd:argv_parsing.obj
 0001:00074580       ??$set_program_name@PA_W@?$__crt_char_traits@_W@@SAX$$QAPA_W@Z 00475580 f i libucrtd:argv_parsing.obj
 0001:000745e0       ??0?$__crt_unique_heap_ptr@EU__crt_internal_free_policy@@@@QAE@QAE@Z 004755e0 f i libucrtd:argv_parsing.obj
 0001:00074600       ??0?$__crt_unique_heap_ptr@PADU__crt_internal_free_policy@@@@QAE@QAPAD@Z 00475600 f i libucrtd:argv_parsing.obj
 0001:00074620       ??0?$__crt_unique_heap_ptr@PA_WU__crt_internal_free_policy@@@@QAE@QAPA_W@Z 00475620 f i libucrtd:argv_parsing.obj
 0001:00074640       ??1?$__crt_unique_heap_ptr@EU__crt_internal_free_policy@@@@QAE@XZ 00475640 f i libucrtd:argv_parsing.obj
 0001:00074660       ??1?$__crt_unique_heap_ptr@PADU__crt_internal_free_policy@@@@QAE@XZ 00475660 f i libucrtd:argv_parsing.obj
 0001:00074680       ??1?$__crt_unique_heap_ptr@PA_WU__crt_internal_free_policy@@@@QAE@XZ 00475680 f i libucrtd:argv_parsing.obj
 0001:000746a0       ??B?$__crt_unique_heap_ptr@EU__crt_internal_free_policy@@@@QBE_NXZ 004756a0 f i libucrtd:argv_parsing.obj
 0001:00074780       ?detach@?$__crt_unique_heap_ptr@EU__crt_internal_free_policy@@@@QAEPAEXZ 00475780 f i libucrtd:argv_parsing.obj
 0001:000747b0       ?detach@?$__crt_unique_heap_ptr@PADU__crt_internal_free_policy@@@@QAEPAPADXZ 004757b0 f i libucrtd:argv_parsing.obj
 0001:000747e0       ?detach@?$__crt_unique_heap_ptr@PA_WU__crt_internal_free_policy@@@@QAEPAPA_WXZ 004757e0 f i libucrtd:argv_parsing.obj
 0001:00074870       ?get@?$__crt_unique_heap_ptr@EU__crt_internal_free_policy@@@@QBEPAEXZ 00475870 f i libucrtd:argv_parsing.obj
 0001:00074890       ?get@?$__crt_unique_heap_ptr@PADU__crt_internal_free_policy@@@@QBEPAPADXZ 00475890 f i libucrtd:argv_parsing.obj
 0001:000748b0       ?get@?$__crt_unique_heap_ptr@PA_WU__crt_internal_free_policy@@@@QBEPAPA_WXZ 004758b0 f i libucrtd:argv_parsing.obj
 0001:000748d0       ?get_address_of@?$__crt_unique_heap_ptr@PADU__crt_internal_free_policy@@@@QAEPAPAPADXZ 004758d0 f i libucrtd:argv_parsing.obj
 0001:000748f0       ?get_address_of@?$__crt_unique_heap_ptr@PA_WU__crt_internal_free_policy@@@@QAEPAPAPA_WXZ 004758f0 f i libucrtd:argv_parsing.obj
 0001:00074950       ?is_valid@?$__crt_unique_heap_ptr@EU__crt_internal_free_policy@@@@QBE_NXZ 00475950 f i libucrtd:argv_parsing.obj
 0001:00074990       ?release@?$__crt_unique_heap_ptr@EU__crt_internal_free_policy@@@@QAEXXZ 00475990 f i libucrtd:argv_parsing.obj
 0001:000749d0       ?release@?$__crt_unique_heap_ptr@PADU__crt_internal_free_policy@@@@QAEXXZ 004759d0 f i libucrtd:argv_parsing.obj
 0001:00074a10       ?release@?$__crt_unique_heap_ptr@PA_WU__crt_internal_free_policy@@@@QAEXXZ 00475a10 f i libucrtd:argv_parsing.obj
 0001:00074aa0       ___acrt_allocate_buffer_for_argv 00475aa0 f   libucrtd:argv_parsing.obj
 0001:00074b90       __configure_narrow_argv    00475b90 f   libucrtd:argv_parsing.obj
 0001:00074bb0       __configure_wide_argv      00475bb0 f   libucrtd:argv_parsing.obj
 0001:00074bd0       __set_pgmptr               00475bd0 f i libucrtd:argv_parsing.obj
 0001:00074bf0       __set_wpgmptr              00475bf0 f i libucrtd:argv_parsing.obj
 0001:00074c02       ??$?R_W@__crt_internal_free_policy@@QBEXQB_W@Z 00475c02 f i libucrtd:environment_initialization.obj
 0001:0007517d       ??$get_environment_from_os@$$$V@?$__crt_char_traits@D@@SAPADXZ 0047617d f i libucrtd:environment_initialization.obj
 0001:00075182       ??$get_environment_from_os@$$$V@?$__crt_char_traits@_W@@SAPA_WXZ 00476182 f i libucrtd:environment_initialization.obj
 0001:000752e9       ??$set_variable_in_environment_nolock@PADH@?$__crt_char_traits@D@@SAH$$QAPAD$$QAH@Z 004762e9 f i libucrtd:environment_initialization.obj
 0001:00075307       ??$set_variable_in_environment_nolock@PA_WH@?$__crt_char_traits@_W@@SAH$$QAPA_W$$QAH@Z 00476307 f i libucrtd:environment_initialization.obj
 0001:00075325       ??$tcscpy_s@PADABIAAPAD@?$__crt_char_traits@D@@SAH$$QAPADABIAAPAD@Z 00476325 f i libucrtd:environment_initialization.obj
 0001:0007534a       ??$tcscpy_s@PA_WABIAAPA_W@?$__crt_char_traits@_W@@SAH$$QAPA_WABIAAPA_W@Z 0047634a f i libucrtd:environment_initialization.obj
 0001:0007536f       ??$tcslen@AAPAD@?$__crt_char_traits@D@@SAIAAPAD@Z 0047636f f i libucrtd:environment_initialization.obj
 0001:0007538d       ??$tcslen@AAPA_W@?$__crt_char_traits@_W@@SAIAAPA_W@Z 0047638d f i libucrtd:environment_initialization.obj
 0001:000753b2       ??$uninitialize@A6AXAAPAPAD@Z@?$dual_state_global@PAPAD@__crt_state_management@@QAEXA6AXAAPAPAD@Z@Z 004763b2 f i libucrtd:environment_initialization.obj
 0001:00075402       ??$uninitialize@A6AXAAPAPA_W@Z@?$dual_state_global@PAPA_W@__crt_state_management@@QAEXA6AXAAPAPA_W@Z@Z 00476402 f i libucrtd:environment_initialization.obj
 0001:00075494       ??0?$__crt_unique_heap_ptr@_WU__crt_internal_free_policy@@@@QAE@QA_W@Z 00476494 f i libucrtd:environment_initialization.obj
 0001:000754a8       ??1?$__crt_unique_heap_ptr@_WU__crt_internal_free_policy@@@@QAE@XZ 004764a8 f i libucrtd:environment_initialization.obj
 0001:000754c2       ??B?$__crt_unique_heap_ptr@PADU__crt_internal_free_policy@@@@QBE_NXZ 004764c2 f i libucrtd:environment_initialization.obj
 0001:000754cc       ??B?$__crt_unique_heap_ptr@PA_WU__crt_internal_free_policy@@@@QBE_NXZ 004764cc f i libucrtd:environment_initialization.obj
 0001:000754d6       ??B?$__crt_unique_heap_ptr@_WU__crt_internal_free_policy@@@@QBE_NXZ 004764d6 f i libucrtd:environment_initialization.obj
 0001:000754e0       ?__crt_compute_required_transform_buffer_count@@YAIIQBD@Z 004764e0 f i libucrtd:environment_initialization.obj
 0001:00075500       ?__crt_compute_required_transform_buffer_count@@YAIIQB_W@Z 00476500 f i libucrtd:environment_initialization.obj
 0001:00075523       ?__crt_transform_string@@YAIIQBDQA_WI@Z 00476523 f i libucrtd:environment_initialization.obj
 0001:00075547       ?__crt_transform_string@@YAIIQB_WQADI@Z 00476547 f i libucrtd:environment_initialization.obj
 0001:0007556f       ?detach@?$__crt_unique_heap_ptr@DU__crt_internal_free_policy@@@@QAEPADXZ 0047656f f i libucrtd:environment_initialization.obj
 0001:00075575       ?detach@?$__crt_unique_heap_ptr@_WU__crt_internal_free_policy@@@@QAEPA_WXZ 00476575 f i libucrtd:environment_initialization.obj
 0001:0007557b       ?get@?$__crt_unique_heap_ptr@_WU__crt_internal_free_policy@@@@QBEPA_WXZ 0047657b f i libucrtd:environment_initialization.obj
 0001:000755a2       ?initialize@?$dual_state_global@PAPAD@__crt_state_management@@QAEXQAPAD@Z 004765a2 f i libucrtd:environment_initialization.obj
 0001:000755df       ?initialize@?$dual_state_global@PAPA_W@__crt_state_management@@QAEXQAPA_W@Z 004765df f i libucrtd:environment_initialization.obj
 0001:0007561c       ?is_valid@?$__crt_unique_heap_ptr@PADU__crt_internal_free_policy@@@@QBE_NXZ 0047661c f i libucrtd:environment_initialization.obj
 0001:00075626       ?is_valid@?$__crt_unique_heap_ptr@PA_WU__crt_internal_free_policy@@@@QBE_NXZ 00476626 f i libucrtd:environment_initialization.obj
 0001:00075630       ?is_valid@?$__crt_unique_heap_ptr@_WU__crt_internal_free_policy@@@@QBE_NXZ 00476630 f i libucrtd:environment_initialization.obj
 0001:00075640       ?release@?$__crt_unique_heap_ptr@_WU__crt_internal_free_policy@@@@QAEXXZ 00476640 f i libucrtd:environment_initialization.obj
 0001:0007565a       ?value@?$dual_state_global@PAPAD@__crt_state_management@@QAEAAPAPADXZ 0047665a f i libucrtd:environment_initialization.obj
 0001:0007565d       ?value@?$dual_state_global@PAPA_W@__crt_state_management@@QAEAAPAPA_WXZ 0047665d f i libucrtd:environment_initialization.obj
 0001:00075660       ___dcrt_get_or_create_narrow_environment_nolock 00476660 f   libucrtd:environment_initialization.obj
 0001:00075665       ___dcrt_get_or_create_wide_environment_nolock 00476665 f   libucrtd:environment_initialization.obj
 0001:0007566a       ___dcrt_uninitialize_environments_nolock 0047666a f   libucrtd:environment_initialization.obj
 0001:000756ae       ___p__environ              004766ae f   libucrtd:environment_initialization.obj
 0001:000756b4       ___p__wenviron             004766b4 f   libucrtd:environment_initialization.obj
 0001:000756ba       __get_initial_narrow_environment 004766ba f   libucrtd:environment_initialization.obj
 0001:000756d3       __get_initial_wide_environment 004766d3 f   libucrtd:environment_initialization.obj
 0001:000756ec       __initialize_narrow_environment 004766ec f   libucrtd:environment_initialization.obj
 0001:000756f1       __initialize_wide_environment 004766f1 f   libucrtd:environment_initialization.obj
 0001:00075700       __initterm                 00476700 f   libucrtd:initterm.obj
 0001:00075770       __initterm_e               00476770 f   libucrtd:initterm.obj
 0001:00075800       ??$?B$$A6GXPAXK0@Z@__crt_fast_encoded_nullptr_t@@QBEP6GXPAXK0@ZXZ 00476800 f i libucrtd:exit.obj
 0001:00075820       ??$__crt_fast_decode_pointer@P6GXPAXK0@Z@@YAP6GXPAXK0@ZQ6GX0K0@Z@Z 00476820 f i libucrtd:exit.obj
 0001:00075860       ??$__crt_fast_encode_pointer@P6GXPAXK0@Z@@YAP6GXPAXK0@ZQ6GX0K0@Z@Z 00476860 f i libucrtd:exit.obj
 0001:000758a0       ??$__crt_get_proc_address@P6GXI@Z@@YAP6GXI@ZQAUHINSTANCE__@@QBD@Z 004768a0 f i libucrtd:exit.obj
 0001:000758c0       ??0?$__crt_unique_handle_t@U__crt_hmodule_traits@@@@QAE@QAUHINSTANCE__@@@Z 004768c0 f i libucrtd:exit.obj
 0001:000758e0       ??1?$__crt_unique_handle_t@U__crt_hmodule_traits@@@@QAE@XZ 004768e0 f i libucrtd:exit.obj
 0001:00075920       ?close@?$__crt_unique_handle_t@U__crt_hmodule_traits@@@@QAEXXZ 00476920 f i libucrtd:exit.obj
 0001:00075960       ?close@__crt_hmodule_traits@@SA_NPAUHINSTANCE__@@@Z 00476960 f i libucrtd:exit.obj
 0001:00075c20       ?get@?$__crt_unique_handle_t@U__crt_hmodule_traits@@@@QBEPAUHINSTANCE__@@XZ 00476c20 f i libucrtd:exit.obj
 0001:00075c40       ?get_address_of@?$__crt_unique_handle_t@U__crt_hmodule_traits@@@@QAEPAPAUHINSTANCE__@@XZ 00476c40 f i libucrtd:exit.obj
 0001:00075c60       ?get_invalid_value@__crt_hmodule_traits@@SAPAUHINSTANCE__@@XZ 00476c60 f i libucrtd:exit.obj
 0001:00075e40       __Exit                     00476e40 f   libucrtd:exit.obj
 0001:00075e60       ___acrt_initialize_thread_local_exit_callback 00476e60 f   libucrtd:exit.obj
 0001:00075e80       __c_exit                   00476e80 f   libucrtd:exit.obj
 0001:00075ea0       __cexit                    00476ea0 f   libucrtd:exit.obj
 0001:00075ec0       __exit                     00476ec0 f   libucrtd:exit.obj
 0001:00075ee0       __is_c_termination_complete 00476ee0 f   libucrtd:exit.obj
 0001:00075f00       __register_thread_local_exe_atexit_callback 00476f00 f   libucrtd:exit.obj
 0001:00075f50       _exit                      00476f50 f   libucrtd:exit.obj
 0001:00075f70       _quick_exit                00476f70 f   libucrtd:exit.obj
 0001:00075f90       ??$__crt_interlocked_read@H@@YAHPDH@Z 00476f90 f i libucrtd:setmode.obj
 0001:00075fb0       __get_fmode                00476fb0 f   libucrtd:setmode.obj
 0001:00076070       __set_fmode                00477070 f   libucrtd:setmode.obj
 0001:00076140       __setmode                  00477140 f   libucrtd:setmode.obj
 0001:000764a0       __setmode_nolock           004774a0 f   libucrtd:setmode.obj
 0001:00076740       ___acrt_initialize_command_line 00477740 f   libucrtd:argv_data.obj
 0001:00076770       ___acrt_uninitialize_command_line 00477770 f   libucrtd:argv_data.obj
 0001:00076780       ___p___argc                00477780 f   libucrtd:argv_data.obj
 0001:00076790       ___p___argv                00477790 f   libucrtd:argv_data.obj
 0001:000767a0       ___p___wargv               004777a0 f   libucrtd:argv_data.obj
 0001:000767b0       ___p__acmdln               004777b0 f   libucrtd:argv_data.obj
 0001:000767c0       ___p__pgmptr               004777c0 f   libucrtd:argv_data.obj
 0001:000767d0       ___p__wcmdln               004777d0 f   libucrtd:argv_data.obj
 0001:000767e0       ___p__wpgmptr              004777e0 f   libucrtd:argv_data.obj
 0001:000767f0       __get_pgmptr               004777f0 f   libucrtd:argv_data.obj
 0001:00076950       __get_wpgmptr              00477950 f   libucrtd:argv_data.obj
 0001:00076ac0       ??$?RU__crt_locale_data@@@__crt_internal_free_policy@@QBEXQBU__crt_locale_data@@@Z 00477ac0 f i libucrtd:wsetlocale.obj
 0001:00076af0       ??$?RU__crt_locale_pointers@@@__crt_internal_free_policy@@QBEXQBU__crt_locale_pointers@@@Z 00477af0 f i libucrtd:wsetlocale.obj
 0001:00076b20       ??$?RU__crt_multibyte_data@@@__crt_internal_free_policy@@QBEXQBU__crt_multibyte_data@@@Z 00477b20 f i libucrtd:wsetlocale.obj
 0001:00076b50       ??$?RV<lambda_0f92d0c5a8007722f95b3b6c71cd8e3e>@@AAV<lambda_321f9d61c14d59ff00145e45db1313e0>@@V<lambda_3298c911d7b53f44106027a7fde9a80a>@@@?$__crt_seh_guarded_call@X@@QAEX$$QAV<lambda_0f92d0c5a8007722f95b3b6c71cd8e3e>@@AAV<lambda_321f9d61c14d59ff00145e45db1313e0>@@$$QAV<lambda_3298c911d7b53f44106027a7fde9a80a>@@@Z 00477b50 f i libucrtd:wsetlocale.obj
 0001:00076bf0       ??$?RV<lambda_507d9fd6b66e39451a8852ba73f804a7>@@AAV<lambda_565169b3e3b494427ce1bebdd17b54ac>@@AAV<lambda_f51fe5fd7c79a33db34fc9310f277369>@@@?$__crt_seh_guarded_call@X@@QAEX$$QAV<lambda_507d9fd6b66e39451a8852ba73f804a7>@@AAV<lambda_565169b3e3b494427ce1bebdd17b54ac>@@AAV<lambda_f51fe5fd7c79a33db34fc9310f277369>@@@Z 00477bf0 f i libucrtd:wsetlocale.obj
 0001:00076c90       ??$?RV<lambda_76aaead6e312921abc834cb00a638bdd>@@AAV<lambda_176e34f99554166dd2fac165c457248c>@@V<lambda_998ee1c9f4290b119b936bcd6215875a>@@@?$__crt_seh_guarded_call@X@@QAEX$$QAV<lambda_76aaead6e312921abc834cb00a638bdd>@@AAV<lambda_176e34f99554166dd2fac165c457248c>@@$$QAV<lambda_998ee1c9f4290b119b936bcd6215875a>@@@Z 00477c90 f i libucrtd:wsetlocale.obj
 0001:00076d30       ??$?RV<lambda_c9469061b39d205f0f236529d4a41659>@@AAV<lambda_b7fb1a997d3ebc0cc0186c5835178808>@@V<lambda_14b92c79d699846b5cc916cd4cf280e4>@@@?$__crt_seh_guarded_call@X@@QAEX$$QAV<lambda_c9469061b39d205f0f236529d4a41659>@@AAV<lambda_b7fb1a997d3ebc0cc0186c5835178808>@@$$QAV<lambda_14b92c79d699846b5cc916cd4cf280e4>@@@Z 00477d30 f i libucrtd:wsetlocale.obj
 0001:00076dd0       ??$__acrt_lock_and_call@V<lambda_176e34f99554166dd2fac165c457248c>@@@@YAXW4__acrt_lock_id@@$$QAV<lambda_176e34f99554166dd2fac165c457248c>@@@Z 00477dd0 f i libucrtd:wsetlocale.obj
 0001:00076e20       ??$__acrt_lock_and_call@V<lambda_321f9d61c14d59ff00145e45db1313e0>@@@@YAXW4__acrt_lock_id@@$$QAV<lambda_321f9d61c14d59ff00145e45db1313e0>@@@Z 00477e20 f i libucrtd:wsetlocale.obj
 0001:00076e70       ??$__acrt_lock_and_call@V<lambda_b7fb1a997d3ebc0cc0186c5835178808>@@@@YAXW4__acrt_lock_id@@$$QAV<lambda_b7fb1a997d3ebc0cc0186c5835178808>@@@Z 00477e70 f i libucrtd:wsetlocale.obj
 0001:00076ec0       ??$__crt_call_and_cleanup@V<lambda_565169b3e3b494427ce1bebdd17b54ac>@@V<lambda_f51fe5fd7c79a33db34fc9310f277369>@@@@YAX$$QAV<lambda_565169b3e3b494427ce1bebdd17b54ac>@@$$QAV<lambda_f51fe5fd7c79a33db34fc9310f277369>@@@Z 00477ec0 f i libucrtd:wsetlocale.obj
 0001:00076ef0       ??$__vcrt_va_start_verify_argument_type@H@@YAXXZ 00477ef0 f i libucrtd:wsetlocale.obj
 0001:00077120       ??0?$__crt_unique_heap_ptr@U__crt_locale_data@@U__crt_internal_free_policy@@@@QAE@QAU__crt_locale_data@@@Z 00478120 f i libucrtd:wsetlocale.obj
 0001:00077140       ??0?$__crt_unique_heap_ptr@U__crt_locale_pointers@@U__crt_internal_free_policy@@@@QAE@QAU__crt_locale_pointers@@@Z 00478140 f i libucrtd:wsetlocale.obj
 0001:00077160       ??0?$__crt_unique_heap_ptr@U__crt_multibyte_data@@U__crt_internal_free_policy@@@@QAE@QAU__crt_multibyte_data@@@Z 00478160 f i libucrtd:wsetlocale.obj
 0001:00077180       ??1?$__crt_unique_heap_ptr@U__crt_locale_data@@U__crt_internal_free_policy@@@@QAE@XZ 00478180 f i libucrtd:wsetlocale.obj
 0001:000771a0       ??1?$__crt_unique_heap_ptr@U__crt_locale_pointers@@U__crt_internal_free_policy@@@@QAE@XZ 004781a0 f i libucrtd:wsetlocale.obj
 0001:000771c0       ??1?$__crt_unique_heap_ptr@U__crt_multibyte_data@@U__crt_internal_free_policy@@@@QAE@XZ 004781c0 f i libucrtd:wsetlocale.obj
 0001:000771e0       ??B?$__crt_unique_heap_ptr@U__crt_locale_data@@U__crt_internal_free_policy@@@@QBE_NXZ 004781e0 f i libucrtd:wsetlocale.obj
 0001:00077200       ??B?$__crt_unique_heap_ptr@U__crt_locale_pointers@@U__crt_internal_free_policy@@@@QBE_NXZ 00478200 f i libucrtd:wsetlocale.obj
 0001:00077220       ??B?$__crt_unique_heap_ptr@U__crt_multibyte_data@@U__crt_internal_free_policy@@@@QBE_NXZ 00478220 f i libucrtd:wsetlocale.obj
 0001:00077660       ?detach@?$__crt_unique_heap_ptr@U__crt_locale_data@@U__crt_internal_free_policy@@@@QAEPAU__crt_locale_data@@XZ 00478660 f i libucrtd:wsetlocale.obj
 0001:00077690       ?detach@?$__crt_unique_heap_ptr@U__crt_locale_pointers@@U__crt_internal_free_policy@@@@QAEPAU__crt_locale_pointers@@XZ 00478690 f i libucrtd:wsetlocale.obj
 0001:000776c0       ?detach@?$__crt_unique_heap_ptr@U__crt_multibyte_data@@U__crt_internal_free_policy@@@@QAEPAU__crt_multibyte_data@@XZ 004786c0 f i libucrtd:wsetlocale.obj
 0001:000776f0       ?get@?$__crt_unique_heap_ptr@U__crt_locale_data@@U__crt_internal_free_policy@@@@QBEPAU__crt_locale_data@@XZ 004786f0 f i libucrtd:wsetlocale.obj
 0001:00077710       ?get@?$__crt_unique_heap_ptr@U__crt_locale_pointers@@U__crt_internal_free_policy@@@@QBEPAU__crt_locale_pointers@@XZ 00478710 f i libucrtd:wsetlocale.obj
 0001:00077730       ?get@?$__crt_unique_heap_ptr@U__crt_multibyte_data@@U__crt_internal_free_policy@@@@QBEPAU__crt_multibyte_data@@XZ 00478730 f i libucrtd:wsetlocale.obj
 0001:00077750       ?is_valid@?$__crt_unique_heap_ptr@U__crt_locale_data@@U__crt_internal_free_policy@@@@QBE_NXZ 00478750 f i libucrtd:wsetlocale.obj
 0001:00077790       ?is_valid@?$__crt_unique_heap_ptr@U__crt_locale_pointers@@U__crt_internal_free_policy@@@@QBE_NXZ 00478790 f i libucrtd:wsetlocale.obj
 0001:000777d0       ?is_valid@?$__crt_unique_heap_ptr@U__crt_multibyte_data@@U__crt_internal_free_policy@@@@QBE_NXZ 004787d0 f i libucrtd:wsetlocale.obj
 0001:00077810       ?release@?$__crt_unique_heap_ptr@U__crt_locale_data@@U__crt_internal_free_policy@@@@QAEXXZ 00478810 f i libucrtd:wsetlocale.obj
 0001:00077850       ?release@?$__crt_unique_heap_ptr@U__crt_locale_pointers@@U__crt_internal_free_policy@@@@QAEXXZ 00478850 f i libucrtd:wsetlocale.obj
 0001:00077890       ?release@?$__crt_unique_heap_ptr@U__crt_multibyte_data@@U__crt_internal_free_policy@@@@QAEXXZ 00478890 f i libucrtd:wsetlocale.obj
 0001:000778d0       ?value@?$dual_state_global@PAU__crt_locale_data@@@__crt_state_management@@QAEAAPAU__crt_locale_data@@XZ 004788d0 f i libucrtd:wsetlocale.obj
 0001:000778f0       ___acrt_copy_locale_name   004788f0 f   libucrtd:wsetlocale.obj
 0001:000779c0       ___acrt_set_locale_changed 004789c0 f   libucrtd:wsetlocale.obj
 0001:000779e0       ___acrt_uninitialize_locale 004789e0 f   libucrtd:wsetlocale.obj
 0001:00077ab0       ___lc_lctowcs              00478ab0 f   libucrtd:wsetlocale.obj
 0001:00077b90       ___lc_wcstolc              00478b90 f   libucrtd:wsetlocale.obj
 0001:00077e40       __configthreadlocale       00478e40 f   libucrtd:wsetlocale.obj
 0001:00078020       __create_locale            00479020 f   libucrtd:wsetlocale.obj
 0001:000780b0       __expandlocale             004790b0 f   libucrtd:wsetlocale.obj
 0001:000786b0       __free_locale              004796b0 f   libucrtd:wsetlocale.obj
 0001:00078830       __get_current_locale       00479830 f   libucrtd:wsetlocale.obj
 0001:00078930       __wcreate_locale           00479930 f   libucrtd:wsetlocale.obj
 0001:00078bf0       __wcscats                  00479bf0 f   libucrtd:wsetlocale.obj
 0001:00078c90       __wsetlocale               00479c90 f   libucrtd:wsetlocale.obj
 0001:00079fa0       ?value@?$dual_state_global@J@__crt_state_management@@QAEAAJXZ 0047afa0 f i libucrtd:new_mode.obj
 0001:00079fc0       __query_new_mode           0047afc0 f   libucrtd:new_mode.obj
 0001:00079fe0       __set_new_mode             0047afe0 f   libucrtd:new_mode.obj
 0001:0007a0b0       ___p__commode              0047b0b0 f   libucrtd:ncommode.obj
 0001:0007a0c0       __errcode                  0047b0c0 f   libucrtd:fpexcept.obj
 0001:0007a150       __except1                  0047b150 f   libucrtd:fpexcept.obj
 0001:0007a290       __except2                  0047b290 f   libucrtd:fpexcept.obj
 0001:0007a440       __handle_exc               0047b440 f   libucrtd:fpexcept.obj
 0001:0007a820       __handle_qnan2             0047b820 f   libucrtd:fpexcept.obj
 0001:0007a840       __raise_exc                0047b840 f   libucrtd:fpexcept.obj
 0001:0007a880       __raise_exc_ex             0047b880 f   libucrtd:fpexcept.obj
 0001:0007af60       __raise_excf               0047bf60 f   libucrtd:fpexcept.obj
 0001:0007afa0       __set_errno_from_matherr   0047bfa0 f   libucrtd:fpexcept.obj
 0001:0007aff0       __umatherr                 0047bff0 f   libucrtd:fpexcept.obj
 0001:0007b0c0       ??$?BP6AXXZ@__crt_fast_encoded_nullptr_t@@QBEPAP6AXXZXZ 0047c0c0 f i libucrtd:onexit.obj
 0001:0007b0e0       ??$?RP6AXXZ@__crt_internal_free_policy@@QBEXQBQ6AXXZ@Z 0047c0e0 f i libucrtd:onexit.obj
 0001:0007b110       ??$?RV<lambda_821a00fc0e15a7fd532972332124005d>@@AAV<lambda_942beefa13ab35ff55f86422493ffd6a>@@V<lambda_3ab53bf64df1f1ff33dbc5b1929ce7a7>@@@?$__crt_seh_guarded_call@H@@QAEH$$QAV<lambda_821a00fc0e15a7fd532972332124005d>@@AAV<lambda_942beefa13ab35ff55f86422493ffd6a>@@$$QAV<lambda_3ab53bf64df1f1ff33dbc5b1929ce7a7>@@@Z 0047c110 f i libucrtd:onexit.obj
 0001:0007b1c0       ??$?RV<lambda_a12890e7f9ac9927a62bd0bbd5044c78>@@AAV<lambda_e971338317bfa523bb8920b43d823727>@@V<lambda_e618b16d59e79e236350cab8485990d2>@@@?$__crt_seh_guarded_call@H@@QAEH$$QAV<lambda_a12890e7f9ac9927a62bd0bbd5044c78>@@AAV<lambda_e971338317bfa523bb8920b43d823727>@@$$QAV<lambda_e618b16d59e79e236350cab8485990d2>@@@Z 0047c1c0 f i libucrtd:onexit.obj
 0001:0007b270       ??$__acrt_lock_and_call@V<lambda_942beefa13ab35ff55f86422493ffd6a>@@@@YAHW4__acrt_lock_id@@$$QAV<lambda_942beefa13ab35ff55f86422493ffd6a>@@@Z 0047c270 f i libucrtd:onexit.obj
 0001:0007b2c0       ??$__acrt_lock_and_call@V<lambda_e971338317bfa523bb8920b43d823727>@@@@YAHW4__acrt_lock_id@@$$QAV<lambda_e971338317bfa523bb8920b43d823727>@@@Z 0047c2c0 f i libucrtd:onexit.obj
 0001:0007b310       ??$__crt_fast_encode_pointer@P6AHXZ@@YAP6AHXZQ6AHXZ@Z 0047c310 f i libucrtd:onexit.obj
 0001:0007b460       ??0?$__crt_unique_heap_ptr@P6AXXZU__crt_internal_free_policy@@@@QAE@QAP6AXXZ@Z 0047c460 f i libucrtd:onexit.obj
 0001:0007b480       ??1?$__crt_unique_heap_ptr@P6AXXZU__crt_internal_free_policy@@@@QAE@XZ 0047c480 f i libucrtd:onexit.obj
 0001:0007b9f0       ?detach@?$__crt_unique_heap_ptr@P6AXXZU__crt_internal_free_policy@@@@QAEPAP6AXXZXZ 0047c9f0 f i libucrtd:onexit.obj
 0001:0007ba20       ?release@?$__crt_unique_heap_ptr@P6AXXZU__crt_internal_free_policy@@@@QAEXXZ 0047ca20 f i libucrtd:onexit.obj
 0001:0007ba60       __crt_at_quick_exit        0047ca60 f   libucrtd:onexit.obj
 0001:0007ba80       __crt_atexit               0047ca80 f   libucrtd:onexit.obj
 0001:0007baa0       __execute_onexit_table     0047caa0 f   libucrtd:onexit.obj
 0001:0007bad0       __initialize_onexit_table  0047cad0 f   libucrtd:onexit.obj
 0001:0007bb50       __register_onexit_function 0047cb50 f   libucrtd:onexit.obj
 0001:0007bde0       ?initialize@?$dual_state_global@PAU__crt_locale_data@@@__crt_state_management@@QAEXQAU__crt_locale_data@@@Z 0047cde0 f i libucrtd:initialization.obj
 0001:0007be30       ___acrt_initialize         0047ce30 f   libucrtd:initialization.obj
 0001:0007be50       ___acrt_thread_attach      0047ce50 f   libucrtd:initialization.obj
 0001:0007be70       ___acrt_thread_detach      0047ce70 f   libucrtd:initialization.obj
 0001:0007be90       ___acrt_uninitialize       0047ce90 f   libucrtd:initialization.obj
 0001:0007beb0       ___acrt_uninitialize_critical 0047ceb0 f   libucrtd:initialization.obj
 0001:0007bed0       __controlfp_s              0047ced0 f   libucrtd:contrlfp.obj
 0001:0007c030       __get_terminate            0047d030 f   libucrtd:terminate.obj
 0001:0007c050       _set_terminate             0047d050 f   libucrtd:terminate.obj
 0001:0007c090       _terminate                 0047d090 f   libucrtd:terminate.obj
 0001:0007c160       _wcslen                    0047d160 f   libucrtd:wcslen.obj
 0001:0007e050       __CrtCheckMemory           0047f050 f   libucrtd:debug_heap.obj
 0001:0007e240       __CrtDoForAllClientObjects 0047f240 f   libucrtd:debug_heap.obj
 0001:0007e3f0       __CrtDumpMemoryLeaks       0047f3f0 f   libucrtd:debug_heap.obj
 0001:0007e4b0       __CrtGetAllocHook          0047f4b0 f   libucrtd:debug_heap.obj
 0001:0007e4c0       __CrtGetDumpClient         0047f4c0 f   libucrtd:debug_heap.obj
 0001:0007e4d0       __CrtIsMemoryBlock         0047f4d0 f   libucrtd:debug_heap.obj
 0001:0007e670       __CrtIsValidHeapPointer    0047f670 f   libucrtd:debug_heap.obj
 0001:0007e6b0       __CrtIsValidPointer        0047f6b0 f   libucrtd:debug_heap.obj
 0001:0007e6e0       __CrtMemCheckpoint         0047f6e0 f   libucrtd:debug_heap.obj
 0001:0007e9a0       __CrtMemDifference         0047f9a0 f   libucrtd:debug_heap.obj
 0001:0007ecb0       __CrtMemDumpAllObjectsSince 0047fcb0 f   libucrtd:debug_heap.obj
 0001:0007ed70       __CrtMemDumpStatistics     0047fd70 f   libucrtd:debug_heap.obj
 0001:0007eee0       __CrtReportBlockType       0047fee0 f   libucrtd:debug_heap.obj
 0001:0007ef20       __CrtSetAllocHook          0047ff20 f   libucrtd:debug_heap.obj
 0001:0007ef50       __CrtSetBreakAlloc         0047ff50 f   libucrtd:debug_heap.obj
 0001:0007ef80       __CrtSetDbgBlockType       0047ff80 f   libucrtd:debug_heap.obj
 0001:0007f090       __CrtSetDbgFlag            00480090 f   libucrtd:debug_heap.obj
 0001:0007f260       __CrtSetDumpClient         00480260 f   libucrtd:debug_heap.obj
 0001:0007f290       ___p__crtBreakAlloc        00480290 f   libucrtd:debug_heap.obj
 0001:0007f2a0       ___p__crtDbgFlag           004802a0 f   libucrtd:debug_heap.obj
 0001:0007f2b0       __aligned_free_dbg         004802b0 f   libucrtd:debug_heap.obj
 0001:0007f390       __aligned_malloc_dbg       00480390 f   libucrtd:debug_heap.obj
 0001:0007f3c0       __aligned_msize_dbg        004803c0 f   libucrtd:debug_heap.obj
 0001:0007f530       __aligned_offset_malloc_dbg 00480530 f   libucrtd:debug_heap.obj
 0001:0007f780       __aligned_offset_realloc_dbg 00480780 f   libucrtd:debug_heap.obj
 0001:0007fb50       __aligned_offset_recalloc_dbg 00480b50 f   libucrtd:debug_heap.obj
 0001:0007fc40       __aligned_realloc_dbg      00480c40 f   libucrtd:debug_heap.obj
 0001:0007fc70       __aligned_recalloc_dbg     00480c70 f   libucrtd:debug_heap.obj
 0001:0007fcb0       __calloc_dbg               00480cb0 f   libucrtd:debug_heap.obj
 0001:0007fd40       __expand_dbg               00480d40 f   libucrtd:debug_heap.obj
 0001:0007fec0       __free_dbg                 00480ec0 f   libucrtd:debug_heap.obj
 0001:0007ffa0       __invoke_watson_if_oneof   00480fa0 f i libucrtd:debug_heap.obj
 0001:0007fff0       __malloc_dbg               00480ff0 f   libucrtd:debug_heap.obj
 0001:00080020       __msize_dbg                00481020 f   libucrtd:debug_heap.obj
 0001:00080210       __realloc_dbg              00481210 f   libucrtd:debug_heap.obj
 0001:000802e0       __recalloc_dbg             004812e0 f   libucrtd:debug_heap.obj
 0001:00080790       _strcpy_s                  00481790 f   libucrtd:strcpy_s.obj
 0001:000807c0       _strcmp                    004817c0 f   libucrtd:strcmp.obj
 0001:00080870       ??$?RU?$__crt_report_hook_node@D@@@__crt_internal_free_policy@@QBEXQBU?$__crt_report_hook_node@D@@@Z 00481870 f i libucrtd:dbgrpt.obj
 0001:000808a0       ??$?RU?$__crt_report_hook_node@_W@@@__crt_internal_free_policy@@QBEXQBU?$__crt_report_hook_node@_W@@@Z 004818a0 f i libucrtd:dbgrpt.obj
 0001:000808d0       ??$?RV<lambda_4385efabcfedf7d3ecea3114bb4d80a3>@@AAV<lambda_0e04737ef8baea6dabca2b8414b05b67>@@V<lambda_d865d276f220a9fa71140df531e906d8>@@@?$__crt_seh_guarded_call@H@@QAEH$$QAV<lambda_4385efabcfedf7d3ecea3114bb4d80a3>@@AAV<lambda_0e04737ef8baea6dabca2b8414b05b67>@@$$QAV<lambda_d865d276f220a9fa71140df531e906d8>@@@Z 004818d0 f i libucrtd:dbgrpt.obj
 0001:00080980       ??$?RV<lambda_cc3a1c0f52e01ba2b29fe175588291fc>@@AAV<lambda_fe667bea668416e0f0232b481cd5c955>@@V<lambda_bb8fdd70844b93de4445abd0f0332611>@@@?$__crt_seh_guarded_call@H@@QAEH$$QAV<lambda_cc3a1c0f52e01ba2b29fe175588291fc>@@AAV<lambda_fe667bea668416e0f0232b481cd5c955>@@$$QAV<lambda_bb8fdd70844b93de4445abd0f0332611>@@@Z 00481980 f i libucrtd:dbgrpt.obj
 0001:00080a30       ??$__acrt_lock_and_call@V<lambda_0e04737ef8baea6dabca2b8414b05b67>@@@@YAHW4__acrt_lock_id@@$$QAV<lambda_0e04737ef8baea6dabca2b8414b05b67>@@@Z 00481a30 f i libucrtd:dbgrpt.obj
 0001:00080a80       ??$__acrt_lock_and_call@V<lambda_fe667bea668416e0f0232b481cd5c955>@@@@YAHW4__acrt_lock_id@@$$QAV<lambda_fe667bea668416e0f0232b481cd5c955>@@@Z 00481a80 f i libucrtd:dbgrpt.obj
 0001:00081ae0       ??0?$__crt_unique_heap_ptr@U?$__crt_report_hook_node@D@@U__crt_internal_free_policy@@@@QAE@QAU?$__crt_report_hook_node@D@@@Z 00482ae0 f i libucrtd:dbgrpt.obj
 0001:00081b00       ??0?$__crt_unique_heap_ptr@U?$__crt_report_hook_node@_W@@U__crt_internal_free_policy@@@@QAE@QAU?$__crt_report_hook_node@_W@@@Z 00482b00 f i libucrtd:dbgrpt.obj
 0001:00081b20       ??1?$__crt_unique_heap_ptr@U?$__crt_report_hook_node@D@@U__crt_internal_free_policy@@@@QAE@XZ 00482b20 f i libucrtd:dbgrpt.obj
 0001:00081b40       ??1?$__crt_unique_heap_ptr@U?$__crt_report_hook_node@_W@@U__crt_internal_free_policy@@@@QAE@XZ 00482b40 f i libucrtd:dbgrpt.obj
 0001:00081b60       ??B?$__crt_unique_heap_ptr@U?$__crt_report_hook_node@D@@U__crt_internal_free_policy@@@@QBE_NXZ 00482b60 f i libucrtd:dbgrpt.obj
 0001:00081b80       ??B?$__crt_unique_heap_ptr@U?$__crt_report_hook_node@_W@@U__crt_internal_free_policy@@@@QBE_NXZ 00482b80 f i libucrtd:dbgrpt.obj
 0001:00082220       ?detach@?$__crt_unique_heap_ptr@U?$__crt_report_hook_node@D@@U__crt_internal_free_policy@@@@QAEPAU?$__crt_report_hook_node@D@@XZ 00483220 f i libucrtd:dbgrpt.obj
 0001:00082250       ?detach@?$__crt_unique_heap_ptr@U?$__crt_report_hook_node@_W@@U__crt_internal_free_policy@@@@QAEPAU?$__crt_report_hook_node@_W@@XZ 00483250 f i libucrtd:dbgrpt.obj
 0001:00082280       ?get@?$__crt_unique_heap_ptr@U?$__crt_report_hook_node@D@@U__crt_internal_free_policy@@@@QBEPAU?$__crt_report_hook_node@D@@XZ 00483280 f i libucrtd:dbgrpt.obj
 0001:000822a0       ?get@?$__crt_unique_heap_ptr@U?$__crt_report_hook_node@_W@@U__crt_internal_free_policy@@@@QBEPAU?$__crt_report_hook_node@_W@@XZ 004832a0 f i libucrtd:dbgrpt.obj
 0001:00082320       ?is_valid@?$__crt_unique_heap_ptr@U?$__crt_report_hook_node@D@@U__crt_internal_free_policy@@@@QBE_NXZ 00483320 f i libucrtd:dbgrpt.obj
 0001:00082360       ?is_valid@?$__crt_unique_heap_ptr@U?$__crt_report_hook_node@_W@@U__crt_internal_free_policy@@@@QBE_NXZ 00483360 f i libucrtd:dbgrpt.obj
 0001:000823a0       ?release@?$__crt_unique_heap_ptr@U?$__crt_report_hook_node@D@@U__crt_internal_free_policy@@@@QAEXXZ 004833a0 f i libucrtd:dbgrpt.obj
 0001:000823e0       ?release@?$__crt_unique_heap_ptr@U?$__crt_report_hook_node@_W@@U__crt_internal_free_policy@@@@QAEXXZ 004833e0 f i libucrtd:dbgrpt.obj
 0001:00082420       __CrtDbgReport             00483420 f   libucrtd:dbgrpt.obj
 0001:00082480       __CrtDbgReportW            00483480 f   libucrtd:dbgrpt.obj
 0001:000824e0       __CrtSetReportHook2        004834e0 f   libucrtd:dbgrpt.obj
 0001:00082500       __CrtSetReportHookW2       00483500 f   libucrtd:dbgrpt.obj
 0001:00082520       ___acrt_MessageWindowA     00483520 f   libucrtd:dbgrpt.obj
 0001:00082550       ___acrt_MessageWindowW     00483550 f   libucrtd:dbgrpt.obj
 0001:00082580       __snwprintf_s              00483580 f i libucrtd:dbgrpt.obj
 0001:000825e0       __vsnwprintf_s_l           004835e0 f i libucrtd:dbgrpt.obj
 0001:00082650       __set_abort_behavior       00483650 f   libucrtd:abort.obj
 0001:00082690       _abort                     00483690 f   libucrtd:abort.obj
 0001:00082720       ??$is_overflow_condition@K@__crt_strtox@@YA_NIK@Z 00483720 f i libucrtd:atox.obj
 0001:00082790       ??$is_overflow_condition@_K@__crt_strtox@@YA_NI_K@Z 00483790 f i libucrtd:atox.obj
 0001:00082840       ??$make_c_string_character_source@D$$T@__crt_strtox@@YA?AV?$c_string_character_source@D@0@QBD$$T@Z 00483840 f i libucrtd:atox.obj
 0001:00082860       ??$make_c_string_character_source@_W$$T@__crt_strtox@@YA?AV?$c_string_character_source@_W@0@QB_W$$T@Z 00483860 f i libucrtd:atox.obj
 0001:00082880       ??$parse_integer@KV?$c_string_character_source@D@__crt_strtox@@@__crt_strtox@@YAKQAU__crt_locale_pointers@@V?$c_string_character_source@D@0@H_N@Z 00483880 f i libucrtd:atox.obj
 0001:00082cd0       ??$parse_integer@KV?$c_string_character_source@_W@__crt_strtox@@@__crt_strtox@@YAKQAU__crt_locale_pointers@@V?$c_string_character_source@_W@0@H_N@Z 00483cd0 f i libucrtd:atox.obj
 0001:00083120       ??$parse_integer@_KV?$c_string_character_source@D@__crt_strtox@@@__crt_strtox@@YA_KQAU__crt_locale_pointers@@V?$c_string_character_source@D@0@H_N@Z 00484120 f i libucrtd:atox.obj
 0001:00083640       ??$parse_integer@_KV?$c_string_character_source@_W@__crt_strtox@@@__crt_strtox@@YA_KQAU__crt_locale_pointers@@V?$c_string_character_source@_W@0@H_N@Z 00484640 f i libucrtd:atox.obj
 0001:00083b80       ??$parse_integer_from_string@JD$$T@__crt_strtox@@YAJQBD$$THQAU__crt_locale_pointers@@@Z 00484b80 f i libucrtd:atox.obj
 0001:00083bd0       ??$parse_integer_from_string@J_W$$T@__crt_strtox@@YAJQB_W$$THQAU__crt_locale_pointers@@@Z 00484bd0 f i libucrtd:atox.obj
 0001:00083c20       ??$parse_integer_from_string@_JD$$T@__crt_strtox@@YA_JQBD$$THQAU__crt_locale_pointers@@@Z 00484c20 f i libucrtd:atox.obj
 0001:00083c70       ??$parse_integer_from_string@_J_W$$T@__crt_strtox@@YA_JQB_W$$THQAU__crt_locale_pointers@@@Z 00484c70 f i libucrtd:atox.obj
 0001:00083cc0       ??0?$c_string_character_source@D@__crt_strtox@@QAE@QBDQAPBD@Z 00484cc0 f i libucrtd:atox.obj
 0001:00083d00       ??0?$c_string_character_source@_W@__crt_strtox@@QAE@QB_WQAPB_W@Z 00484d00 f i libucrtd:atox.obj
 0001:00083d40       ??1?$c_string_character_source@D@__crt_strtox@@QAE@XZ 00484d40 f i libucrtd:atox.obj
 0001:00083d70       ??1?$c_string_character_source@_W@__crt_strtox@@QAE@XZ 00484d70 f i libucrtd:atox.obj
 0001:00083da0       ?get@?$c_string_character_source@D@__crt_strtox@@QAEDXZ 00484da0 f i libucrtd:atox.obj
 0001:00083de0       ?get@?$c_string_character_source@_W@__crt_strtox@@QAE_WXZ 00484de0 f i libucrtd:atox.obj
 0001:00083e20       ?is_space@__crt_strtox@@YA_NDQAU__crt_locale_pointers@@@Z 00484e20 f i libucrtd:atox.obj
 0001:00083e70       ?is_space@__crt_strtox@@YA_N_WPAU__crt_locale_pointers@@@Z 00484e70 f i libucrtd:atox.obj
 0001:00083eb0       ?maximum_signed_value@__crt_strtox@@YAJK@Z 00484eb0 f i libucrtd:atox.obj
 0001:00083ec0       ?maximum_signed_value@__crt_strtox@@YA_J_K@Z 00484ec0 f i libucrtd:atox.obj
 0001:00083ee0       ?minimum_signed_value@__crt_strtox@@YAJK@Z 00484ee0 f i libucrtd:atox.obj
 0001:00083ef0       ?minimum_signed_value@__crt_strtox@@YA_J_K@Z 00484ef0 f i libucrtd:atox.obj
 0001:00083f10       ?parse_digit@__crt_strtox@@YAID@Z 00484f10 f i libucrtd:atox.obj
 0001:00083f90       ?parse_digit@__crt_strtox@@YAI_W@Z 00484f90 f i libucrtd:atox.obj
 0001:00084030       ?restore_state@?$c_string_character_source@D@__crt_strtox@@QAE_NQBD@Z 00485030 f i libucrtd:atox.obj
 0001:00084050       ?restore_state@?$c_string_character_source@_W@__crt_strtox@@QAE_NQB_W@Z 00485050 f i libucrtd:atox.obj
 0001:00084070       ?save_state@?$c_string_character_source@D@__crt_strtox@@QBEPBDXZ 00485070 f i libucrtd:atox.obj
 0001:00084090       ?save_state@?$c_string_character_source@_W@__crt_strtox@@QBEPB_WXZ 00485090 f i libucrtd:atox.obj
 0001:000840b0       ?unget@?$c_string_character_source@D@__crt_strtox@@QAEXD@Z 004850b0 f i libucrtd:atox.obj
 0001:00084180       ?unget@?$c_string_character_source@_W@__crt_strtox@@QAEX_W@Z 00485180 f i libucrtd:atox.obj
 0001:00084250       ?validate@?$c_string_character_source@D@__crt_strtox@@QBE_NXZ 00485250 f i libucrtd:atox.obj
 0001:00084310       ?validate@?$c_string_character_source@_W@__crt_strtox@@QBE_NXZ 00485310 f i libucrtd:atox.obj
 0001:000843d0       ?wide_character_to_digit@__crt_strtox@@YAH_W@Z 004853d0 f i libucrtd:atox.obj
 0001:000847c0       __atoi64                   004857c0 f   libucrtd:atox.obj
 0001:000847e0       __atoi64_l                 004857e0 f   libucrtd:atox.obj
 0001:00084810       __atoi_l                   00485810 f   libucrtd:atox.obj
 0001:00084840       __atol_l                   00485840 f   libucrtd:atox.obj
 0001:00084870       __atoll_l                  00485870 f   libucrtd:atox.obj
 0001:000848a0       __wtoi                     004858a0 f   libucrtd:atox.obj
 0001:000848c0       __wtoi64                   004858c0 f   libucrtd:atox.obj
 0001:000848e0       __wtoi64_l                 004858e0 f   libucrtd:atox.obj
 0001:00084910       __wtoi_l                   00485910 f   libucrtd:atox.obj
 0001:00084940       __wtol                     00485940 f   libucrtd:atox.obj
 0001:00084960       __wtol_l                   00485960 f   libucrtd:atox.obj
 0001:00084990       __wtoll                    00485990 f   libucrtd:atox.obj
 0001:000849b0       __wtoll_l                  004859b0 f   libucrtd:atox.obj
 0001:000849e0       _atoi                      004859e0 f   libucrtd:atox.obj
 0001:00084a00       _atol                      00485a00 f   libucrtd:atox.obj
 0001:00084a20       _atoll                     00485a20 f   libucrtd:atox.obj
 0001:00084a40       ??$__crt_fast_decode_pointer@P6AXPB_W00II@Z@@YAP6AXPB_W00II@ZQ6AX000II@Z@Z 00485a40 f i libucrtd:invalid_parameter.obj
 0001:00084a80       ??$__crt_fast_encode_pointer@P6AXPB_W00II@Z@@YAP6AXPB_W00II@ZQ6AX000II@Z@Z 00485a80 f i libucrtd:invalid_parameter.obj
 0001:00084ac0       ?initialize@?$dual_state_global@P6AXPB_W00II@Z@__crt_state_management@@QAEXQ6AXPB_W00II@Z@Z 00485ac0 f i libucrtd:invalid_parameter.obj
 0001:00084b10       ?value@?$dual_state_global@P6AXPB_W00II@Z@__crt_state_management@@QAEAAP6AXPB_W00II@ZXZ 00485b10 f i libucrtd:invalid_parameter.obj
 0001:00084b30       ___acrt_call_reportfault   00485b30 f   libucrtd:invalid_parameter.obj
 0001:00084ce0       ___acrt_initialize_invalid_parameter_handler 00485ce0 f   libucrtd:invalid_parameter.obj
 0001:00084d00       __get_invalid_parameter_handler 00485d00 f   libucrtd:invalid_parameter.obj
 0001:00084d30       __get_thread_local_invalid_parameter_handler 00485d30 f   libucrtd:invalid_parameter.obj
 0001:00084d60       __invalid_parameter        00485d60 f   libucrtd:invalid_parameter.obj
 0001:00084e60       __invalid_parameter_noinfo 00485e60 f   libucrtd:invalid_parameter.obj
 0001:00084e80       __invalid_parameter_noinfo_noreturn 00485e80 f   libucrtd:invalid_parameter.obj
 0001:00084ec0       __invoke_watson            00485ec0 f   libucrtd:invalid_parameter.obj
 0001:00084f10       __set_invalid_parameter_handler 00485f10 f   libucrtd:invalid_parameter.obj
 0001:00084f70       __set_thread_local_invalid_parameter_handler 00485f70 f   libucrtd:invalid_parameter.obj
 0001:00084fb0       ___acrt_errno_from_os_error 00485fb0 f   libucrtd:errno.obj
 0001:00085050       ___acrt_errno_map_os_error 00486050 f   libucrtd:errno.obj
 0001:00085090       ___doserrno                00486090 f   libucrtd:errno.obj
 0001:000850c0       __errno                    004860c0 f   libucrtd:errno.obj
 0001:000850f0       __get_doserrno             004860f0 f   libucrtd:errno.obj
 0001:000851a0       __get_errno                004861a0 f   libucrtd:errno.obj
 0001:00085250       __set_doserrno             00486250 f   libucrtd:errno.obj
 0001:00085290       __set_errno                00486290 f   libucrtd:errno.obj
 0001:00086800       __i64toa                   00487800 f   libucrtd:xtoa.obj
 0001:00086870       __i64toa_s                 00487870 f   libucrtd:xtoa.obj
 0001:000868e0       __i64tow                   004878e0 f   libucrtd:xtoa.obj
 0001:00086950       __i64tow_s                 00487950 f   libucrtd:xtoa.obj
 0001:000869c0       __itoa                     004879c0 f   libucrtd:xtoa.obj
 0001:00086a20       __itoa_s                   00487a20 f   libucrtd:xtoa.obj
 0001:00086a80       __itow                     00487a80 f   libucrtd:xtoa.obj
 0001:00086ae0       __itow_s                   00487ae0 f   libucrtd:xtoa.obj
 0001:00086b40       __ltoa                     00487b40 f   libucrtd:xtoa.obj
 0001:00086ba0       __ltoa_s                   00487ba0 f   libucrtd:xtoa.obj
 0001:00086c00       __ltow                     00487c00 f   libucrtd:xtoa.obj
 0001:00086c60       __ltow_s                   00487c60 f   libucrtd:xtoa.obj
 0001:00086cc0       __ui64toa                  00487cc0 f   libucrtd:xtoa.obj
 0001:00086cf0       __ui64toa_s                00487cf0 f   libucrtd:xtoa.obj
 0001:00086d20       __ui64tow                  00487d20 f   libucrtd:xtoa.obj
 0001:00086d50       __ui64tow_s                00487d50 f   libucrtd:xtoa.obj
 0001:00086d80       __ultoa                    00487d80 f   libucrtd:xtoa.obj
 0001:00086db0       __ultoa_s                  00487db0 f   libucrtd:xtoa.obj
 0001:00086de0       __ultow                    00487de0 f   libucrtd:xtoa.obj
 0001:00086e10       __ultow_s                  00487e10 f   libucrtd:xtoa.obj
 0001:00086e40       __set_error_mode           00487e40 f   libucrtd:set_error_mode.obj
 0001:00087460       _wcscat_s                  00488460 f   libucrtd:wcscat_s.obj
 0001:00087870       _wcscpy_s                  00488870 f   libucrtd:wcscpy_s.obj
 0001:00087ea0       _wcsncat_s                 00488ea0 f   libucrtd:wcsncat_s.obj
 0001:000883e0       _strcat_s                  004893e0 f   libucrtd:strcat_s.obj
 0001:000889f0       _strncat_s                 004899f0 f   libucrtd:strncat_s.obj
 0001:00088dc0       ??$message_box@$$TAAPBDAAPBDAAI@?$__crt_char_traits@D@@SAH$$QA$$TAAPBD1AAI@Z 00489dc0 f i libucrtd:crtmbox.obj
 0001:00088df0       ??$message_box@$$TAAPB_WAAPB_WAAI@?$__crt_char_traits@_W@@SAH$$QA$$TAAPB_W1AAI@Z 00489df0 f i libucrtd:crtmbox.obj
 0001:00088e20       ??$message_box@$$TABQBDABQBDK@?$__crt_char_traits@D@@SAH$$QA$$TABQBD1$$QAK@Z 00489e20 f i libucrtd:crtmbox.obj
 0001:00088e50       ??$message_box@$$TABQB_WABQB_WK@?$__crt_char_traits@_W@@SAH$$QA$$TABQB_W1$$QAK@Z 00489e50 f i libucrtd:crtmbox.obj
 0001:00088e80       ??$message_box@PAUHWND__@@ABQBDABQBDABI@?$__crt_char_traits@D@@SAH$$QAPAUHWND__@@ABQBD1ABI@Z 00489e80 f i libucrtd:crtmbox.obj
 0001:00088eb0       ??$message_box@PAUHWND__@@ABQB_WABQB_WABI@?$__crt_char_traits@_W@@SAH$$QAPAUHWND__@@ABQB_W1ABI@Z 00489eb0 f i libucrtd:crtmbox.obj
 0001:00088fa0       ??$output_debug_string@ABQBD@?$__crt_char_traits@D@@SAXABQBD@Z 00489fa0 f i libucrtd:crtmbox.obj
 0001:00088fc0       ??$output_debug_string@ABQB_W@?$__crt_char_traits@_W@@SAXABQB_W@Z 00489fc0 f i libucrtd:crtmbox.obj
 0001:00088fe0       ??0?$__crt_unique_handle_t@U__crt_handle_traits@@@@QAE@QAX@Z 00489fe0 f i libucrtd:crtmbox.obj
 0001:00089000       ??1?$__crt_unique_handle_t@U__crt_handle_traits@@@@QAE@XZ 0048a000 f i libucrtd:crtmbox.obj
 0001:00089020       ??B?$__crt_unique_handle_t@U__crt_handle_traits@@@@QBE_NXZ 0048a020 f i libucrtd:crtmbox.obj
 0001:00089040       ?close@?$__crt_unique_handle_t@U__crt_handle_traits@@@@QAEXXZ 0048a040 f i libucrtd:crtmbox.obj
 0001:00089080       ?close@__crt_handle_traits@@SA_NPAX@Z 0048a080 f i libucrtd:crtmbox.obj
 0001:000890c0       ?get@?$__crt_unique_handle_t@U__crt_handle_traits@@@@QBEPAXXZ 0048a0c0 f i libucrtd:crtmbox.obj
 0001:000890e0       ?get_invalid_value@__crt_handle_traits@@SAPAXXZ 0048a0e0 f i libucrtd:crtmbox.obj
 0001:000890f0       ?is_valid@?$__crt_unique_handle_t@U__crt_handle_traits@@@@QBE_NXZ 0048a0f0 f i libucrtd:crtmbox.obj
 0001:00089130       ___acrt_show_narrow_message_box 0048a130 f   libucrtd:crtmbox.obj
 0001:00089160       ___acrt_show_wide_message_box 0048a160 f   libucrtd:crtmbox.obj
 0001:00089190       ??0__crt_stdio_stream@@QAE@QAU__crt_stdio_stream_data@@@Z 0048a190 f i libucrtd:fflush.obj
 0001:000891b0       ?__acrt_stdio_reset_buffer@@YAXV__crt_stdio_stream@@@Z 0048a1b0 f i libucrtd:fflush.obj
 0001:000891f0       ?has_all_of@__crt_stdio_stream@@QBE_NJ@Z 0048a1f0 f i libucrtd:fflush.obj
 0001:00089240       ?has_big_buffer@__crt_stdio_stream@@QBE_NXZ 0048a240 f i libucrtd:fflush.obj
 0001:00089260       ___acrt_stdio_flush_nolock 0048a260 f   libucrtd:fflush.obj
 0001:00089370       __fflush_nolock            0048a370 f   libucrtd:fflush.obj
 0001:00089410       __flushall                 0048a410 f   libucrtd:fflush.obj
 0001:00089630       _fflush                    0048a630 f   libucrtd:fflush.obj
 0001:00089700       ??$?RV<lambda_c58464cc0393550ab06f01720b646001>@@AAV<lambda_108d78a972a15edee025c8b3efe121dc>@@V<lambda_1a39be00af773e7199199dafcba04cc5>@@@?$__crt_seh_guarded_call@H@@QAEH$$QAV<lambda_c58464cc0393550ab06f01720b646001>@@AAV<lambda_108d78a972a15edee025c8b3efe121dc>@@$$QAV<lambda_1a39be00af773e7199199dafcba04cc5>@@@Z 0048a700 f i libucrtd:setvbuf.obj
 0001:000897b0       ??$__acrt_lock_stream_and_call@V<lambda_108d78a972a15edee025c8b3efe121dc>@@@@YAHQAU_iobuf@@$$QAV<lambda_108d78a972a15edee025c8b3efe121dc>@@@Z 0048a7b0 f i libucrtd:setvbuf.obj
 0001:00089af0       _setvbuf                   0048aaf0 f   libucrtd:setvbuf.obj
 0001:00089d40       ??$?B$$A6AXH@Z@__crt_fast_encoded_nullptr_t@@QBEP6AXH@ZXZ 0048ad40 f i libucrtd:signal.obj
 0001:00089d60       ??$?RV<lambda_a048d3beccc847880fc8490e18b82769>@@AAV<lambda_ec61778202f4f5fc7e7711acc23c3bca>@@V<lambda_f7496a158712204296dd6628a163878e>@@@?$__crt_seh_guarded_call@P6AXH@Z@@QAEP6AXH@Z$$QAV<lambda_a048d3beccc847880fc8490e18b82769>@@AAV<lambda_ec61778202f4f5fc7e7711acc23c3bca>@@$$QAV<lambda_f7496a158712204296dd6628a163878e>@@@Z 0048ad60 f i libucrtd:signal.obj
 0001:00089e10       ??$__acrt_lock_and_call@V<lambda_ec61778202f4f5fc7e7711acc23c3bca>@@@@YAP6AXH@ZW4__acrt_lock_id@@$$QAV<lambda_ec61778202f4f5fc7e7711acc23c3bca>@@@Z 0048ae10 f i libucrtd:signal.obj
 0001:00089e60       ??$__crt_fast_decode_pointer@P6AXH@Z@@YAP6AXH@ZQ6AXH@Z@Z 0048ae60 f i libucrtd:signal.obj
 0001:00089ea0       ??$__crt_fast_encode_pointer@P6AXH@Z@@YAP6AXH@ZQ6AXH@Z@Z 0048aea0 f i libucrtd:signal.obj
 0001:0008a220       ?initialize@?$dual_state_global@P6AXH@Z@__crt_state_management@@QAEXQ6AXH@Z@Z 0048b220 f i libucrtd:signal.obj
 0001:0008a340       ?value@?$dual_state_global@P6AXH@Z@__crt_state_management@@QAEAAP6AXH@ZXZ 0048b340 f i libucrtd:signal.obj
 0001:0008a360       ___acrt_get_sigabrt_handler 0048b360 f   libucrtd:signal.obj
 0001:0008a380       ___acrt_initialize_signal_handlers 0048b380 f   libucrtd:signal.obj
 0001:0008a3d0       ___fpecode                 0048b3d0 f   libucrtd:signal.obj
 0001:0008a3f0       ___pxcptinfoptrs           0048b3f0 f   libucrtd:signal.obj
 0001:0008a410       _raise                     0048b410 f   libucrtd:signal.obj
 0001:0008a8e0       _signal                    0048b8e0 f   libucrtd:signal.obj
 0001:0008ac10       __CrtGetDebugFillThreshold 0048bc10 f   libucrtd:debug_fill_threshold.obj
 0001:0008ac20       __CrtSetDebugFillThreshold 0048bc20 f   libucrtd:debug_fill_threshold.obj
 0001:0008ac50       ??$make_c_string_character_source@DPAPAD@__crt_strtox@@YA?AV?$c_string_character_source@D@0@QBDQAPAD@Z 0048bc50 f i libucrtd:strtox.obj
 0001:0008ac70       ??$make_c_string_character_source@_WPAPA_W@__crt_strtox@@YA?AV?$c_string_character_source@_W@0@QB_WQAPA_W@Z 0048bc70 f i libucrtd:strtox.obj
 0001:0008ac90       ??$parse_integer_from_string@JDPAPAD@__crt_strtox@@YAJQBDQAPADHQAU__crt_locale_pointers@@@Z 0048bc90 f i libucrtd:strtox.obj
 0001:0008ace0       ??$parse_integer_from_string@J_WPAPA_W@__crt_strtox@@YAJQB_WQAPA_WHQAU__crt_locale_pointers@@@Z 0048bce0 f i libucrtd:strtox.obj
 0001:0008ad30       ??$parse_integer_from_string@KDPAPAD@__crt_strtox@@YAKQBDQAPADHQAU__crt_locale_pointers@@@Z 0048bd30 f i libucrtd:strtox.obj
 0001:0008ad80       ??$parse_integer_from_string@K_WPAPA_W@__crt_strtox@@YAKQB_WQAPA_WHQAU__crt_locale_pointers@@@Z 0048bd80 f i libucrtd:strtox.obj
 0001:0008add0       ??$parse_integer_from_string@_JDPAPAD@__crt_strtox@@YA_JQBDQAPADHQAU__crt_locale_pointers@@@Z 0048bdd0 f i libucrtd:strtox.obj
 0001:0008ae20       ??$parse_integer_from_string@_J_WPAPA_W@__crt_strtox@@YA_JQB_WQAPA_WHQAU__crt_locale_pointers@@@Z 0048be20 f i libucrtd:strtox.obj
 0001:0008ae70       ??$parse_integer_from_string@_KDPAPAD@__crt_strtox@@YA_KQBDQAPADHQAU__crt_locale_pointers@@@Z 0048be70 f i libucrtd:strtox.obj
 0001:0008aec0       ??$parse_integer_from_string@_K_WPAPA_W@__crt_strtox@@YA_KQB_WQAPA_WHQAU__crt_locale_pointers@@@Z 0048bec0 f i libucrtd:strtox.obj
 0001:0008af10       __strtoi64                 0048bf10 f   libucrtd:strtox.obj
 0001:0008af40       __strtoi64_l               0048bf40 f   libucrtd:strtox.obj
 0001:0008af70       __strtoimax_l              0048bf70 f   libucrtd:strtox.obj
 0001:0008afa0       __strtol_l                 0048bfa0 f   libucrtd:strtox.obj
 0001:0008afd0       __strtoll_l                0048bfd0 f   libucrtd:strtox.obj
 0001:0008b000       __strtoui64                0048c000 f   libucrtd:strtox.obj
 0001:0008b030       __strtoui64_l              0048c030 f   libucrtd:strtox.obj
 0001:0008b060       __strtoul_l                0048c060 f   libucrtd:strtox.obj
 0001:0008b090       __strtoull_l               0048c090 f   libucrtd:strtox.obj
 0001:0008b0c0       __strtoumax_l              0048c0c0 f   libucrtd:strtox.obj
 0001:0008b0f0       __wcstoi64                 0048c0f0 f   libucrtd:strtox.obj
 0001:0008b120       __wcstoi64_l               0048c120 f   libucrtd:strtox.obj
 0001:0008b150       __wcstoimax_l              0048c150 f   libucrtd:strtox.obj
 0001:0008b180       __wcstol_l                 0048c180 f   libucrtd:strtox.obj
 0001:0008b1b0       __wcstoll_l                0048c1b0 f   libucrtd:strtox.obj
 0001:0008b1e0       __wcstoui64                0048c1e0 f   libucrtd:strtox.obj
 0001:0008b210       __wcstoui64_l              0048c210 f   libucrtd:strtox.obj
 0001:0008b240       __wcstoul_l                0048c240 f   libucrtd:strtox.obj
 0001:0008b270       __wcstoull_l               0048c270 f   libucrtd:strtox.obj
 0001:0008b2a0       __wcstoumax_l              0048c2a0 f   libucrtd:strtox.obj
 0001:0008b2d0       _strtoimax                 0048c2d0 f   libucrtd:strtox.obj
 0001:0008b300       _strtol                    0048c300 f   libucrtd:strtox.obj
 0001:0008b330       _strtoll                   0048c330 f   libucrtd:strtox.obj
 0001:0008b360       _strtoul                   0048c360 f   libucrtd:strtox.obj
 0001:0008b390       _strtoull                  0048c390 f   libucrtd:strtox.obj
 0001:0008b3c0       _strtoumax                 0048c3c0 f   libucrtd:strtox.obj
 0001:0008b3f0       _wcstoimax                 0048c3f0 f   libucrtd:strtox.obj
 0001:0008b420       _wcstol                    0048c420 f   libucrtd:strtox.obj
 0001:0008b450       _wcstoll                   0048c450 f   libucrtd:strtox.obj
 0001:0008b480       _wcstoul                   0048c480 f   libucrtd:strtox.obj
 0001:0008b4b0       _wcstoull                  0048c4b0 f   libucrtd:strtox.obj
 0001:0008b4e0       _wcstoumax                 0048c4e0 f   libucrtd:strtox.obj
 0001:0008b510       __mbtowc_l                 0048c510 f   libucrtd:mbtowc.obj
 0001:0008b7e0       _mbtowc                    0048c7e0 f   libucrtd:mbtowc.obj
 0001:0008b810       __wctomb_l                 0048c810 f   libucrtd:wctomb.obj
 0001:0008b8b0       __wctomb_s_l               0048c8b0 f   libucrtd:wctomb.obj
 0001:0008bcc0       _wctomb                    0048ccc0 f   libucrtd:wctomb.obj
 0001:0008bd20       _wctomb_s                  0048cd20 f   libucrtd:wctomb.obj
 0001:0008c720       ??1?$__crt_simd_cleanup_guard@$00@@QAE@XZ 0048d720 f i libucrtd:strnlen.obj
 0001:0008c740       ??1?$__crt_simd_cleanup_guard@$0A@@@QAE@XZ 0048d740 f i libucrtd:strnlen.obj
 0001:0008c750       ?compare_equals@?$__crt_simd_traits@$00E@@SA?AT__m256i@@T2@0@Z 0048d750 f i libucrtd:strnlen.obj
 0001:0008c7a0       ?compare_equals@?$__crt_simd_traits@$00G@@SA?AT__m256i@@T2@0@Z 0048d7a0 f i libucrtd:strnlen.obj
 0001:0008c7f0       ?compare_equals@?$__crt_simd_traits@$0A@E@@SA?AT__m128i@@T2@0@Z 0048d7f0 f i libucrtd:strnlen.obj
 0001:0008c840       ?compare_equals@?$__crt_simd_traits@$0A@G@@SA?AT__m128i@@T2@0@Z 0048d840 f i libucrtd:strnlen.obj
 0001:0008c890       ?compute_byte_mask@?$__crt_simd_pack_traits@$00@@SAHT__m256i@@@Z 0048d890 f i libucrtd:strnlen.obj
 0001:0008c8d0       ?compute_byte_mask@?$__crt_simd_pack_traits@$0A@@@SAHT__m128i@@@Z 0048d8d0 f i libucrtd:strnlen.obj
 0001:0008c910       ?get_zero_pack@?$__crt_simd_pack_traits@$00@@SA?AT__m256i@@XZ 0048d910 f i libucrtd:strnlen.obj
 0001:0008c950       ?get_zero_pack@?$__crt_simd_pack_traits@$0A@@@SA?AT__m128i@@XZ 0048d950 f i libucrtd:strnlen.obj
 0001:0008c990       _strnlen                   0048d990 f   libucrtd:strnlen.obj
 0001:0008c9b0       _wcsnlen                   0048d9b0 f   libucrtd:strnlen.obj
 0001:0008c9d0       ??$?RU__acrt_ptd@@@__crt_internal_free_policy@@QBEXQBU__acrt_ptd@@@Z 0048d9d0 f i libucrtd:per_thread_data.obj
 0001:0008ca00       ??$?RV<lambda_3518db117f0e7cdb002338c5d3c47b6c>@@AAV<lambda_b2ea41f6bbb362cd97d94c6828d90b61>@@V<lambda_abdedf541bb04549bc734292b4a045d4>@@@?$__crt_seh_guarded_call@X@@QAEX$$QAV<lambda_3518db117f0e7cdb002338c5d3c47b6c>@@AAV<lambda_b2ea41f6bbb362cd97d94c6828d90b61>@@$$QAV<lambda_abdedf541bb04549bc734292b4a045d4>@@@Z 0048da00 f i libucrtd:per_thread_data.obj
 0001:0008caa0       ??$?RV<lambda_5b71d36f03204c0beab531769a5b5694>@@AAV<lambda_be2b3da3f62db62e9dad5dc70221a656>@@V<lambda_8f9ce462984622f9bf76b59e2aaaf805>@@@?$__crt_seh_guarded_call@X@@QAEX$$QAV<lambda_5b71d36f03204c0beab531769a5b5694>@@AAV<lambda_be2b3da3f62db62e9dad5dc70221a656>@@$$QAV<lambda_8f9ce462984622f9bf76b59e2aaaf805>@@@Z 0048daa0 f i libucrtd:per_thread_data.obj
 0001:0008cb40       ??$?RV<lambda_952b238c83a62ef8e81c72265e1e9aa0>@@AAV<lambda_801f60a70ab65355beb13c41cbe335bb>@@V<lambda_84d84f98815add542a0d6e6ca338feb2>@@@?$__crt_seh_guarded_call@X@@QAEX$$QAV<lambda_952b238c83a62ef8e81c72265e1e9aa0>@@AAV<lambda_801f60a70ab65355beb13c41cbe335bb>@@$$QAV<lambda_84d84f98815add542a0d6e6ca338feb2>@@@Z 0048db40 f i libucrtd:per_thread_data.obj
 0001:0008cbe0       ??$?RV<lambda_9df27f884b057bc3edfc946cb5b7cf47>@@AAV<lambda_e69574bed617af4e071282c136b37893>@@V<lambda_cc0d902bcbbeb830f749456577db4721>@@@?$__crt_seh_guarded_call@X@@QAEX$$QAV<lambda_9df27f884b057bc3edfc946cb5b7cf47>@@AAV<lambda_e69574bed617af4e071282c136b37893>@@$$QAV<lambda_cc0d902bcbbeb830f749456577db4721>@@@Z 0048dbe0 f i libucrtd:per_thread_data.obj
 0001:0008cc80       ??$__acrt_lock_and_call@V<lambda_801f60a70ab65355beb13c41cbe335bb>@@@@YAXW4__acrt_lock_id@@$$QAV<lambda_801f60a70ab65355beb13c41cbe335bb>@@@Z 0048dc80 f i libucrtd:per_thread_data.obj
 0001:0008ccd0       ??$__acrt_lock_and_call@V<lambda_b2ea41f6bbb362cd97d94c6828d90b61>@@@@YAXW4__acrt_lock_id@@$$QAV<lambda_b2ea41f6bbb362cd97d94c6828d90b61>@@@Z 0048dcd0 f i libucrtd:per_thread_data.obj
 0001:0008cd20       ??$__acrt_lock_and_call@V<lambda_be2b3da3f62db62e9dad5dc70221a656>@@@@YAXW4__acrt_lock_id@@$$QAV<lambda_be2b3da3f62db62e9dad5dc70221a656>@@@Z 0048dd20 f i libucrtd:per_thread_data.obj
 0001:0008cd70       ??$__acrt_lock_and_call@V<lambda_e69574bed617af4e071282c136b37893>@@@@YAXW4__acrt_lock_id@@$$QAV<lambda_e69574bed617af4e071282c136b37893>@@@Z 0048dd70 f i libucrtd:per_thread_data.obj
 0001:0008cfd0       ??0?$__crt_unique_heap_ptr@U__acrt_ptd@@U__crt_internal_free_policy@@@@QAE@QAU__acrt_ptd@@@Z 0048dfd0 f i libucrtd:per_thread_data.obj
 0001:0008cff0       ??0__crt_scoped_get_last_error_reset@@QAE@XZ 0048dff0 f i libucrtd:per_thread_data.obj
 0001:0008d020       ??1?$__crt_unique_heap_ptr@U__acrt_ptd@@U__crt_internal_free_policy@@@@QAE@XZ 0048e020 f i libucrtd:per_thread_data.obj
 0001:0008d040       ??1__crt_scoped_get_last_error_reset@@QAE@XZ 0048e040 f i libucrtd:per_thread_data.obj
 0001:0008d060       ??B?$__crt_unique_heap_ptr@U__acrt_ptd@@U__crt_internal_free_policy@@@@QBE_NXZ 0048e060 f i libucrtd:per_thread_data.obj
 0001:0008d420       ?dangerous_get_state_array@?$dual_state_global@PAU__crt_locale_data@@@__crt_state_management@@QAEPAPAU__crt_locale_data@@XZ 0048e420 f i libucrtd:per_thread_data.obj
 0001:0008d600       ?detach@?$__crt_unique_heap_ptr@U__acrt_ptd@@U__crt_internal_free_policy@@@@QAEPAU__acrt_ptd@@XZ 0048e600 f i libucrtd:per_thread_data.obj
 0001:0008d630       ?get@?$__crt_unique_heap_ptr@U__acrt_ptd@@U__crt_internal_free_policy@@@@QBEPAU__acrt_ptd@@XZ 0048e630 f i libucrtd:per_thread_data.obj
 0001:0008d7b0       ?is_valid@?$__crt_unique_heap_ptr@U__acrt_ptd@@U__crt_internal_free_policy@@@@QBE_NXZ 0048e7b0 f i libucrtd:per_thread_data.obj
 0001:0008d7f0       ?release@?$__crt_unique_heap_ptr@U__acrt_ptd@@U__crt_internal_free_policy@@@@QAEXXZ 0048e7f0 f i libucrtd:per_thread_data.obj
 0001:0008d910       ___acrt_freeptd            0048e910 f   libucrtd:per_thread_data.obj
 0001:0008d950       ___acrt_getptd             0048e950 f   libucrtd:per_thread_data.obj
 0001:0008d980       ___acrt_getptd_noexit      0048e980 f   libucrtd:per_thread_data.obj
 0001:0008d990       ___acrt_initialize_ptd     0048e990 f   libucrtd:per_thread_data.obj
 0001:0008d9e0       ___acrt_uninitialize_ptd   0048e9e0 f   libucrtd:per_thread_data.obj
 0001:0008da10       ___threadhandle            0048ea10 f   libucrtd:per_thread_data.obj
 0001:0008da20       ___threadid                0048ea20 f   libucrtd:per_thread_data.obj
 0001:0008da30       ___acrt_update_locale_info 0048ea30 f   libucrtd:locale_update.obj
 0001:0008da80       ___acrt_update_multibyte_info 0048ea80 f   libucrtd:locale_update.obj
 0001:0008dac0       ?__acrt_fp_classify@@YA?AW4__acrt_fp_class@@ABN@Z 0048eac0 f i libucrtd:cvt.obj
 0001:0008dc20       ?__acrt_fp_is_negative@@YA_NABN@Z 0048ec20 f i libucrtd:cvt.obj
 0001:0008f0d0       ?strrchr@@YAPADQADH@Z      004900d0 f i libucrtd:cvt.obj
 0001:0008f0f0       ___acrt_fp_format          004900f0 f   libucrtd:cvt.obj
 0001:0008f6a0       __fputwc_nolock            004906a0 f   libucrtd:fputwc.obj
 0001:0008f900       __fputwchar                00490900 f   libucrtd:fputwc.obj
 0001:0008f930       __putwc_nolock             00490930 f   libucrtd:fputwc.obj
 0001:0008f950       _fputwc                    00490950 f   libucrtd:fputwc.obj
 0001:0008faa0       _putwc                     00490aa0 f   libucrtd:fputwc.obj
 0001:0008fac0       _putwchar                  00490ac0 f   libucrtd:fputwc.obj
 0001:0008fae0       ?lowio_handle@__crt_stdio_stream@@QBEHXZ 00490ae0 f i libucrtd:fileno.obj
 0001:0008fb10       __fileno                   00490b10 f   libucrtd:fileno.obj
 0001:0008fbe0       __fputc_nolock             00490be0 f   libucrtd:fputc.obj
 0001:0008fc90       __fputchar                 00490c90 f   libucrtd:fputc.obj
 0001:0008fcc0       __putc_nolock              00490cc0 f   libucrtd:fputc.obj
 0001:0008fce0       _fputc                     00490ce0 f   libucrtd:fputc.obj
 0001:0008ffb0       _putc                      00490fb0 f   libucrtd:fputc.obj
 0001:0008ffd0       _putchar                   00490fd0 f   libucrtd:fputc.obj
 0001:0008fff0       __get_printf_count_output  00490ff0 f   libucrtd:printf_count_output.obj
 0001:00090030       __set_printf_count_output  00491030 f   libucrtd:printf_count_output.obj
 0001:000900a0       ?has_temporary_buffer@__crt_stdio_stream@@QBE_NXZ 004910a0 f i libucrtd:_sftbuf.obj
 0001:000900c0       ___acrt_stdio_begin_temporary_buffering_nolock 004910c0 f   libucrtd:_sftbuf.obj
 0001:000902f0       ___acrt_stdio_end_temporary_buffering_nolock 004912f0 f   libucrtd:_sftbuf.obj
 0001:00090390       ___p___mb_cur_max          00491390 f   libucrtd:nlsdata.obj
 0001:00090740       ___acrt_initialize_lowio   00491740 f   libucrtd:ioinit.obj
 0001:00090800       ___acrt_uninitialize_lowio 00491800 f   libucrtd:ioinit.obj
 0001:000908d0       ??$?B$$A6GHPA_WKJ@Z@__crt_fast_encoded_nullptr_t@@QBEP6GHPA_WKJ@ZXZ 004918d0 f i libucrtd:winapi_thunks.obj
 0001:000908f0       ??$?RV<lambda_9227be29367c048ad7fd93a717dcb1a1>@@AAV<lambda_a463b7b0560cfcaf9b17f27c6ef46564>@@V<lambda_ccea11b5727ccf69be64f5f5d9a08d9f>@@@?$__crt_seh_guarded_call@H@@QAEH$$QAV<lambda_9227be29367c048ad7fd93a717dcb1a1>@@AAV<lambda_a463b7b0560cfcaf9b17f27c6ef46564>@@$$QAV<lambda_ccea11b5727ccf69be64f5f5d9a08d9f>@@@Z 004918f0 f i libucrtd:winapi_thunks.obj
 0001:000909a0       ??$__acrt_lock_and_call@V<lambda_a463b7b0560cfcaf9b17f27c6ef46564>@@@@YAHW4__acrt_lock_id@@$$QAV<lambda_a463b7b0560cfcaf9b17f27c6ef46564>@@@Z 004919a0 f i libucrtd:winapi_thunks.obj
 0001:000909f0       ??$__crt_fast_decode_pointer@P6GHPA_WKJ@Z@@YAP6GHPA_WKJ@ZQ6GH0KJ@Z@Z 004919f0 f i libucrtd:winapi_thunks.obj
 0001:00090a30       ??$__crt_fast_encode_pointer@P6GHPA_WKJ@Z@@YAP6GHPA_WKJ@ZQ6GH0KJ@Z@Z 00491a30 f i libucrtd:winapi_thunks.obj
 0001:00091600       ___acrt_AreFileApisANSI@0  00492600 f   libucrtd:winapi_thunks.obj
 0001:00091660       ___acrt_CompareStringEx@36 00492660 f   libucrtd:winapi_thunks.obj
 0001:00091720       ___acrt_EnumSystemLocalesEx@16 00492720 f   libucrtd:winapi_thunks.obj
 0001:000917b0       ___acrt_FlsAlloc@4         004927b0 f   libucrtd:winapi_thunks.obj
 0001:00091820       ___acrt_FlsFree@4          00492820 f   libucrtd:winapi_thunks.obj
 0001:00091890       ___acrt_FlsGetValue@4      00492890 f   libucrtd:winapi_thunks.obj
 0001:00091900       ___acrt_FlsSetValue@8      00492900 f   libucrtd:winapi_thunks.obj
 0001:00091970       ___acrt_GetDateFormatEx@28 00492970 f   libucrtd:winapi_thunks.obj
 0001:00091a20       ___acrt_GetEnabledXStateFeatures@0 00492a20 f   libucrtd:winapi_thunks.obj
 0001:00091a80       ___acrt_GetFileInformationByHandleEx@16 00492a80 f   libucrtd:winapi_thunks.obj
 0001:00091b00       ___acrt_GetLocaleInfoEx@16 00492b00 f   libucrtd:winapi_thunks.obj
 0001:00091b90       ___acrt_GetSystemTimePreciseAsFileTime@4 00492b90 f   libucrtd:winapi_thunks.obj
 0001:00091c00       ___acrt_GetTimeFormatEx@24 00492c00 f   libucrtd:winapi_thunks.obj
 0001:00091cb0       ___acrt_GetUserDefaultLocaleName@8 00492cb0 f   libucrtd:winapi_thunks.obj
 0001:00091d30       ___acrt_GetXStateFeaturesMask@8 00492d30 f   libucrtd:winapi_thunks.obj
 0001:00091da0       ___acrt_InitializeCriticalSectionEx@12 00492da0 f   libucrtd:winapi_thunks.obj
 0001:00091e20       ___acrt_IsValidLocaleName@4 00492e20 f   libucrtd:winapi_thunks.obj
 0001:00091ea0       ___acrt_LCIDToLocaleName@16 00492ea0 f   libucrtd:winapi_thunks.obj
 0001:00091f30       ___acrt_LCMapStringEx@36   00492f30 f   libucrtd:winapi_thunks.obj
 0001:00091ff0       ___acrt_LocaleNameToLCID@8 00492ff0 f   libucrtd:winapi_thunks.obj
 0001:00092060       ___acrt_LocateXStateFeature@12 00493060 f   libucrtd:winapi_thunks.obj
 0001:000920d0       ___acrt_MessageBoxA@16     004930d0 f   libucrtd:winapi_thunks.obj
 0001:00092140       ___acrt_MessageBoxW@16     00493140 f   libucrtd:winapi_thunks.obj
 0001:000921b0       ___acrt_RoInitialize@4     004931b0 f   libucrtd:winapi_thunks.obj
 0001:00092210       ___acrt_RoUninitialize@0   00493210 f   libucrtd:winapi_thunks.obj
 0001:00092260       ___acrt_RtlGenRandom@8     00493260 f   libucrtd:winapi_thunks.obj
 0001:000922d0       ___acrt_SetThreadStackGuarantee@4 004932d0 f   libucrtd:winapi_thunks.obj
 0001:00092330       ___acrt_can_show_message_box 00493330 f   libucrtd:winapi_thunks.obj
 0001:00092370       ___acrt_can_use_vista_locale_apis 00493370 f   libucrtd:winapi_thunks.obj
 0001:000923a0       ___acrt_can_use_xstate_apis 004933a0 f   libucrtd:winapi_thunks.obj
 0001:000923d0       ___acrt_get_parent_window  004933d0 f   libucrtd:winapi_thunks.obj
 0001:00092470       ___acrt_initialize_winapi_thunks 00493470 f   libucrtd:winapi_thunks.obj
 0001:000924f0       ___acrt_is_interactive     004934f0 f   libucrtd:winapi_thunks.obj
 0001:000925c0       ___acrt_is_packaged_app    004935c0 f   libucrtd:winapi_thunks.obj
 0001:00092720       ___acrt_uninitialize_winapi_thunks 00493720 f   libucrtd:winapi_thunks.obj
 0001:000927b0       __fcloseall                004937b0 f   libucrtd:closeall.obj
 0001:00092930       ?has_crt_buffer@__crt_stdio_stream@@QBE_NXZ 00493930 f i libucrtd:_freebuf.obj
 0001:00092950       ___acrt_stdio_free_buffer_nolock 00493950 f   libucrtd:_freebuf.obj
 0001:00092a30       __fgetwc_nolock            00493a30 f   libucrtd:fgetwc.obj
 0001:00092dd0       __fgetwchar                00493dd0 f   libucrtd:fgetwc.obj
 0001:00092df0       __getwc_nolock             00493df0 f   libucrtd:fgetwc.obj
 0001:00092e10       _fgetwc                    00493e10 f   libucrtd:fgetwc.obj
 0001:00092f60       _getwc                     00493f60 f   libucrtd:fgetwc.obj
 0001:00092f80       _getwchar                  00493f80 f   libucrtd:fgetwc.obj
 0001:00092f90       __fgetc_nolock             00493f90 f   libucrtd:fgetc.obj
 0001:000930e0       __fgetchar                 004940e0 f   libucrtd:fgetc.obj
 0001:00093100       __getc_nolock              00494100 f   libucrtd:fgetc.obj
 0001:00093120       _fgetc                     00494120 f   libucrtd:fgetc.obj
 0001:00093410       _getc                      00494410 f   libucrtd:fgetc.obj
 0001:00093430       _getchar                   00494430 f   libucrtd:fgetc.obj
 0001:00093440       __fclose_nolock            00494440 f   libucrtd:fclose.obj
 0001:000935d0       _fclose                    004945d0 f   libucrtd:fclose.obj
 0001:00093770       ??$__acrt_stdio_parse_mode@D@@YA?AU__acrt_stdio_stream_mode@@QBD@Z 00494770 f i libucrtd:openfile.obj
 0001:000941f0       ??$__acrt_stdio_parse_mode@_W@@YA?AU__acrt_stdio_stream_mode@@QB_W@Z 004951f0 f i libucrtd:openfile.obj
 0001:00095050       ??$tcsncmp@AAPBDAAY02$$CBDI@?$__crt_char_traits@D@@SAHAAPBDAAY02$$CBD$$QAI@Z 00496050 f i libucrtd:openfile.obj
 0001:00095080       ??$tcsncmp@AAPB_WAAY02$$CB_WI@?$__crt_char_traits@_W@@SAHAAPB_WAAY02$$CB_W$$QAI@Z 00496080 f i libucrtd:openfile.obj
 0001:000950b0       ??$tcsnicmp@AAPBDAAY04$$CBDI@?$__crt_char_traits@D@@SAHAAPBDAAY04$$CBD$$QAI@Z 004960b0 f i libucrtd:openfile.obj
 0001:000950e0       ??$tcsnicmp@AAPBDAAY06$$CBDI@?$__crt_char_traits@D@@SAHAAPBDAAY06$$CBD$$QAI@Z 004960e0 f i libucrtd:openfile.obj
 0001:00095110       ??$tcsnicmp@AAPBDAAY07$$CBDI@?$__crt_char_traits@D@@SAHAAPBDAAY07$$CBD$$QAI@Z 00496110 f i libucrtd:openfile.obj
 0001:00095140       ??$tcsnicmp@AAPB_WAAY04$$CB_WI@?$__crt_char_traits@_W@@SAHAAPB_WAAY04$$CB_W$$QAI@Z 00496140 f i libucrtd:openfile.obj
 0001:00095170       ??$tcsnicmp@AAPB_WAAY06$$CB_WI@?$__crt_char_traits@_W@@SAHAAPB_WAAY06$$CB_W$$QAI@Z 00496170 f i libucrtd:openfile.obj
 0001:000951a0       ??$tcsnicmp@AAPB_WAAY07$$CB_WI@?$__crt_char_traits@_W@@SAHAAPB_WAAY07$$CB_W$$QAI@Z 004961a0 f i libucrtd:openfile.obj
 0001:000951d0       ??$tsopen_s@PAHABQBDABHABHH@?$__crt_char_traits@D@@SAH$$QAPAHABQBDABH2$$QAH@Z 004961d0 f i libucrtd:openfile.obj
 0001:00095210       ??$tsopen_s@PAHABQB_WABHABHH@?$__crt_char_traits@_W@@SAH$$QAPAHABQB_WABH2$$QAH@Z 00496210 f i libucrtd:openfile.obj
 0001:00095250       ?__acrt_stdio_parse_mode_D@@YA_NAAU__acrt_stdio_stream_mode@@@Z 00496250 f i libucrtd:openfile.obj
 0001:00095280       ?__acrt_stdio_parse_mode_N@@YA_NAAU__acrt_stdio_stream_mode@@@Z 00496280 f i libucrtd:openfile.obj
 0001:000952a0       ?__acrt_stdio_parse_mode_R@@YA_NAAU__acrt_stdio_stream_mode@@AA_N@Z 004962a0 f i libucrtd:openfile.obj
 0001:000952e0       ?__acrt_stdio_parse_mode_S@@YA_NAAU__acrt_stdio_stream_mode@@AA_N@Z 004962e0 f i libucrtd:openfile.obj
 0001:00095320       ?__acrt_stdio_parse_mode_T@@YA_NAAU__acrt_stdio_stream_mode@@@Z 00496320 f i libucrtd:openfile.obj
 0001:00095360       ?__acrt_stdio_parse_mode_b@@YA_NAAU__acrt_stdio_stream_mode@@@Z 00496360 f i libucrtd:openfile.obj
 0001:000953a0       ?__acrt_stdio_parse_mode_c@@YA_NAAU__acrt_stdio_stream_mode@@AA_N@Z 004963a0 f i libucrtd:openfile.obj
 0001:000953e0       ?__acrt_stdio_parse_mode_n@@YA_NAAU__acrt_stdio_stream_mode@@AA_N@Z 004963e0 f i libucrtd:openfile.obj
 0001:00095420       ?__acrt_stdio_parse_mode_plus@@YA_NAAU__acrt_stdio_stream_mode@@AA_N@Z 00496420 f i libucrtd:openfile.obj
 0001:000954a0       ?__acrt_stdio_parse_mode_t@@YA_NAAU__acrt_stdio_stream_mode@@@Z 004964a0 f i libucrtd:openfile.obj
 0001:000954e0       __openfile                 004964e0 f   libucrtd:openfile.obj
 0001:00095520       __wopenfile                00496520 f   libucrtd:openfile.obj
 0001:00095560       ??$?RV<lambda_11b4f7b0d3157825a5656a18eba1ae27>@@AAV<lambda_b51c0495177f500e782686251704ae76>@@V<lambda_cf89b47920b5017557bfe891e78aca36>@@@?$__crt_seh_guarded_call@I@@QAEI$$QAV<lambda_11b4f7b0d3157825a5656a18eba1ae27>@@AAV<lambda_b51c0495177f500e782686251704ae76>@@$$QAV<lambda_cf89b47920b5017557bfe891e78aca36>@@@Z 00496560 f i libucrtd:fwrite.obj
 0001:00095610       ??$__acrt_lock_stream_and_call@V<lambda_b51c0495177f500e782686251704ae76>@@@@YAIQAU_iobuf@@$$QAV<lambda_b51c0495177f500e782686251704ae76>@@@Z 00496610 f i libucrtd:fwrite.obj
 0001:000957e0       __fwrite_nolock            004967e0 f   libucrtd:fwrite.obj
 0001:00095d80       _fwrite                    00496d80 f   libucrtd:fwrite.obj
 0001:00095e70       __chvalidator              00496e70 f   libucrtd:isctype.obj
 0001:00095ed0       __chvalidator_l            00496ed0 f   libucrtd:isctype.obj
 0001:00095f90       __isctype                  00496f90 f   libucrtd:isctype.obj
 0001:00095fe0       __isctype_l                00496fe0 f   libucrtd:isctype.obj
 0001:000961c0       ___ascii_strnicmp          004971c0 f   libucrtd:_strnicm.obj
 0001:00096240       ___iswcsym                 00497240 f i libucrtd:_wctype.obj
 0001:00096290       ___iswcsymf                00497290 f i libucrtd:_wctype.obj
 0001:000962e0       __isleadbyte_l             004972e0 f i libucrtd:_wctype.obj
 0001:00096330       __iswalnum_l               00497330 f i libucrtd:_wctype.obj
 0001:00096350       __iswalpha_l               00497350 f i libucrtd:_wctype.obj
 0001:00096370       __iswblank_l               00497370 f i libucrtd:_wctype.obj
 0001:000963b0       __iswcntrl_l               004973b0 f i libucrtd:_wctype.obj
 0001:000963d0       __iswcsym_l                004973d0 f i libucrtd:_wctype.obj
 0001:00096420       __iswcsymf_l               00497420 f i libucrtd:_wctype.obj
 0001:00096470       __iswdigit_l               00497470 f i libucrtd:_wctype.obj
 0001:00096490       __iswgraph_l               00497490 f i libucrtd:_wctype.obj
 0001:000964b0       __iswlower_l               004974b0 f i libucrtd:_wctype.obj
 0001:000964d0       __iswprint_l               004974d0 f i libucrtd:_wctype.obj
 0001:000964f0       __iswpunct_l               004974f0 f i libucrtd:_wctype.obj
 0001:00096510       __iswspace_l               00497510 f i libucrtd:_wctype.obj
 0001:00096530       __iswupper_l               00497530 f i libucrtd:_wctype.obj
 0001:00096550       __iswxdigit_l              00497550 f i libucrtd:_wctype.obj
 0001:00096570       _isleadbyte                00497570 f i libucrtd:_wctype.obj
 0001:00096590       _iswalnum                  00497590 f i libucrtd:_wctype.obj
 0001:000965b0       _iswalpha                  004975b0 f i libucrtd:_wctype.obj
 0001:000965d0       _iswascii                  004975d0 f i libucrtd:_wctype.obj
 0001:00096610       _iswblank                  00497610 f i libucrtd:_wctype.obj
 0001:00096650       _iswcntrl                  00497650 f i libucrtd:_wctype.obj
 0001:00096670       _iswdigit                  00497670 f i libucrtd:_wctype.obj
 0001:00096690       _iswgraph                  00497690 f i libucrtd:_wctype.obj
 0001:000966b0       _iswlower                  004976b0 f i libucrtd:_wctype.obj
 0001:000966d0       _iswprint                  004976d0 f i libucrtd:_wctype.obj
 0001:000966f0       _iswpunct                  004976f0 f i libucrtd:_wctype.obj
 0001:00096710       _iswspace                  00497710 f i libucrtd:_wctype.obj
 0001:00096730       _iswupper                  00497730 f i libucrtd:_wctype.obj
 0001:00096750       _iswxdigit                 00497750 f i libucrtd:_wctype.obj
 0001:00096770       ??0?$__crt_scoped_stack_ptr@_W@@QAE@U?$__crt_scoped_stack_ptr_tag@_W@@@Z 00497770 f i libucrtd:lcmapstringa.obj
 0001:00096790       ??0?$__crt_scoped_stack_ptr_tag@_W@@QAE@QA_W@Z 00497790 f i libucrtd:lcmapstringa.obj
 0001:000967b0       ??1?$__crt_scoped_stack_ptr@_W@@QAE@XZ 004977b0 f i libucrtd:lcmapstringa.obj
 0001:000967e0       ??B?$__crt_scoped_stack_ptr@_W@@QBE_NXZ 004977e0 f i libucrtd:lcmapstringa.obj
 0001:00096cd0       ?get@?$__crt_scoped_stack_ptr@_W@@QBEPA_WXZ 00497cd0 f i libucrtd:lcmapstringa.obj
 0001:00096cf0       __MallocaComputeSize       00497cf0 f i libucrtd:lcmapstringa.obj
 0001:00096d30       __MarkAllocaS              00497d30 f i libucrtd:lcmapstringa.obj
 0001:00096d60       ___acrt_LCMapStringA       00497d60 f   libucrtd:lcmapstringa.obj
 0001:00096dd0       __freea_crt                00497dd0 f i libucrtd:lcmapstringa.obj
 0001:00096e60       __cintrindisp2             00497e60 f   libucrtd:87cdisp.obj
 0001:00096ea4       __cintrindisp1             00497ea4 f   libucrtd:87cdisp.obj
 0001:00096ee7       __ctrandisp2               00497ee7 f   libucrtd:87cdisp.obj
 0001:00097076       __ctrandisp1               00498076 f   libucrtd:87cdisp.obj
 0001:000970a9       __fload                    004980a9 f   libucrtd:87cdisp.obj
 0001:00097190       __trandisp1                00498190 f   libucrtd:87disp.obj
 0001:000971f7       __trandisp2                004981f7 f   libucrtd:87disp.obj
 0001:00097283       __rttospopde               00498283     libucrtd:87disp.obj
 0001:00097288       __rttospop                 00498288     libucrtd:87disp.obj
 0001:0009728a       __rtnospop                 0049828a     libucrtd:87disp.obj
 0001:0009728c       __rttosnpop                0049828c     libucrtd:87disp.obj
 0001:0009728d       __rtnospopde               0049828d     libucrtd:87disp.obj
 0001:00097294       __rtzeropop                00498294     libucrtd:87disp.obj
 0001:00097296       __rtzeronpop               00498296     libucrtd:87disp.obj
 0001:0009729b       __rtzerospop               0049829b     libucrtd:87disp.obj
 0001:000972a8       __rtonepop                 004982a8     libucrtd:87disp.obj
 0001:000972aa       __rtonenpop                004982aa     libucrtd:87disp.obj
 0001:000972af       __tosnan1                  004982af     libucrtd:87disp.obj
 0001:000972da       __nosnan2                  004982da     libucrtd:87disp.obj
 0001:000972dc       __tosnan2                  004982dc     libucrtd:87disp.obj
 0001:00097304       __nan2                     00498304     libucrtd:87disp.obj
 0001:00097343       __rtindfpop                00498343     libucrtd:87disp.obj
 0001:00097345       __rtindfnpop               00498345     libucrtd:87disp.obj
 0001:00097356       __rttosnpopde              00498356     libucrtd:87disp.obj
 0001:00097360       __rtatan2inf               00498360     libucrtd:87disp.obj
 0001:0009737d       __rtchsifneg               0049837d     libucrtd:87disp.obj
 0001:00097940       _wcsncpy_s                 00498940 f   libucrtd:wcsncpy_s.obj
 0001:00098c50       ??$find_first_file_ex@ABQADW4_FINDEX_INFO_LEVELS@@PAU_WIN32_FIND_DATAA@@W4_FINDEX_SEARCH_OPS@@$$TH@?$__crt_char_traits@D@@SAPAXABQAD$$QAW4_FINDEX_INFO_LEVELS@@$$QAPAU_WIN32_FIND_DATAA@@$$QAW4_FINDEX_SEARCH_OPS@@$$QA$$T$$QAH@Z 00499c50 f i libucrtd:argv_wildcards.obj
 0001:00098c90       ??$find_first_file_ex@ABQA_WW4_FINDEX_INFO_LEVELS@@PAU_WIN32_FIND_DATAW@@W4_FINDEX_SEARCH_OPS@@$$TH@?$__crt_char_traits@_W@@SAPAXABQA_W$$QAW4_FINDEX_INFO_LEVELS@@$$QAPAU_WIN32_FIND_DATAW@@$$QAW4_FINDEX_SEARCH_OPS@@$$QA$$T$$QAH@Z 00499c90 f i libucrtd:argv_wildcards.obj
 0001:00098cd0       ??$find_next_file@PAXPAU_WIN32_FIND_DATAA@@@?$__crt_char_traits@D@@SAH$$QAPAX$$QAPAU_WIN32_FIND_DATAA@@@Z 00499cd0 f i libucrtd:argv_wildcards.obj
 0001:00098cf0       ??$find_next_file@PAXPAU_WIN32_FIND_DATAW@@@?$__crt_char_traits@_W@@SAH$$QAPAX$$QAPAU_WIN32_FIND_DATAW@@@Z 00499cf0 f i libucrtd:argv_wildcards.obj
 0001:00098d10       ??$tcsncpy_s@AAPADIAAPADABI@?$__crt_char_traits@D@@SAHAAPAD$$QAI0ABI@Z 00499d10 f i libucrtd:argv_wildcards.obj
 0001:00098d40       ??$tcsncpy_s@AAPA_WIAAPA_WABI@?$__crt_char_traits@_W@@SAHAAPA_W$$QAI0ABI@Z 00499d40 f i libucrtd:argv_wildcards.obj
 0001:00098d70       ??$tcsncpy_s@PAD$$CBIABQBDABI@?$__crt_char_traits@D@@SAH$$QAPAD$$QBIABQBDABI@Z 00499d70 f i libucrtd:argv_wildcards.obj
 0001:00098da0       ??$tcsncpy_s@PADABIABQBDABI@?$__crt_char_traits@D@@SAH$$QAPADABIABQBD1@Z 00499da0 f i libucrtd:argv_wildcards.obj
 0001:00098dd0       ??$tcsncpy_s@PA_W$$CBIABQB_WABI@?$__crt_char_traits@_W@@SAH$$QAPA_W$$QBIABQB_WABI@Z 00499dd0 f i libucrtd:argv_wildcards.obj
 0001:00098e00       ??$tcsncpy_s@PA_WABIABQB_WABI@?$__crt_char_traits@_W@@SAH$$QAPA_WABIABQB_W1@Z 00499e00 f i libucrtd:argv_wildcards.obj
 0001:00098e30       ??$tcspbrk@AAPADAAY02$$CBD@?$__crt_char_traits@D@@SAPADAAPADAAY02$$CBD@Z 00499e30 f i libucrtd:argv_wildcards.obj
 0001:00098e50       ??$tcspbrk@AAPA_WAAY02$$CB_W@?$__crt_char_traits@_W@@SAPA_WAAPA_WAAY02$$CB_W@Z 00499e50 f i libucrtd:argv_wildcards.obj
 0001:00098e70       ??0?$__crt_unique_handle_t@U__crt_findfile_traits@@@@QAE@QAX@Z 00499e70 f i libucrtd:argv_wildcards.obj
 0001:00098e90       ??0?$argument_list@D@?A0xfd16de3c@@QAE@XZ 00499e90 f i libucrtd:argv_wildcards.obj
 0001:00098ed0       ??0?$argument_list@_W@?A0xfd16de3c@@QAE@XZ 00499ed0 f i libucrtd:argv_wildcards.obj
 0001:00098f10       ??1?$__crt_unique_handle_t@U__crt_findfile_traits@@@@QAE@XZ 00499f10 f i libucrtd:argv_wildcards.obj
 0001:00098f30       ??1?$argument_list@D@?A0xfd16de3c@@QAE@XZ 00499f30 f i libucrtd:argv_wildcards.obj
 0001:00098fa0       ??1?$argument_list@_W@?A0xfd16de3c@@QAE@XZ 00499fa0 f i libucrtd:argv_wildcards.obj
 0001:000990f0       ?append@?$argument_list@D@?A0xfd16de3c@@QAEHQAD@Z 0049a0f0 f i libucrtd:argv_wildcards.obj
 0001:00099160       ?append@?$argument_list@_W@?A0xfd16de3c@@QAEHQA_W@Z 0049a160 f i libucrtd:argv_wildcards.obj
 0001:000991d0       ?begin@?$argument_list@D@?A0xfd16de3c@@QBEPAPADXZ 0049a1d0 f i libucrtd:argv_wildcards.obj
 0001:000991f0       ?begin@?$argument_list@_W@?A0xfd16de3c@@QBEPAPA_WXZ 0049a1f0 f i libucrtd:argv_wildcards.obj
 0001:00099210       ?close@?$__crt_unique_handle_t@U__crt_findfile_traits@@@@QAEXXZ 0049a210 f i libucrtd:argv_wildcards.obj
 0001:00099250       ?close@__crt_findfile_traits@@SA_NPAX@Z 0049a250 f i libucrtd:argv_wildcards.obj
 0001:00099290       ?end@?$argument_list@D@?A0xfd16de3c@@QBEPAPADXZ 0049a290 f i libucrtd:argv_wildcards.obj
 0001:000992b0       ?end@?$argument_list@_W@?A0xfd16de3c@@QBEPAPA_WXZ 0049a2b0 f i libucrtd:argv_wildcards.obj
 0001:000992d0       ?expand_if_necessary@?$argument_list@D@?A0xfd16de3c@@AAEHXZ 0049a2d0 f i libucrtd:argv_wildcards.obj
 0001:00099480       ?expand_if_necessary@?$argument_list@_W@?A0xfd16de3c@@AAEHXZ 0049a480 f i libucrtd:argv_wildcards.obj
 0001:00099630       ?get@?$__crt_unique_handle_t@U__crt_findfile_traits@@@@QBEPAXXZ 0049a630 f i libucrtd:argv_wildcards.obj
 0001:00099650       ?get_invalid_value@__crt_findfile_traits@@SAPAXXZ 0049a650 f i libucrtd:argv_wildcards.obj
 0001:00099690       ?size@?$argument_list@D@?A0xfd16de3c@@QBEIXZ 0049a690 f i libucrtd:argv_wildcards.obj
 0001:000996c0       ?size@?$argument_list@_W@?A0xfd16de3c@@QBEIXZ 0049a6c0 f i libucrtd:argv_wildcards.obj
 0001:000996f0       ?strpbrk@@YAPADQADQBD@Z    0049a6f0 f i libucrtd:argv_wildcards.obj
 0001:00099710       ?wcspbrk@@YAPA_WPA_WPB_W@Z 0049a710 f i libucrtd:argv_wildcards.obj
 0001:00099730       ___acrt_expand_narrow_argv_wildcards 0049a730 f   libucrtd:argv_wildcards.obj
 0001:00099750       ___acrt_expand_wide_argv_wildcards 0049a750 f   libucrtd:argv_wildcards.obj
 0001:00099770       ??$?RV<lambda_694f386f8d9a4d7d5afe1ac229f209db>@@AAV<lambda_2f900415df1f7f624cdaaefe86d0b1c0>@@V<lambda_17c2d007e408fdf31ce10a4c853c6ffa>@@@?$__crt_seh_guarded_call@X@@QAEX$$QAV<lambda_694f386f8d9a4d7d5afe1ac229f209db>@@AAV<lambda_2f900415df1f7f624cdaaefe86d0b1c0>@@$$QAV<lambda_17c2d007e408fdf31ce10a4c853c6ffa>@@@Z 0049a770 f i libucrtd:mbctype.obj
 0001:00099810       ??$__acrt_lock_and_call@V<lambda_2f900415df1f7f624cdaaefe86d0b1c0>@@@@YAXW4__acrt_lock_id@@$$QAV<lambda_2f900415df1f7f624cdaaefe86d0b1c0>@@@Z 0049a810 f i libucrtd:mbctype.obj
 0001:0009a3a0       ___acrt_initialize_multibyte 0049b3a0 f   libucrtd:mbctype.obj
 0001:0009a3d0       ___acrt_update_thread_multibyte_data 0049b3d0 f   libucrtd:mbctype.obj
 0001:0009a520       ___p__mbcasemap            0049b520 f   libucrtd:mbctype.obj
 0001:0009a540       ___p__mbctype              0049b540 f   libucrtd:mbctype.obj
 0001:0009a560       __getmbcp                  0049b560 f   libucrtd:mbctype.obj
 0001:0009a5f0       __setmbcp                  0049b5f0 f   libucrtd:mbctype.obj
 0001:0009a610       __setmbcp_nolock           0049b610 f   libucrtd:mbctype.obj
 0001:0009ac2b       __ismbbalnum               0049bc2b f   libucrtd:ismbbyte.obj
 0001:0009ac4c       __ismbbalnum_l             0049bc4c f   libucrtd:ismbbyte.obj
 0001:0009ac6f       __ismbbalpha               0049bc6f f   libucrtd:ismbbyte.obj
 0001:0009ac90       __ismbbalpha_l             0049bc90 f   libucrtd:ismbbyte.obj
 0001:0009acb3       __ismbbblank               0049bcb3 f   libucrtd:ismbbyte.obj
 0001:0009acde       __ismbbblank_l             0049bcde f   libucrtd:ismbbyte.obj
 0001:0009ad0b       __ismbbgraph               0049bd0b f   libucrtd:ismbbyte.obj
 0001:0009ad2c       __ismbbgraph_l             0049bd2c f   libucrtd:ismbbyte.obj
 0001:0009ad4f       __ismbbkalnum              0049bd4f f   libucrtd:ismbbyte.obj
 0001:0009ad6d       __ismbbkalnum_l            0049bd6d f   libucrtd:ismbbyte.obj
 0001:0009ad8c       __ismbbkana                0049bd8c f   libucrtd:ismbbyte.obj
 0001:0009ada3       __ismbbkana_l              0049bda3 f   libucrtd:ismbbyte.obj
 0001:0009ae08       __ismbbkprint              0049be08 f   libucrtd:ismbbyte.obj
 0001:0009ae26       __ismbbkprint_l            0049be26 f   libucrtd:ismbbyte.obj
 0001:0009ae45       __ismbbkpunct              0049be45 f   libucrtd:ismbbyte.obj
 0001:0009ae63       __ismbbkpunct_l            0049be63 f   libucrtd:ismbbyte.obj
 0001:0009ae82       __ismbblead                0049be82 f   libucrtd:ismbbyte.obj
 0001:0009aea0       __ismbblead_l              0049bea0 f   libucrtd:ismbbyte.obj
 0001:0009aebf       __ismbbprint               0049bebf f   libucrtd:ismbbyte.obj
 0001:0009aee0       __ismbbprint_l             0049bee0 f   libucrtd:ismbbyte.obj
 0001:0009af03       __ismbbpunct               0049bf03 f   libucrtd:ismbbyte.obj
 0001:0009af21       __ismbbpunct_l             0049bf21 f   libucrtd:ismbbyte.obj
 0001:0009af40       __ismbbtrail               0049bf40 f   libucrtd:ismbbyte.obj
 0001:0009af5e       __ismbbtrail_l             0049bf5e f   libucrtd:ismbbyte.obj
 0001:0009af7d       ??0?$__crt_unique_handle_t@Uenvironment_strings_traits@?A0x29f97c20@@@@QAE@QA_W@Z 0049bf7d f i libucrtd:get_environment_from_os.obj
 0001:0009af91       ??1?$__crt_unique_handle_t@Uenvironment_strings_traits@?A0x29f97c20@@@@QAE@XZ 0049bf91 f i libucrtd:get_environment_from_os.obj
 0001:0009afad       ??B?$__crt_unique_handle_t@Uenvironment_strings_traits@?A0x29f97c20@@@@QBE_NXZ 0049bfad f i libucrtd:get_environment_from_os.obj
 0001:0009afb7       ?close@?$__crt_unique_handle_t@Uenvironment_strings_traits@?A0x29f97c20@@@@QAEXXZ 0049bfb7 f i libucrtd:get_environment_from_os.obj
 0001:0009afd3       ?close@environment_strings_traits@?A0x29f97c20@@SA_NPA_W@Z 0049bfd3 f i libucrtd:get_environment_from_os.obj
 0001:0009b02d       ?get@?$__crt_unique_handle_t@Uenvironment_strings_traits@?A0x29f97c20@@@@QBEPA_WXZ 0049c02d f i libucrtd:get_environment_from_os.obj
 0001:0009b030       ?get_invalid_value@environment_strings_traits@?A0x29f97c20@@SAPA_WXZ 0049c030 f i libucrtd:get_environment_from_os.obj
 0001:0009b033       ?is_valid@?$__crt_unique_handle_t@Uenvironment_strings_traits@?A0x29f97c20@@@@QBE_NXZ 0049c033 f i libucrtd:get_environment_from_os.obj
 0001:0009b03d       ___dcrt_get_narrow_environment_from_os 0049c03d f   libucrtd:get_environment_from_os.obj
 0001:0009b0f2       ___dcrt_get_wide_environment_from_os 0049c0f2 f   libucrtd:get_environment_from_os.obj
 0001:0009bc92       ??$get_or_create_environment_nolock@$$$V@?$__crt_char_traits@D@@SAPAPADXZ 0049cc92 f i libucrtd:setenv.obj
 0001:0009bc97       ??$get_or_create_environment_nolock@$$$V@?$__crt_char_traits@_W@@SAPAPA_WXZ 0049cc97 f i libucrtd:setenv.obj
 0001:0009bc9c       ??$set_environment_variable@ABQADQAD@?$__crt_char_traits@D@@SAHABQAD$$QBQAD@Z 0049cc9c f i libucrtd:setenv.obj
 0001:0009bcb8       ??$set_environment_variable@ABQA_WQA_W@?$__crt_char_traits@_W@@SAHABQA_W$$QBQA_W@Z 0049ccb8 f i libucrtd:setenv.obj
 0001:0009bcd4       ??$tcschr@ABQADD@?$__crt_char_traits@D@@SAPADABQAD$$QAD@Z 0049ccd4 f i libucrtd:setenv.obj
 0001:0009bcf4       ??$tcschr@ABQA_WD@?$__crt_char_traits@_W@@SAPA_WABQA_W$$QAD@Z 0049ccf4 f i libucrtd:setenv.obj
 0001:0009bd19       ??$tcscpy_s@AAPADABIAAPAD@?$__crt_char_traits@D@@SAHAAPADABI0@Z 0049cd19 f i libucrtd:setenv.obj
 0001:0009bd3e       ??$tcscpy_s@AAPA_WABIAAPA_W@?$__crt_char_traits@_W@@SAHAAPA_WABI0@Z 0049cd3e f i libucrtd:setenv.obj
 0001:0009bd63       ??$tcscpy_s@ABQADABIABQAD@?$__crt_char_traits@D@@SAHABQADABI0@Z 0049cd63 f i libucrtd:setenv.obj
 0001:0009bd88       ??$tcscpy_s@ABQA_WABIABQA_W@?$__crt_char_traits@_W@@SAHABQA_WABI0@Z 0049cd88 f i libucrtd:setenv.obj
 0001:0009bdad       ??$tcsnicoll@ABQBDAAPADABI@?$__crt_char_traits@D@@SAHABQBDAAPADABI@Z 0049cdad f i libucrtd:setenv.obj
 0001:0009bdd2       ??$tcsnicoll@ABQB_WAAPA_WABI@?$__crt_char_traits@_W@@SAHABQB_WAAPA_WABI@Z 0049cdd2 f i libucrtd:setenv.obj
 0001:0009bdf7       ??$tcsnlen@QADH@?$__crt_char_traits@D@@SAI$$QBQAD$$QAH@Z 0049cdf7 f i libucrtd:setenv.obj
 0001:0009be15       ??$tcsnlen@QA_WH@?$__crt_char_traits@_W@@SAI$$QBQA_W$$QAH@Z 0049ce15 f i libucrtd:setenv.obj
 0001:0009be57       ?strchr@@YAPADQADH@Z       0049ce57 f i libucrtd:setenv.obj
 0001:0009be64       ?wcschr@@YAPA_WPA_W_W@Z    0049ce64 f i libucrtd:setenv.obj
 0001:0009be71       ___dcrt_set_variable_in_narrow_environment_nolock 0049ce71 f   libucrtd:setenv.obj
 0001:0009be7e       ___dcrt_set_variable_in_wide_environment_nolock 0049ce7e f   libucrtd:setenv.obj
 0001:0009be90       ___acrt_initialize_locks   0049ce90 f   libucrtd:locks.obj
 0001:0009bf10       ___acrt_lock               0049cf10 f   libucrtd:locks.obj
 0001:0009bf30       ___acrt_uninitialize_locks 0049cf30 f   libucrtd:locks.obj
 0001:0009bf90       ___acrt_unlock             0049cf90 f   libucrtd:locks.obj
 0001:0009bfb0       __lock_locales             0049cfb0 f   libucrtd:locks.obj
 0001:0009bfd0       __unlock_locales           0049cfd0 f   libucrtd:locks.obj
 0001:0009bff0       ??$?RU__crt_lowio_handle_data@@@__crt_internal_free_policy@@QBEXQBU__crt_lowio_handle_data@@@Z 0049cff0 f i libucrtd:osfinfo.obj
 0001:0009c020       ??0?$__crt_unique_heap_ptr@U__crt_lowio_handle_data@@U__crt_internal_free_policy@@@@QAE@QAU__crt_lowio_handle_data@@@Z 0049d020 f i libucrtd:osfinfo.obj
 0001:0009c040       ??1?$__crt_unique_heap_ptr@U__crt_lowio_handle_data@@U__crt_internal_free_policy@@@@QAE@XZ 0049d040 f i libucrtd:osfinfo.obj
 0001:0009c060       ??B?$__crt_unique_heap_ptr@U__crt_lowio_handle_data@@U__crt_internal_free_policy@@@@QBE_NXZ 0049d060 f i libucrtd:osfinfo.obj
 0001:0009c080       ?detach@?$__crt_unique_heap_ptr@U__crt_lowio_handle_data@@U__crt_internal_free_policy@@@@QAEPAU__crt_lowio_handle_data@@XZ 0049d080 f i libucrtd:osfinfo.obj
 0001:0009c0b0       ?get@?$__crt_unique_heap_ptr@U__crt_lowio_handle_data@@U__crt_internal_free_policy@@@@QBEPAU__crt_lowio_handle_data@@XZ 0049d0b0 f i libucrtd:osfinfo.obj
 0001:0009c0d0       ?is_valid@?$__crt_unique_heap_ptr@U__crt_lowio_handle_data@@U__crt_internal_free_policy@@@@QBE_NXZ 0049d0d0 f i libucrtd:osfinfo.obj
 0001:0009c110       ?release@?$__crt_unique_heap_ptr@U__crt_lowio_handle_data@@U__crt_internal_free_policy@@@@QAEXXZ 0049d110 f i libucrtd:osfinfo.obj
 0001:0009c150       ___acrt_lowio_create_handle_array 0049d150 f   libucrtd:osfinfo.obj
 0001:0009c2e0       ___acrt_lowio_destroy_handle_array 0049d2e0 f   libucrtd:osfinfo.obj
 0001:0009c350       ___acrt_lowio_ensure_fh_exists 0049d350 f   libucrtd:osfinfo.obj
 0001:0009c500       ___acrt_lowio_lock_fh      0049d500 f   libucrtd:osfinfo.obj
 0001:0009c530       ___acrt_lowio_set_os_handle 0049d530 f   libucrtd:osfinfo.obj
 0001:0009c640       ___acrt_lowio_unlock_fh    0049d640 f   libucrtd:osfinfo.obj
 0001:0009c670       __alloc_osfhnd             0049d670 f   libucrtd:osfinfo.obj
 0001:0009c8c0       __free_osfhnd              0049d8c0 f   libucrtd:osfinfo.obj
 0001:0009c9e0       __get_osfhandle            0049d9e0 f   libucrtd:osfinfo.obj
 0001:0009cbc0       __open_osfhandle           0049dbc0 f   libucrtd:osfinfo.obj
 0001:0009ce40       ___p__fmode                0049de40 f   libucrtd:txtmode.obj
 0001:0009ce50       ___pctype_func             0049de50 f   libucrtd:ctype.obj
 0001:0009ce90       ___pwctype_func            0049de90 f   libucrtd:ctype.obj
 0001:0009cea0       ??$?RG@__crt_internal_free_policy@@QBEXQBG@Z 0049dea0 f i libucrtd:initctype.obj
 0001:0009ced0       ??$?RJ@__crt_internal_free_policy@@QBEXQBJ@Z 0049ded0 f i libucrtd:initctype.obj
 0001:0009cf00       ??0?$__crt_unique_heap_ptr@GU__crt_internal_free_policy@@@@QAE@QAG@Z 0049df00 f i libucrtd:initctype.obj
 0001:0009cf20       ??0?$__crt_unique_heap_ptr@JU__crt_internal_free_policy@@@@QAE@QAJ@Z 0049df20 f i libucrtd:initctype.obj
 0001:0009cf40       ??1?$__crt_unique_heap_ptr@GU__crt_internal_free_policy@@@@QAE@XZ 0049df40 f i libucrtd:initctype.obj
 0001:0009cf60       ??1?$__crt_unique_heap_ptr@JU__crt_internal_free_policy@@@@QAE@XZ 0049df60 f i libucrtd:initctype.obj
 0001:0009cf80       ?detach@?$__crt_unique_heap_ptr@GU__crt_internal_free_policy@@@@QAEPAGXZ 0049df80 f i libucrtd:initctype.obj
 0001:0009cfb0       ?detach@?$__crt_unique_heap_ptr@JU__crt_internal_free_policy@@@@QAEPAJXZ 0049dfb0 f i libucrtd:initctype.obj
 0001:0009cfe0       ?release@?$__crt_unique_heap_ptr@GU__crt_internal_free_policy@@@@QAEXXZ 0049dfe0 f i libucrtd:initctype.obj
 0001:0009d020       ?release@?$__crt_unique_heap_ptr@JU__crt_internal_free_policy@@@@QAEXXZ 0049e020 f i libucrtd:initctype.obj
 0001:0009d060       ____lc_codepage_func       0049e060 f   libucrtd:initctype.obj
 0001:0009d0a0       ____lc_collate_cp_func     0049e0a0 f   libucrtd:initctype.obj
 0001:0009d0e0       ____lc_locale_name_func    0049e0e0 f   libucrtd:initctype.obj
 0001:0009d130       ____mb_cur_max_func        0049e130 f   libucrtd:initctype.obj
 0001:0009d170       ____mb_cur_max_l_func      0049e170 f   libucrtd:initctype.obj
 0001:0009d1b0       ___acrt_locale_initialize_ctype 0049e1b0 f   libucrtd:initctype.obj
 0001:0009da00       ??$?RUlconv@@@__crt_internal_free_policy@@QBEXQBUlconv@@@Z 0049ea00 f i libucrtd:initmon.obj
 0001:0009da30       ??0?$__crt_unique_heap_ptr@Ulconv@@U__crt_internal_free_policy@@@@QAE@QAUlconv@@@Z 0049ea30 f i libucrtd:initmon.obj
 0001:0009da50       ??1?$__crt_unique_heap_ptr@Ulconv@@U__crt_internal_free_policy@@@@QAE@XZ 0049ea50 f i libucrtd:initmon.obj
 0001:0009da70       ?detach@?$__crt_unique_heap_ptr@Ulconv@@U__crt_internal_free_policy@@@@QAEPAUlconv@@XZ 0049ea70 f i libucrtd:initmon.obj
 0001:0009daa0       ?release@?$__crt_unique_heap_ptr@Ulconv@@U__crt_internal_free_policy@@@@QAEXXZ 0049eaa0 f i libucrtd:initmon.obj
 0001:0009dae0       ___acrt_locale_free_monetary 0049eae0 f   libucrtd:initmon.obj
 0001:0009dcf0       ___acrt_locale_initialize_monetary 0049ecf0 f   libucrtd:initmon.obj
 0001:0009e540       ___acrt_locale_free_numeric 0049f540 f   libucrtd:initnum.obj
 0001:0009e620       ___acrt_locale_initialize_numeric 0049f620 f   libucrtd:initnum.obj
 0001:0009eb70       ??$?RU__crt_lc_time_data@@@__crt_internal_free_policy@@QBEXQBU__crt_lc_time_data@@@Z 0049fb70 f i libucrtd:inittime.obj
 0001:0009ec60       ??0?$__crt_unique_heap_ptr@U__crt_lc_time_data@@U__crt_internal_free_policy@@@@QAE@QAU__crt_lc_time_data@@@Z 0049fc60 f i libucrtd:inittime.obj
 0001:0009ec80       ??1?$__crt_unique_heap_ptr@U__crt_lc_time_data@@U__crt_internal_free_policy@@@@QAE@XZ 0049fc80 f i libucrtd:inittime.obj
 0001:0009eca0       ??B?$__crt_unique_heap_ptr@U__crt_lc_time_data@@U__crt_internal_free_policy@@@@QBE_NXZ 0049fca0 f i libucrtd:inittime.obj
 0001:0009ecc0       ?detach@?$__crt_unique_heap_ptr@U__crt_lc_time_data@@U__crt_internal_free_policy@@@@QAEPAU__crt_lc_time_data@@XZ 0049fcc0 f i libucrtd:inittime.obj
 0001:0009ed40       ?get@?$__crt_unique_heap_ptr@U__crt_lc_time_data@@U__crt_internal_free_policy@@@@QBEPAU__crt_lc_time_data@@XZ 0049fd40 f i libucrtd:inittime.obj
 0001:0009f330       ?is_valid@?$__crt_unique_heap_ptr@U__crt_lc_time_data@@U__crt_internal_free_policy@@@@QBE_NXZ 004a0330 f i libucrtd:inittime.obj
 0001:0009f370       ?release@?$__crt_unique_heap_ptr@U__crt_lc_time_data@@U__crt_internal_free_policy@@@@QAEXXZ 004a0370 f i libucrtd:inittime.obj
 0001:0009f3b0       ___acrt_locale_free_time   004a03b0 f   libucrtd:inittime.obj
 0001:0009f550       ___acrt_locale_initialize_time 004a0550 f   libucrtd:inittime.obj
 0001:0009f5e0       _wcscmp                    004a05e0 f   libucrtd:wcscmp.obj
 0001:0009f660       _wcscspn                   004a0660 f   libucrtd:wcscspn.obj
 0001:0009f6f0       _wcsncmp                   004a06f0 f   libucrtd:wcsncmp.obj
 0001:0009f760       _wcspbrk                   004a0760 f   libucrtd:wcspbrk.obj
 0001:0009f7e0       ___acrt_GetStringTypeA     004a07e0 f   libucrtd:getstringtypea.obj
 0001:0009fa00       ___acrt_add_locale_ref     004a0a00 f   libucrtd:locale_refcounting.obj
 0001:0009fb40       ___acrt_free_locale        004a0b40 f   libucrtd:locale_refcounting.obj
 0001:0009feb0       ___acrt_locale_add_lc_time_reference 004a0eb0 f   libucrtd:locale_refcounting.obj
 0001:0009fef0       ___acrt_locale_free_lc_time_if_unreferenced 004a0ef0 f   libucrtd:locale_refcounting.obj
 0001:0009ff50       ___acrt_locale_release_lc_time_reference 004a0f50 f   libucrtd:locale_refcounting.obj
 0001:0009ff90       ___acrt_release_locale_ref 004a0f90 f   libucrtd:locale_refcounting.obj
 0001:000a00e0       ___acrt_update_thread_locale_data 004a10e0 f   libucrtd:locale_refcounting.obj
 0001:000a01f0       __updatetlocinfoEx_nolock  004a11f0 f   libucrtd:locale_refcounting.obj
 0001:000a1050       ___acrt_get_qualified_locale 004a2050 f   libucrtd:get_qualified_locale.obj
 0001:000a23c0       ___acrt_get_qualified_locale_downlevel 004a33c0 f   libucrtd:getqloc_downlevel.obj
 0001:000a2720       _localeconv                004a3720 f   libucrtd:localeconv.obj
 0001:000a2770       __add_exp                  004a3770 f   libucrtd:util.obj
 0001:000a27b0       __decomp                   004a37b0 f   libucrtd:util.obj
 0001:000a2920       __get_exp                  004a3920 f   libucrtd:util.obj
 0001:000a2960       __set_bexp                 004a3960 f   libucrtd:util.obj
 0001:000a29a0       __set_exp                  004a39a0 f   libucrtd:util.obj
 0001:000a29f0       __sptype                   004a39f0 f   libucrtd:util.obj
 0001:000a2a90       ___clrfp_sse2              004a3a90 f   libucrtd:fpctrl.obj
 0001:000a2ae0       ___ctrlfp_sse2             004a3ae0 f   libucrtd:fpctrl.obj
 0001:000a2b50       ___fclrf_sse2              004a3b50 f   libucrtd:fpctrl.obj
 0001:000a2b80       ___get_fpsr_sse2           004a3b80 f   libucrtd:fpctrl.obj
 0001:000a2bb0       ___set_fpsr_sse2           004a3bb0 f   libucrtd:fpctrl.obj
 0001:000a2cc0       ___set_statfp_sse2         004a3cc0 f   libucrtd:fpctrl.obj
 0001:000a2d00       ___statfp_sse2             004a3d00 f   libucrtd:fpctrl.obj
 0001:000a2d40       __clrfp                    004a3d40 f   libucrtd:fpctrl.obj
 0001:000a2d60       __ctrlfp                   004a3d60 f   libucrtd:fpctrl.obj
 0001:000a2da0       __set_statfp               004a3da0 f   libucrtd:fpctrl.obj
 0001:000a2e20       __statfp                   004a3e20 f   libucrtd:fpctrl.obj
 0001:000a2e40       ___acrt_getheap            004a3e40 f   libucrtd:heap_handle.obj
 0001:000a2e90       ___acrt_initialize_heap    004a3e90 f   libucrtd:heap_handle.obj
 0001:000a2ec0       ___acrt_uninitialize_heap  004a3ec0 f   libucrtd:heap_handle.obj
 0001:000a2ee0       __get_heap_handle          004a3ee0 f   libucrtd:heap_handle.obj
 0001:000a2f30       ___acrt_execute_initializers 004a3f30 f   libucrtd:shared_initialization.obj
 0001:000a3030       ___acrt_execute_uninitializers 004a4030 f   libucrtd:shared_initialization.obj
 0001:000a30c0       ??$?B$$A6AHI@Z@__crt_fast_encoded_nullptr_t@@QBEP6AHI@ZXZ 004a40c0 f i libucrtd:new_handler.obj
 0001:000a30e0       ??$__crt_fast_decode_pointer@P6AHI@Z@@YAP6AHI@ZQ6AHI@Z@Z 004a40e0 f i libucrtd:new_handler.obj
 0001:000a3120       ??$__crt_fast_encode_pointer@P6AHI@Z@@YAP6AHI@ZQ6AHI@Z@Z 004a4120 f i libucrtd:new_handler.obj
 0001:000a3160       ?_set_new_handler@@YAP6AHI@ZH@Z 004a4160 f   libucrtd:new_handler.obj
 0001:000a31d0       ?initialize@?$dual_state_global@P6AHI@Z@__crt_state_management@@QAEXQ6AHI@Z@Z 004a41d0 f i libucrtd:new_handler.obj
 0001:000a3220       ?value@?$dual_state_global@P6AHI@Z@__crt_state_management@@QAEAAP6AHI@ZXZ 004a4220 f i libucrtd:new_handler.obj
 0001:000a3240       ___acrt_initialize_new_handler 004a4240 f   libucrtd:new_handler.obj
 0001:000a3260       __callnewh                 004a4260 f   libucrtd:new_handler.obj
 0001:000a32d0       __query_new_handler        004a42d0 f   libucrtd:new_handler.obj
 0001:000a3390       __set_new_handler          004a4390 f   libucrtd:new_handler.obj
 0001:000a3700       ___control87_2             004a4700 f   libucrtd:ieee87.obj
 0001:000a3870       ___fpreset_sse2            004a4870 f   libucrtd:ieee87.obj
 0001:000a3cc0       __clearfp                  004a4cc0 f   libucrtd:ieee87.obj
 0001:000a3d20       __control87                004a4d20 f   libucrtd:ieee87.obj
 0001:000a3e00       __controlfp                004a4e00 f   libucrtd:ieee87.obj
 0001:000a3e30       __fpreset                  004a4e30 f   libucrtd:ieee87.obj
 0001:000a4060       __set_controlfp            004a5060 f   libucrtd:ieee87.obj
 0001:000a4110       __statusfp                 004a5110 f   libucrtd:ieee87.obj
 0001:000a4170       __statusfp2                004a5170 f   libucrtd:ieee87.obj
 0001:000a41c0       ??$__crt_interlocked_exchange_pointer@X$$T@@YAPAXPDSAX$$T@Z 004a51c0 f i libucrtd:free_base.obj
 0001:000a41f0       ___acrt_get_msvcrt_heap_handle 004a51f0 f   libucrtd:free_base.obj
 0001:000a42e0       __free_base                004a52e0 f   libucrtd:free_base.obj
 0001:000a4340       __msize                    004a5340 f   libucrtd:msize.obj
 0001:000a4360       __realloc_base             004a5360 f   libucrtd:realloc_base.obj
 0001:000a4420       __aligned_free             004a5420 f   libucrtd:align.obj
 0001:000a4440       __aligned_free_base        004a5440 f   libucrtd:align.obj
 0001:000a4490       __aligned_malloc           004a5490 f   libucrtd:align.obj
 0001:000a44c0       __aligned_malloc_base      004a54c0 f   libucrtd:align.obj
 0001:000a44e0       __aligned_msize            004a54e0 f   libucrtd:align.obj
 0001:000a4510       __aligned_msize_base       004a5510 f   libucrtd:align.obj
 0001:000a4690       __aligned_offset_malloc    004a5690 f   libucrtd:align.obj
 0001:000a46c0       __aligned_offset_malloc_base 004a56c0 f   libucrtd:align.obj
 0001:000a48e0       __aligned_offset_realloc   004a58e0 f   libucrtd:align.obj
 0001:000a4910       __aligned_offset_realloc_base 004a5910 f   libucrtd:align.obj
 0001:000a4cf0       __aligned_offset_recalloc  004a5cf0 f   libucrtd:align.obj
 0001:000a4d20       __aligned_offset_recalloc_base 004a5d20 f   libucrtd:align.obj
 0001:000a4e00       __aligned_realloc          004a5e00 f   libucrtd:align.obj
 0001:000a4e30       __aligned_realloc_base     004a5e30 f   libucrtd:align.obj
 0001:000a4e60       __aligned_recalloc         004a5e60 f   libucrtd:align.obj
 0001:000a4e90       __aligned_recalloc_base    004a5e90 f   libucrtd:align.obj
 0001:000a4f20       __expand                   004a5f20 f   libucrtd:expand.obj
 0001:000a4f50       __expand_base              004a5f50 f   libucrtd:expand.obj
 0001:000a50d0       __CrtDefaultAllocHook      004a60d0 f   libucrtd:debug_heap_hook.obj
 0001:000a50e0       __CrtGetReportHook         004a60e0 f   libucrtd:dbgrptt.obj
 0001:000a50f0       __CrtSetReportFile         004a60f0 f   libucrtd:dbgrptt.obj
 0001:000a5220       __CrtSetReportHook         004a6220 f   libucrtd:dbgrptt.obj
 0001:000a5250       __CrtSetReportMode         004a6250 f   libucrtd:dbgrptt.obj
 0001:000a53e0       __VCrtDbgReportA           004a63e0 f   libucrtd:dbgrptt.obj
 0001:000a5ea0       __VCrtDbgReportW           004a6ea0 f   libucrtd:dbgrptt.obj
 0001:000a6ac0       __snprintf_s               004a7ac0 f i libucrtd:dbgrptt.obj
 0001:000a6b20       __vsnprintf_s              004a7b20 f i libucrtd:dbgrptt.obj
 0001:000a6b50       __vsnprintf_s_l            004a7b50 f i libucrtd:dbgrptt.obj
 0001:000a6bc0       __vsnwprintf_s             004a7bc0 f i libucrtd:dbgrptt.obj
 0001:000a6bf0       __iswctype_l               004a7bf0 f   libucrtd:iswctype.obj
 0001:000a6c10       _iswctype                  004a7c10 f   libucrtd:iswctype.obj
 0001:000a6ca0       ??$?RV<lambda_a7d5e04a8e766f2a135287cf7b01dfe7>@@AAV<lambda_e9ab68cc08dfd839979545c079379e6e>@@V<lambda_14e08a59e78d15c51edeee53d25fb3be>@@@?$__crt_seh_guarded_call@H@@QAEH$$QAV<lambda_a7d5e04a8e766f2a135287cf7b01dfe7>@@AAV<lambda_e9ab68cc08dfd839979545c079379e6e>@@$$QAV<lambda_14e08a59e78d15c51edeee53d25fb3be>@@@Z 004a7ca0 f i libucrtd:commit.obj
 0001:000a6d50       ??$__acrt_lowio_lock_fh_and_call@V<lambda_e9ab68cc08dfd839979545c079379e6e>@@@@YAHH$$QAV<lambda_e9ab68cc08dfd839979545c079379e6e>@@@Z 004a7d50 f i libucrtd:commit.obj
 0001:000a6f40       __commit                   004a7f40 f   libucrtd:commit.obj
 0001:000a8160       __write                    004a9160 f   libucrtd:write.obj
 0001:000a8440       __write_nolock             004a9440 f   libucrtd:write.obj
 0001:000a89a0       ___acrt_fp_strflt_to_string 004a99a0 f   libucrtd:_fptostr.obj
 0001:000a9540       ??0big_integer@__crt_strtox@@QAE@ABU01@@Z 004aa540 f i libucrtd:cfout.obj
 0001:000a9590       ??0big_integer@__crt_strtox@@QAE@XZ 004aa590 f i libucrtd:cfout.obj
 0001:000a95d0       ??0scoped_fp_state_reset@?A0x3568b024@@QAE@XZ 004aa5d0 f i libucrtd:cfout.obj
 0001:000a9630       ??1scoped_fp_state_reset@?A0x3568b024@@QAE@XZ 004aa630 f i libucrtd:cfout.obj
 0001:000a9660       ??4big_integer@__crt_strtox@@QAEAAU01@ABU01@@Z 004aa660 f i libucrtd:cfout.obj
 0001:000a96b0       ??8__crt_strtox@@YA_NABUbig_integer@0@0@Z 004aa6b0 f i libucrtd:cfout.obj
 0001:000a9720       ??9__crt_strtox@@YA_NABUbig_integer@0@0@Z 004aa720 f i libucrtd:cfout.obj
 0001:000a9770       ?add_carry@__crt_strtox@@YAIAAIII@Z 004aa770 f i libucrtd:cfout.obj
 0001:000a97c0       ?add_multiply_carry@__crt_strtox@@YAIAAIIII@Z 004aa7c0 f i libucrtd:cfout.obj
 0001:000a9810       ?bit_scan_reverse@__crt_strtox@@YAII@Z 004aa810 f i libucrtd:cfout.obj
 0001:000a9850       ?count_sequential_high_zeroes@__crt_strtox@@YAII@Z 004aa850 f i libucrtd:cfout.obj
 0001:000a98a0       ?divide@__crt_strtox@@YA_KAAUbig_integer@1@ABU21@@Z 004aa8a0 f i libucrtd:cfout.obj
 0001:000aa5c0       ?is_zero@__crt_strtox@@YA_NABUbig_integer@1@@Z 004ab5c0 f i libucrtd:cfout.obj
 0001:000aa5f0       ?make_big_integer@__crt_strtox@@YA?AUbig_integer@1@_K@Z 004ab5f0 f i libucrtd:cfout.obj
 0001:000aa6d0       ?make_big_integer_power_of_two@__crt_strtox@@YA?AUbig_integer@1@I@Z 004ab6d0 f i libucrtd:cfout.obj
 0001:000aa7b0       ?multiply@__crt_strtox@@YA_NAAUbig_integer@1@ABU21@@Z 004ab7b0 f i libucrtd:cfout.obj
 0001:000aac10       ?multiply@__crt_strtox@@YA_NAAUbig_integer@1@I@Z 004abc10 f i libucrtd:cfout.obj
 0001:000aad10       ?multiply_64_32@__crt_strtox@@YA_K_KI@Z 004abd10 f i libucrtd:cfout.obj
 0001:000aad30       ?multiply_by_power_of_ten@__crt_strtox@@YA_NAAUbig_integer@1@I@Z 004abd30 f i libucrtd:cfout.obj
 0001:000aaf30       ?multiply_core@__crt_strtox@@YAIQAIII@Z 004abf30 f i libucrtd:cfout.obj
 0001:000aafb0       ?shift_left@__crt_strtox@@YA_NAAUbig_integer@1@I@Z 004abfb0 f i libucrtd:cfout.obj
 0001:000ab3d0       ___acrt_fltout             004ac3d0 f   libucrtd:cfout.obj
 0001:000ac170       ___acrt_stdio_flush_and_write_narrow_nolock 004ad170 f   libucrtd:_flsbuf.obj
 0001:000ac1a0       ___acrt_stdio_flush_and_write_wide_nolock 004ad1a0 f   libucrtd:_flsbuf.obj
 0001:000ac1d0       __isatty                   004ad1d0 f   libucrtd:isatty.obj
 0001:000ac500       ___acrt_DownlevelLCIDToLocaleName 004ad500 f   libucrtd:lcidtoname_downlevel.obj
 0001:000ac600       ___acrt_DownlevelLocaleNameToLCID 004ad600 f   libucrtd:lcidtoname_downlevel.obj
 0001:000ac650       __ungetc_nolock            004ad650 f   libucrtd:ungetc.obj
 0001:000ac990       _ungetc                    004ad990 f   libucrtd:ungetc.obj
 0001:000ad430       ___acrt_stdio_refill_and_read_narrow_nolock 004ae430 f   libucrtd:_filbuf.obj
 0001:000ad460       ___acrt_stdio_refill_and_read_wide_nolock 004ae460 f   libucrtd:_filbuf.obj
 0001:000ad490       ??$?RV<lambda_4d8dda1ac129e11742d77ae5e3bbda74>@@AAV<lambda_a8f98972ebaa5f7148d35bffe53bd70d>@@V<lambda_5193b64c98d743723bd5dcf162a72339>@@@?$__crt_seh_guarded_call@H@@QAEH$$QAV<lambda_4d8dda1ac129e11742d77ae5e3bbda74>@@AAV<lambda_a8f98972ebaa5f7148d35bffe53bd70d>@@$$QAV<lambda_5193b64c98d743723bd5dcf162a72339>@@@Z 004ae490 f i libucrtd:close.obj
 0001:000ad540       ??$__acrt_lowio_lock_fh_and_call@V<lambda_a8f98972ebaa5f7148d35bffe53bd70d>@@@@YAHH$$QAV<lambda_a8f98972ebaa5f7148d35bffe53bd70d>@@@Z 004ae540 f i libucrtd:close.obj
 0001:000ad800       __close                    004ae800 f   libucrtd:close.obj
 0001:000ad9d0       __close_nolock             004ae9d0 f   libucrtd:close.obj
 0001:000ada40       ??$?RU__crt_stdio_stream_data@@@__crt_internal_free_policy@@QBEXQBU__crt_stdio_stream_data@@@Z 004aea40 f i libucrtd:stream.obj
 0001:000ada70       ??0?$__crt_unique_heap_ptr@U__crt_stdio_stream_data@@U__crt_internal_free_policy@@@@QAE@QAU__crt_stdio_stream_data@@@Z 004aea70 f i libucrtd:stream.obj
 0001:000ada90       ??0__crt_stdio_stream@@QAE@XZ 004aea90 f i libucrtd:stream.obj
 0001:000adab0       ??1?$__crt_unique_heap_ptr@U__crt_stdio_stream_data@@U__crt_internal_free_policy@@@@QAE@XZ 004aeab0 f i libucrtd:stream.obj
 0001:000adad0       ?__acrt_stdio_allocate_stream@@YA?AV__crt_stdio_stream@@XZ 004aead0 f   libucrtd:stream.obj
 0001:000adc00       ?__acrt_stdio_free_stream@@YAXV__crt_stdio_stream@@@Z 004aec00 f   libucrtd:stream.obj
 0001:000adca0       ?deallocate@__crt_stdio_stream@@QAEXXZ 004aeca0 f i libucrtd:stream.obj
 0001:000adcc0       ?detach@?$__crt_unique_heap_ptr@U__crt_stdio_stream_data@@U__crt_internal_free_policy@@@@QAEPAU__crt_stdio_stream_data@@XZ 004aecc0 f i libucrtd:stream.obj
 0001:000ade80       ?lock@__crt_stdio_stream@@QBEXXZ 004aee80 f i libucrtd:stream.obj
 0001:000adeb0       ?release@?$__crt_unique_heap_ptr@U__crt_stdio_stream_data@@U__crt_internal_free_policy@@@@QAEXXZ 004aeeb0 f i libucrtd:stream.obj
 0001:000adef0       ?try_allocate@__crt_stdio_stream@@QAE_NXZ 004aeef0 f i libucrtd:stream.obj
 0001:000adf50       ?unlock@__crt_stdio_stream@@QBEXXZ 004aef50 f i libucrtd:stream.obj
 0001:000adf80       __wcsnicmp                 004aef80 f   libucrtd:wcsnicmp.obj
 0001:000ae1f0       __wcsnicmp_l               004af1f0 f   libucrtd:wcsnicmp.obj
 0001:000ae4f0       ??$__vcrt_va_start_verify_argument_type@$$CBH@@YAXXZ 004af4f0 f i libucrtd:open.obj
 0001:000aefa0       ??$tsopen_nolock@PAHABQAHABQBDABHABHABHABH@?$__crt_char_traits@D@@SAH$$QAPAHABQAHABQBDABH333@Z 004affa0 f i libucrtd:open.obj
 0001:000aeff0       ??$tsopen_nolock@PAHABQAHABQB_WABHABHABHABH@?$__crt_char_traits@_W@@SAH$$QAPAHABQAHABQB_WABH333@Z 004afff0 f i libucrtd:open.obj
 0001:000af040       ??$tsopen_nolock@PAHPAHABQBDABHHABHH@?$__crt_char_traits@D@@SAH$$QAPAH0ABQBDABH$$QAH23@Z 004b0040 f i libucrtd:open.obj
 0001:000af090       ??$tsopen_nolock@PAHPAHABQB_WABHHABHH@?$__crt_char_traits@_W@@SAH$$QAPAH0ABQB_WABH$$QAH23@Z 004b0090 f i libucrtd:open.obj
 0001:000afed0       __open                     004b0ed0 f   libucrtd:open.obj
 0001:000aff30       __sopen                    004b0f30 f   libucrtd:open.obj
 0001:000affc0       __sopen_dispatch           004b0fc0 f   libucrtd:open.obj
 0001:000afff0       __sopen_nolock             004b0ff0 f   libucrtd:open.obj
 0001:000b0080       __sopen_s                  004b1080 f   libucrtd:open.obj
 0001:000b00b0       __wopen                    004b10b0 f   libucrtd:open.obj
 0001:000b0110       __wsopen                   004b1110 f   libucrtd:open.obj
 0001:000b01a0       __wsopen_dispatch          004b11a0 f   libucrtd:open.obj
 0001:000b01d0       __wsopen_nolock            004b11d0 f   libucrtd:open.obj
 0001:000b08d0       __wsopen_s                 004b18d0 f   libucrtd:open.obj
 0001:000b0900       ___strncnt                 004b1900 f   libucrtd:strncnt.obj
 0001:000b0960       ___setfflag                004b1960 f   libucrtd:fp_flags.obj
 0001:000b0990       __87except                 004b1990 f   libucrtd:87except.obj
 0001:000b0c00       ??1scoped_global_state_reset@__crt_state_management@@QAE@XZ 004b1c00 f i libucrtd:qsort.obj
 0001:000b0d80       _qsort                     004b1d80 f   libucrtd:qsort.obj
 0001:000b1ab0       _strncpy_s                 004b2ab0 f   libucrtd:strncpy_s.obj
 0001:000b1ae0       _strpbrk                   004b2ae0 f   libucrtd:strpbrk.obj
 0001:000b1b30       __mbsdec                   004b2b30 f   libucrtd:mbsdec.obj
 0001:000b1b4c       __mbsdec_l                 004b2b4c f   libucrtd:mbsdec.obj
 0001:000b1cb0       __wcsnicoll                004b2cb0 f   libucrtd:wcsnicol.obj
 0001:000b1fa0       __wcsnicoll_l              004b2fa0 f   libucrtd:wcsnicol.obj
 0001:000b2340       __strnicoll                004b3340 f   libucrtd:strnicol.obj
 0001:000b23a0       __strnicoll_l              004b33a0 f   libucrtd:strnicol.obj
 0001:000b28c0       ___acrt_GetLocaleInfoA     004b38c0 f   libucrtd:getlocaleinfoa.obj
 0001:000b2d60       __wcsicmp                  004b3d60 f   libucrtd:wcsicmp.obj
 0001:000b2fa0       __wcsicmp_l                004b3fa0 f   libucrtd:wcsicmp.obj
 0001:000b32a0       __malloc_base              004b42a0 f   libucrtd:malloc_base.obj
 0001:000b37c0       __mbstowcs_l               004b47c0 f   libucrtd:mbstowcs.obj
 0001:000b37f0       __mbstowcs_s_l             004b47f0 f   libucrtd:mbstowcs.obj
 0001:000b3ca0       _mbstowcs                  004b4ca0 f   libucrtd:mbstowcs.obj
 0001:000b3d00       _mbstowcs_s                004b4d00 f   libucrtd:mbstowcs.obj
 0001:000b4520       __wcstombs_l               004b5520 f   libucrtd:wcstombs.obj
 0001:000b4550       __wcstombs_s_l             004b5550 f   libucrtd:wcstombs.obj
 0001:000b4990       _wcstombs                  004b5990 f   libucrtd:wcstombs.obj
 0001:000b49c0       _wcstombs_s                004b59c0 f   libucrtd:wcstombs.obj
 0001:000b5330       __lseek                    004b6330 f   libucrtd:lseek.obj
 0001:000b5360       __lseek_nolock             004b6360 f   libucrtd:lseek.obj
 0001:000b5390       __lseeki64                 004b6390 f   libucrtd:lseek.obj
 0001:000b53c0       __lseeki64_nolock          004b63c0 f   libucrtd:lseek.obj
 0001:000b53e6       ??$?RV<lambda_4980db0136e49a56f91ef52c46ca659a>@@AAV<lambda_6e3e78bb6855d1e4040e022c1b427e22>@@V<lambda_9c074eaf62197b4fd0274ed9e7824161>@@@?$__crt_seh_guarded_call@G@@QAEG$$QAV<lambda_4980db0136e49a56f91ef52c46ca659a>@@AAV<lambda_6e3e78bb6855d1e4040e022c1b427e22>@@$$QAV<lambda_9c074eaf62197b4fd0274ed9e7824161>@@@Z 004b63e6 f i libucrtd:putwch.obj
 0001:000b545b       ??$__acrt_lock_and_call@V<lambda_6e3e78bb6855d1e4040e022c1b427e22>@@@@YAGW4__acrt_lock_id@@$$QAV<lambda_6e3e78bb6855d1e4040e022c1b427e22>@@@Z 004b645b f i libucrtd:putwch.obj
 0001:000b54f3       __putwch                   004b64f3 f   libucrtd:putwch.obj
 0001:000b5517       __putwch_nolock            004b6517 f   libucrtd:putwch.obj
 0001:000b5570       _log10                     004b6570 f   libucrtd:log10.obj
 0001:000b55b0       __CIlog10                  004b65b0 f   libucrtd:log10.obj
 0001:000b55eb       __CIlog10_default          004b65eb f   libucrtd:log10.obj
 0001:000b55ff       __log10_default            004b65ff     libucrtd:log10.obj
 0001:000b5720       _ceil                      004b6720 f   libucrtd:ceil_pentium4.obj
 0001:000b5760       __ceil_pentium4            004b6760 f   libucrtd:ceil_pentium4.obj
 0001:000b5890       _fegetenv                  004b6890 f   libucrtd:fegetenv.obj
 0001:000b58c0       _fesetenv                  004b68c0 f   libucrtd:fesetenv.obj
 0001:000b5940       _feholdexcept              004b6940 f   libucrtd:feholdexcept.obj
 0001:000b59c0       ___acrt_stdio_allocate_buffer_nolock 004b69c0 f   libucrtd:_getbuf.obj
 0001:000b6780       __read                     004b7780 f   libucrtd:read.obj
 0001:000b6b20       __read_nolock              004b7b20 f   libucrtd:read.obj
 0001:000b7730       __towlower_l               004b8730 f   libucrtd:towlower.obj
 0001:000b78d0       _towlower                  004b88d0 f   libucrtd:towlower.obj
 0001:000b78f0       ___acrt_copy_path_to_wide_string 004b88f0 f   libucrtd:string_utilities.obj
 0001:000b7b90       ___acrt_copy_to_char       004b8b90 f   libucrtd:string_utilities.obj
 0001:000b7e30       ??$?RV<lambda_e87d504cbc7d400fcbe2d82cf548b8f7>@@AAV<lambda_0e5c436e1fba8d7954c4c0cd61485ee8>@@V<lambda_ae6bc716cac9627e2d882580dc02b217>@@@?$__crt_seh_guarded_call@H@@QAEH$$QAV<lambda_e87d504cbc7d400fcbe2d82cf548b8f7>@@AAV<lambda_0e5c436e1fba8d7954c4c0cd61485ee8>@@$$QAV<lambda_ae6bc716cac9627e2d882580dc02b217>@@@Z 004b8e30 f i libucrtd:chsize.obj
 0001:000b7ee0       ??$__acrt_lowio_lock_fh_and_call@V<lambda_0e5c436e1fba8d7954c4c0cd61485ee8>@@@@YAHH$$QAV<lambda_0e5c436e1fba8d7954c4c0cd61485ee8>@@@Z 004b8ee0 f i libucrtd:chsize.obj
 0001:000b80d0       __chsize                   004b90d0 f   libucrtd:chsize.obj
 0001:000b8110       __chsize_nolock            004b9110 f   libucrtd:chsize.obj
 0001:000b8410       __chsize_s                 004b9410 f   libucrtd:chsize.obj
 0001:000b8690       __umask                    004b9690 f   libucrtd:umask.obj
 0001:000b86d0       __umask_s                  004b96d0 f   libucrtd:umask.obj
 0001:000b8830       ___acrt_CompareStringW     004b9830 f   libucrtd:comparestringw.obj
 0001:000b8eb0       ___acrt_CompareStringA     004b9eb0 f   libucrtd:comparestringa.obj
 0001:000b8f17       ___dcrt_lowio_initialize_console_output 004b9f17 f   libucrtd:initcon.obj
 0001:000b8f3d       ___dcrt_terminate_console_output 004b9f3d f   libucrtd:initcon.obj
 0001:000b8f60       ___acrt_initialize_sse2    004b9f60 f   libucrtd:mathfcns.obj
 0001:000b8f80       __set_SSE2_enable          004b9f80 f   libucrtd:mathfcns.obj
 0001:000b8fe0       __CIlog10_pentium4         004b9fe0 f   libucrtd:log10_pentium4.obj
 0001:000b8ff8       __log10_pentium4           004b9ff8     libucrtd:log10_pentium4.obj
 0001:000b9331       __fFEXP                    004ba331     libucrtd:87tran.obj
 0001:000b9388       __rtinfpopse               004ba388     libucrtd:87tran.obj
 0001:000b938a       __rtinfnpopse              004ba38a     libucrtd:87tran.obj
 0001:000b939a       __fFLN                     004ba39a     libucrtd:87tran.obj
 0001:000b944f       __rtinfpop                 004ba44f     libucrtd:87tran.obj
 0001:000b9451       __rtinfnpop                004ba451     libucrtd:87tran.obj
 0001:000b946e       __ffexpm1                  004ba46e     libucrtd:87tran.obj
 0001:000b95a0       __twoToTOS                 004ba5a0 f   libucrtd:common.obj
 0001:000b95b5       __load_CW                  004ba5b5 f   libucrtd:common.obj
 0001:000b95cc       __convertTOStoQNaN         004ba5cc f   libucrtd:common.obj
 0001:000b95e5       __fload_withFB             004ba5e5 f   libucrtd:common.obj
 0001:000b9628       __checkTOS_withFB          004ba628 f   libucrtd:common.obj
 0001:000b963e       __fast_exit                004ba63e f   libucrtd:common.obj
 0001:000b964b       __math_exit                004ba64b f   libucrtd:common.obj
 0001:000b9675       __check_overflow_exit      004ba675 f   libucrtd:common.obj
 0001:000b9689       __check_range_exit         004ba689 f   libucrtd:common.obj
 0001:000b9790       __startTwoArgErrorHandling 004ba790 f   libucrtd:genexcep.obj
 0001:000b97a7       __startOneArgErrorHandling 004ba7a7 f   libucrtd:genexcep.obj
 0001:000b9800       ___libm_error_support      004ba800 f   libucrtd:libm_error.obj
 0001:000b9f40       ___libm_setusermatherr     004baf40 f   libucrtd:libm_error.obj
 0001:000b9f80       __ceil_default             004baf80 f   libucrtd:ceil.obj
 0001:000ba0e0       ___acrt_fenv_get_fp_status_word_from_exception_mask 004bb0e0 f   libucrtd:_fenvutils.obj
 0001:000ba860       __getfpcontrolword         004bb860 f   libucrtd:_fenvutils.obj
 0001:000ba8d0       __getfpstatusword          004bb8d0 f   libucrtd:_fenvutils.obj
 0001:000ba940       __setfpcontrolword         004bb940 f   libucrtd:_fenvutils.obj
 0001:000baa30       __setfpstatusword          004bba30 f   libucrtd:_fenvutils.obj
 0001:000bab20       ___acrt_LCMapStringW       004bbb20 f   libucrtd:lcmapstringw.obj
 0001:000baba0       __d_inttype                004bbba0 f   libucrtd:powhlp.obj
 0001:000bac50       __powhlp                   004bbc50 f   libucrtd:powhlp.obj
 0001:000bae60       __frnd                     004bbe60 f   libucrtd:frnd.obj
 0001:000bae80       __chgsign                  004bbe80 f   libucrtd:ieeemisc.obj
 0001:000baec0       __chgsignf                 004bbec0 f   libucrtd:ieeemisc.obj
 0001:000baf10       __copysign                 004bbf10 f   libucrtd:ieeemisc.obj
 0001:000baf50       __copysignf                004bbf50 f   libucrtd:ieeemisc.obj
 0001:000bafb0       __finite                   004bbfb0 f   libucrtd:ieeemisc.obj
 0001:000bafe0       __fpclass                  004bbfe0 f   libucrtd:ieeemisc.obj
 0001:000bb110       __isnan                    004bc110 f   libucrtd:ieeemisc.obj
 0001:000bb170       __logb                     004bc170 f   libucrtd:ieeemisc.obj
 0001:000bb2d0       __nextafter                004bc2d0 f   libucrtd:ieeemisc.obj
 0001:000bb300       __scalb                    004bc300 f   libucrtd:ieeemisc.obj
 0001:000bb330       _ldexp                     004bc330 f   libucrtd:ldexp.obj
 0001:000bb6c0       _nextafter                 004bc6c0 f   libucrtd:nextafter.obj
 0001:000bb6f0       _nexttoward                004bc6f0 f   libucrtd:nexttoward.obj
 0001:000bbb10       __d_int                    004bcb10 f   libucrtd:_test.obj
 0001:000bbe60       __dtest                    004bce60 f   libucrtd:_test.obj
 0001:000bbfc0       __fd_int                   004bcfc0 f   libucrtd:_test.obj
 0001:000bc210       __fdtest                   004bd210 f   libucrtd:_test.obj
 0001:000bc310       __fperrraise               004bd310 f   libucrtd:_test.obj
 0001:000bc350       __ld_int                   004bd350 f   libucrtd:_test.obj
 0001:000bc370       __ldtest                   004bd370 f   libucrtd:_test.obj
 0001:000bc4b0       _fegetexceptflag           004bd4b0 f   libucrtd:fegetexceptflag.obj
 0001:000bc510       _fesetexceptflag           004bd510 f   libucrtd:fesetexceptflag.obj
 0001:000bc5b0       _fetestexcept              004bd5b0 f   libucrtd:fetestexcept.obj
 0001:000bc5e0       _SystemFunction036@8       004bd5e0 f   advapi32:ADVAPI32.dll
 0001:000bc5f0       __FindPESection            004bd5f0 f   LIBCMTD:pesect.obj
 0001:000bc680       __IsNonwritableInCurrentImage 004bd680 f   LIBCMTD:pesect.obj
 0001:000bc800       __ValidateImageBase        004bd800 f   LIBCMTD:pesect.obj
 0001:000bc880       __allshl                   004bd880 f   LIBCMTD:llshl.obj
 0001:000bc8b0       __aulldiv                  004bd8b0 f   LIBCMTD:ulldiv.obj
 0001:000bc940       __aullrem                  004bd940 f   LIBCMTD:ullrem.obj
 0001:000bc9e0       ??1type_info@@UAE@XZ       004bd9e0 f   LIBCMTD:std_type_info_static.obj
 0001:000bca00       ??_Etype_info@@UAEPAXI@Z   004bda00 f i LIBCMTD:std_type_info_static.obj
 0001:000bca00       ??_Gtype_info@@UAEPAXI@Z   004bda00 f i LIBCMTD:std_type_info_static.obj
 0001:000bca40       __allrem                   004bda40 f   LIBCMTD:llrem.obj
 0001:000bcb20       __aullshr                  004bdb20 f   LIBCMTD:ullshr.obj
 0001:000bcb50       __ftol2_sse                004bdb50 f   LIBCMTD:_ftol2_.obj
 0001:000bcb59       __ftol2_pentium4           004bdb59 f   LIBCMTD:_ftol2_.obj
 0001:000bcb6c       __ftol2_sse_excpt          004bdb6c f   LIBCMTD:_ftol2_.obj
 0001:000bcb90       __ftol2                    004bdb90 f   LIBCMTD:_ftol2_.obj
 0001:000bcc40       __SEH_prolog4              004bdc40 f   LIBCMTD:_sehprolg4_.obj
 0001:000bcc86       __SEH_epilog4              004bdc86 f   LIBCMTD:_sehprolg4_.obj
 0001:000bccc0       ??3@YAXPAXI@Z              004bdcc0 f   LIBCMTD:delete_scalar_size.obj
 0001:000bcce0       ??3@YAXPAX@Z               004bdce0 f   LIBCMTD:delete_scalar.obj
 0001:000bccf8       _GetModuleFileNameW@12     004bdcf8 f   kernel32:KERNEL32.dll
 0001:000bccfe       _InterlockedPushEntrySList@8 004bdcfe f   kernel32:KERNEL32.dll
 0001:000bcd04       _InterlockedFlushSList@4   004bdd04 f   kernel32:KERNEL32.dll
 0001:000bcd0a       _RtlUnwind@16              004bdd0a f   kernel32:KERNEL32.dll
 0001:000bcd10       _InitializeCriticalSectionAndSpinCount@8 004bdd10 f   kernel32:KERNEL32.dll
 0001:000bcd16       _LoadLibraryExW@12         004bdd16 f   kernel32:KERNEL32.dll
 0001:000bcd1c       _GetFileType@4             004bdd1c f   kernel32:KERNEL32.dll
 0001:000bcd22       _GetModuleFileNameA@12     004bdd22 f   kernel32:KERNEL32.dll
 0001:000bcd28       _GetModuleHandleExW@12     004bdd28 f   kernel32:KERNEL32.dll
 0001:000bcd2e       _WriteConsoleW@20          004bdd2e f   kernel32:KERNEL32.dll
 0001:000bcd34       _WriteFile@20              004bdd34 f   kernel32:KERNEL32.dll
 0001:000bcd3a       _MultiByteToWideChar@24    004bdd3a f   kernel32:KERNEL32.dll
 0001:000bcd40       _WideCharToMultiByte@32    004bdd40 f   kernel32:KERNEL32.dll
 0001:000bcd46       _ExitProcess@4             004bdd46 f   kernel32:KERNEL32.dll
 0001:000bcd4c       _GetCommandLineA@0         004bdd4c f   kernel32:KERNEL32.dll
 0001:000bcd52       _GetCommandLineW@0         004bdd52 f   kernel32:KERNEL32.dll
 0001:000bcd58       _GetACP@0                  004bdd58 f   kernel32:KERNEL32.dll
 0001:000bcd5e       _RaiseException@16         004bdd5e f   kernel32:KERNEL32.dll
 0001:000bcd64       _HeapAlloc@12              004bdd64 f   kernel32:KERNEL32.dll
 0001:000bcd6a       _HeapValidate@12           004bdd6a f   kernel32:KERNEL32.dll
 0001:000bcd70       _GetSystemInfo@4           004bdd70 f   kernel32:KERNEL32.dll
 0001:000bcd76       _OutputDebugStringA@4      004bdd76 f   kernel32:KERNEL32.dll
 0001:000bcd7c       _OutputDebugStringW@4      004bdd7c f   kernel32:KERNEL32.dll
 0001:000bcd82       _WaitForSingleObjectEx@12  004bdd82 f   kernel32:KERNEL32.dll
 0001:000bcd88       _SetConsoleCtrlHandler@8   004bdd88 f   kernel32:KERNEL32.dll
 0001:000bcd8e       _GetDateFormatW@24         004bdd8e f   kernel32:KERNEL32.dll
 0001:000bcd94       _GetTimeFormatW@24         004bdd94 f   kernel32:KERNEL32.dll
 0001:000bcd9a       _CompareStringW@24         004bdd9a f   kernel32:KERNEL32.dll
 0001:000bcda0       _LCMapStringW@24           004bdda0 f   kernel32:KERNEL32.dll
 0001:000bcda6       _GetLocaleInfoW@16         004bdda6 f   kernel32:KERNEL32.dll
 0001:000bcdac       _IsValidLocale@8           004bddac f   kernel32:KERNEL32.dll
 0001:000bcdb2       _GetUserDefaultLCID@0      004bddb2 f   kernel32:KERNEL32.dll
 0001:000bcdb8       _EnumSystemLocalesW@8      004bddb8 f   kernel32:KERNEL32.dll
 0001:000bcdbe       _FindClose@4               004bddbe f   kernel32:KERNEL32.dll
 0001:000bcdc4       _FindFirstFileExA@24       004bddc4 f   kernel32:KERNEL32.dll
 0001:000bcdca       _FindFirstFileExW@24       004bddca f   kernel32:KERNEL32.dll
 0001:000bcdd0       _FindNextFileA@8           004bddd0 f   kernel32:KERNEL32.dll
 0001:000bcdd6       _FindNextFileW@8           004bddd6 f   kernel32:KERNEL32.dll
 0001:000bcddc       _IsValidCodePage@4         004bdddc f   kernel32:KERNEL32.dll
 0001:000bcde2       _GetOEMCP@0                004bdde2 f   kernel32:KERNEL32.dll
 0001:000bcde8       _GetCPInfo@8               004bdde8 f   kernel32:KERNEL32.dll
 0001:000bcdee       _GetEnvironmentStringsW@0  004bddee f   kernel32:KERNEL32.dll
 0001:000bcdf4       _FreeEnvironmentStringsW@4 004bddf4 f   kernel32:KERNEL32.dll
 0001:000bcdfa       _SetEnvironmentVariableA@8 004bddfa f   kernel32:KERNEL32.dll
 0001:000bce00       _SetEnvironmentVariableW@8 004bde00 f   kernel32:KERNEL32.dll
 0001:000bce06       _SetStdHandle@8            004bde06 f   kernel32:KERNEL32.dll
 0001:000bce0c       _GetStringTypeW@16         004bde0c f   kernel32:KERNEL32.dll
 0001:000bce12       _GetProcessHeap@0          004bde12 f   kernel32:KERNEL32.dll
 0001:000bce18       _HeapFree@12               004bde18 f   kernel32:KERNEL32.dll
 0001:000bce1e       _HeapReAlloc@16            004bde1e f   kernel32:KERNEL32.dll
 0001:000bce24       _HeapSize@12               004bde24 f   kernel32:KERNEL32.dll
 0001:000bce2a       _HeapQueryInformation@20   004bde2a f   kernel32:KERNEL32.dll
 0001:000bce30       _FlushFileBuffers@4        004bde30 f   kernel32:KERNEL32.dll
 0001:000bce36       _GetConsoleCP@0            004bde36 f   kernel32:KERNEL32.dll
 0001:000bce3c       _GetConsoleMode@8          004bde3c f   kernel32:KERNEL32.dll
 0001:000bce42       _CreateFileW@28            004bde42 f   kernel32:KERNEL32.dll
 0001:000bce48       _SetFilePointerEx@20       004bde48 f   kernel32:KERNEL32.dll
 0001:000bce4e       _ReadFile@20               004bde4e f   kernel32:KERNEL32.dll
 0001:000bce54       _ReadConsoleW@20           004bde54 f   kernel32:KERNEL32.dll
 0001:000bce5a       _SetEndOfFile@4            004bde5a f   kernel32:KERNEL32.dll
 0001:000bce60       _EncodePointer@4           004bde60 f   kernel32:KERNEL32.dll
 0001:000bce66       _DecodePointer@4           004bde66 f   kernel32:KERNEL32.dll
 0001:000bce70       _strrchr                   004bde70 f   libvcruntimed:strrchr.obj
 0001:000bd000       ?_CallCatchBlock2@@YAPAXPAUEHRegistrationNode@@PBU_s_FuncInfo@@PAXHK@Z 004be000 f   libvcruntimed:trnsctrl.obj
 0001:000bd090       ?_CallSETranslator@@YAHPAUEHExceptionRecord@@PAUEHRegistrationNode@@PAX2PBU_s_FuncInfo@@H1@Z 004be090 f   libvcruntimed:trnsctrl.obj
 0001:000bd1c0       ?_GetRangeOfTrysToCheck@@YAPBU_s_TryBlockMapEntry@@PBU_s_FuncInfo@@HHPAI1@Z 004be1c0 f   libvcruntimed:trnsctrl.obj
 0001:000bd260       ?_JumpToContinuation@@YGXPAXPAUEHRegistrationNode@@@Z 004be260 f   libvcruntimed:trnsctrl.obj
 0001:000bd2a0       ?_UnwindNestedFrames@@YGXPAUEHRegistrationNode@@PAUEHExceptionRecord@@@Z 004be2a0 f   libvcruntimed:trnsctrl.obj
 0001:000bd310       __CatchGuardHandler        004be310 f   libvcruntimed:trnsctrl.obj
 0001:000bd370       __CreateFrameInfo          004be370 f   libvcruntimed:trnsctrl.obj
 0001:000bd3a0       __FindAndUnlinkFrame       004be3a0 f   libvcruntimed:trnsctrl.obj
 0001:000bd410       __IsExceptionObjectToBeDestroyed 004be410 f   libvcruntimed:trnsctrl.obj
 0001:000bd450       __TranslatorGuardHandler   004be450 f   libvcruntimed:trnsctrl.obj
 0001:000bd530       ___CxxFrameHandler         004be530 f   libvcruntimed:trnsctrl.obj
 0001:000bd580       ___CxxFrameHandler2        004be580 f   libvcruntimed:trnsctrl.obj
 0001:000bd5d0       ___CxxFrameHandler3        004be5d0 f   libvcruntimed:trnsctrl.obj
 0001:000bd620       ___CxxLongjmpUnwind@4      004be620 f   libvcruntimed:trnsctrl.obj
 0001:000bd670       _wcschr                    004be670 f   libvcruntimed:wcschr.obj
 0001:000bd830       __CallSettingFrame@12      004be830 f   libvcruntimed:lowhelpr.obj
 0001:000bd857       __NLG_Return               004be857     libvcruntimed:lowhelpr.obj
 0001:000bd890       ___DestructExceptionObject 004be890 f   libvcruntimed:frame.obj
 0001:000bda10       ??0bad_exception@std@@QAE@ABV01@@Z 004bea10 f i libvcruntimed:frame.obj
 0001:000bda40       ??0bad_exception@std@@QAE@XZ 004bea40 f i libvcruntimed:frame.obj
 0001:000bda70       ??0exception@std@@QAE@ABV01@@Z 004bea70 f i libvcruntimed:frame.obj
 0001:000bdac0       ??0exception@std@@QAE@QBDH@Z 004beac0 f i libvcruntimed:frame.obj
 0001:000bdb00       ??1bad_exception@std@@UAE@XZ 004beb00 f i libvcruntimed:frame.obj
 0001:000bdb20       ??1exception@std@@UAE@XZ   004beb20 f i libvcruntimed:frame.obj
 0001:000bdb50       ??8type_info@@QBE_NABV0@@Z 004beb50 f i libvcruntimed:frame.obj
 0001:000bdba0       ??_Ebad_exception@std@@UAEPAXI@Z 004beba0 f i libvcruntimed:frame.obj
 0001:000bdba0       ??_Gbad_exception@std@@UAEPAXI@Z 004beba0 f i libvcruntimed:frame.obj
 0001:000bdbe0       ??_Gexception@std@@UAEPAXI@Z 004bebe0 f i libvcruntimed:frame.obj
 0001:000bdbe0       ??_Eexception@std@@UAEPAXI@Z 004bebe0 f i libvcruntimed:frame.obj
 0001:000beaa0       ?_CallMemberFunction0@@YGXQAX0@Z 004bfaa0 f i libvcruntimed:frame.obj
 0001:000beab0       ?_CallMemberFunction1@@YGXQAX00@Z 004bfab0 f i libvcruntimed:frame.obj
 0001:000beac0       ?_CallMemberFunction2@@YGXQAX00H@Z 004bfac0 f i libvcruntimed:frame.obj
 0001:000bead0       ?_ValidateExecute@@YA_NP6GHXZ@Z 004bfad0 f i libvcruntimed:frame.obj
 0001:000beaf0       ?_ValidateRead@@YA_NPBXI@Z 004bfaf0 f i libvcruntimed:frame.obj
 0001:000beb10       ?_ValidateWrite@@YA_NPAXI@Z 004bfb10 f i libvcruntimed:frame.obj
 0001:000beb30       ?raw_name@type_info@@QBEPBDXZ 004bfb30 f i libvcruntimed:frame.obj
 0001:000beb50       ?what@exception@std@@UBEPBDXZ 004bfb50 f i libvcruntimed:frame.obj
 0001:000beb90       __SetWinRTOutOfMemoryExceptionCallback 004bfb90 f   libvcruntimed:frame.obj
 0001:000beba0       ___AdjustPointer           004bfba0 f   libvcruntimed:frame.obj
 0001:000bec00       ___BuildCatchObject        004bfc00 f   libvcruntimed:frame.obj
 0001:000bed50       ___BuildCatchObjectHelper  004bfd50 f   libvcruntimed:frame.obj
 0001:000bf140       ___CxxDetectRethrow        004c0140 f   libvcruntimed:frame.obj
 0001:000bf1e0       ___CxxExceptionFilter      004c01e0 f   libvcruntimed:frame.obj
 0001:000bf450       ___CxxQueryExceptionSize   004c0450 f   libvcruntimed:frame.obj
 0001:000bf460       ___CxxRegisterExceptionObject 004c0460 f   libvcruntimed:frame.obj
 0001:000bf5d0       ___CxxUnregisterExceptionObject 004c05d0 f   libvcruntimed:frame.obj
 0001:000bf780       ___FrameUnwindFilter       004c0780 f   libvcruntimed:frame.obj
 0001:000bf810       ___FrameUnwindToState      004c0810 f   libvcruntimed:frame.obj
 0001:000bf9f0       ___GetPlatformExceptionInfo 004c09f0 f   libvcruntimed:frame.obj
 0001:000bfa90       ___InternalCxxFrameHandler 004c0a90 f   libvcruntimed:frame.obj
 0001:000bfca0       ___TypeMatch               004c0ca0 f   libvcruntimed:frame.obj
 0001:000bfdb0       ___current_exception       004c0db0 f   libvcruntimed:frame.obj
 0001:000bfdc0       ___current_exception_context 004c0dc0 f   libvcruntimed:frame.obj
 0001:000bfdd0       ___processing_throw        004c0dd0 f   libvcruntimed:frame.obj
 0001:000bfde0       ___std_terminate           004c0de0 f   libvcruntimed:frame.obj
 0001:000bfdf0       ___uncaught_exception      004c0df0 f   libvcruntimed:frame.obj
 0001:000bfe20       ___uncaught_exceptions     004c0e20 f   libvcruntimed:frame.obj
 0001:000bfe30       __is_exception_typeof      004c0e30 f   libvcruntimed:frame.obj
 0001:000bff70       __get_unexpected           004c0f70 f   libvcruntimed:unexpected.obj
 0001:000bff90       _set_unexpected            004c0f90 f   libvcruntimed:unexpected.obj
 0001:000bffd0       _unexpected                004c0fd0 f   libvcruntimed:unexpected.obj
 0001:000c0010       ??$?RD@__crt_public_free_policy@@QBEXQBD@Z 004c1010 f i libvcruntimed:std_exception.obj
 0001:000c0030       ??0?$__crt_unique_heap_ptr@DU__crt_public_free_policy@@@@QAE@QAD@Z 004c1030 f i libvcruntimed:std_exception.obj
 0001:000c0050       ??1?$__crt_unique_heap_ptr@DU__crt_public_free_policy@@@@QAE@XZ 004c1050 f i libvcruntimed:std_exception.obj
 0001:000c0070       ??B?$__crt_unique_heap_ptr@DU__crt_public_free_policy@@@@QBE_NXZ 004c1070 f i libvcruntimed:std_exception.obj
 0001:000c0090       ?detach@?$__crt_unique_heap_ptr@DU__crt_public_free_policy@@@@QAEPADXZ 004c1090 f i libvcruntimed:std_exception.obj
 0001:000c00c0       ?get@?$__crt_unique_heap_ptr@DU__crt_public_free_policy@@@@QBEPADXZ 004c10c0 f i libvcruntimed:std_exception.obj
 0001:000c00e0       ?is_valid@?$__crt_unique_heap_ptr@DU__crt_public_free_policy@@@@QBE_NXZ 004c10e0 f i libvcruntimed:std_exception.obj
 0001:000c0120       ?release@?$__crt_unique_heap_ptr@DU__crt_public_free_policy@@@@QAEXXZ 004c1120 f i libvcruntimed:std_exception.obj
 0001:000c0150       ___std_exception_copy      004c1150 f   libvcruntimed:std_exception.obj
 0001:000c0270       ___std_exception_destroy   004c1270 f   libvcruntimed:std_exception.obj
 0001:000c02b0       __CxxThrowException@8      004c12b0 f   libvcruntimed:throw.obj
 0002:00000000       ___xc_a                    004c5000     LIBCMTD:initializers.obj
 0002:00000208       ___xc_z                    004c5208     LIBCMTD:initializers.obj
 0002:0000030c       ___xi_a                    004c530c     LIBCMTD:initializers.obj
 0002:00000618       ___acrt_stdio_initializer  004c5618     libucrtd:stdio_initializer.obj
 0002:0000061c       ___acrt_multibyte_initializer 004c561c     libucrtd:multibyte_initializer.obj
 0002:00000620       ___acrt_tran_sse2_initializer 004c5620     libucrtd:sse2_initializer.obj
 0002:00000728       ___xi_z                    004c5728     LIBCMTD:initializers.obj
 0002:0000082c       ___xp_a                    004c582c     LIBCMTD:initializers.obj
 0002:00000930       ___acrt_locale_terminator  004c5930     libucrtd:locale_initializer.obj
 0002:00000934       ___dcrt_console_output_terminator 004c5934     libucrtd:console_output_initializer.obj
 0002:00000a3c       ___acrt_stdio_terminator   004c5a3c     libucrtd:stdio_initializer.obj
 0002:00000b40       ___xp_z                    004c5b40     LIBCMTD:initializers.obj
 0002:00000c44       ___xt_a                    004c5c44     LIBCMTD:initializers.obj
 0002:00000d48       ___xt_z                    004c5d48     LIBCMTD:initializers.obj
 0002:000011f0       __real@00000000            004c61f0     pjlib-i386-win32-vc14-debug:string.obj
 0002:000011f4       __real@3f800000            004c61f4     pjlib-i386-win32-vc14-debug:string.obj
 0002:000011f8       __real@41200000            004c61f8     pjlib-i386-win32-vc14-debug:string.obj
 0002:00001200       __xmm@41f00000000000000000000000000000 004c6200     pjlib-i386-win32-vc14-debug:string.obj
 0002:00001214       _PJ_AF_UNSPEC              004c6214     pjlib-i386-win32-vc14-debug:sock_bsd.obj
 0002:00001218       _PJ_AF_UNIX                004c6218     pjlib-i386-win32-vc14-debug:sock_bsd.obj
 0002:0000121c       _PJ_AF_INET                004c621c     pjlib-i386-win32-vc14-debug:sock_bsd.obj
 0002:00001220       _PJ_AF_INET6               004c6220     pjlib-i386-win32-vc14-debug:sock_bsd.obj
 0002:00001224       _PJ_AF_PACKET              004c6224     pjlib-i386-win32-vc14-debug:sock_bsd.obj
 0002:00001228       _PJ_AF_IRDA                004c6228     pjlib-i386-win32-vc14-debug:sock_bsd.obj
 0002:0000122c       _PJ_SOCK_STREAM            004c622c     pjlib-i386-win32-vc14-debug:sock_bsd.obj
 0002:00001230       _PJ_SOCK_DGRAM             004c6230     pjlib-i386-win32-vc14-debug:sock_bsd.obj
 0002:00001234       _PJ_SOCK_RAW               004c6234     pjlib-i386-win32-vc14-debug:sock_bsd.obj
 0002:00001238       _PJ_SOCK_RDM               004c6238     pjlib-i386-win32-vc14-debug:sock_bsd.obj
 0002:0000123c       _PJ_SOL_SOCKET             004c623c     pjlib-i386-win32-vc14-debug:sock_bsd.obj
 0002:00001240       _PJ_SOL_IP                 004c6240     pjlib-i386-win32-vc14-debug:sock_bsd.obj
 0002:00001244       _PJ_SOL_TCP                004c6244     pjlib-i386-win32-vc14-debug:sock_bsd.obj
 0002:00001248       _PJ_SOL_UDP                004c6248     pjlib-i386-win32-vc14-debug:sock_bsd.obj
 0002:0000124c       _PJ_SOL_IPV6               004c624c     pjlib-i386-win32-vc14-debug:sock_bsd.obj
 0002:00001250       _PJ_IP_TOS                 004c6250     pjlib-i386-win32-vc14-debug:sock_bsd.obj
 0002:00001254       _PJ_IPTOS_LOWDELAY         004c6254     pjlib-i386-win32-vc14-debug:sock_bsd.obj
 0002:00001258       _PJ_IPTOS_THROUGHPUT       004c6258     pjlib-i386-win32-vc14-debug:sock_bsd.obj
 0002:0000125c       _PJ_IPTOS_RELIABILITY      004c625c     pjlib-i386-win32-vc14-debug:sock_bsd.obj
 0002:00001260       _PJ_IPTOS_MINCOST          004c6260     pjlib-i386-win32-vc14-debug:sock_bsd.obj
 0002:00001264       _PJ_IPV6_TCLASS            004c6264     pjlib-i386-win32-vc14-debug:sock_bsd.obj
 0002:00001268       _PJ_SO_TYPE                004c6268     pjlib-i386-win32-vc14-debug:sock_bsd.obj
 0002:0000126c       _PJ_SO_RCVBUF              004c626c     pjlib-i386-win32-vc14-debug:sock_bsd.obj
 0002:00001270       _PJ_SO_SNDBUF              004c6270     pjlib-i386-win32-vc14-debug:sock_bsd.obj
 0002:00001274       _PJ_TCP_NODELAY            004c6274     pjlib-i386-win32-vc14-debug:sock_bsd.obj
 0002:00001278       _PJ_SO_REUSEADDR           004c6278     pjlib-i386-win32-vc14-debug:sock_bsd.obj
 0002:0000127c       _PJ_SO_NOSIGPIPE           004c627c     pjlib-i386-win32-vc14-debug:sock_bsd.obj
 0002:00001280       _PJ_SO_PRIORITY            004c6280     pjlib-i386-win32-vc14-debug:sock_bsd.obj
 0002:00001284       _PJ_IP_MULTICAST_IF        004c6284     pjlib-i386-win32-vc14-debug:sock_bsd.obj
 0002:00001288       _PJ_IP_MULTICAST_TTL       004c6288     pjlib-i386-win32-vc14-debug:sock_bsd.obj
 0002:0000128c       _PJ_IP_MULTICAST_LOOP      004c628c     pjlib-i386-win32-vc14-debug:sock_bsd.obj
 0002:00001290       _PJ_IP_ADD_MEMBERSHIP      004c6290     pjlib-i386-win32-vc14-debug:sock_bsd.obj
 0002:00001294       _PJ_IP_DROP_MEMBERSHIP     004c6294     pjlib-i386-win32-vc14-debug:sock_bsd.obj
 0002:00001298       _PJ_MSG_OOB                004c6298     pjlib-i386-win32-vc14-debug:sock_bsd.obj
 0002:0000129c       _PJ_MSG_PEEK               004c629c     pjlib-i386-win32-vc14-debug:sock_bsd.obj
 0002:000012a0       _PJ_MSG_DONTROUTE          004c62a0     pjlib-i386-win32-vc14-debug:sock_bsd.obj
 0002:000012c0       _PJ_GUID_STRING_LENGTH     004c62c0     pjlib-i386-win32-vc14-debug:guid_win32.obj
 0002:000014a8       __real@0000000000000000    004c64a8     pjlib-i386-win32-vc14-debug:os_timestamp_common.obj
 0002:000014b8       __real@3ff0000000000000    004c64b8     pjlib-i386-win32-vc14-debug:os_timestamp_common.obj
 0002:000014c8       __real@408f400000000000    004c64c8     pjlib-i386-win32-vc14-debug:os_timestamp_common.obj
 0002:000014d8       __real@412e848000000000    004c64d8     pjlib-i386-win32-vc14-debug:os_timestamp_common.obj
 0002:000014e8       __real@41cdcd6500000000    004c64e8     pjlib-i386-win32-vc14-debug:os_timestamp_common.obj
 0002:0000159c       __Microsoft_CRTProvider    004c659c     libvcruntimed:telemetry.obj
 0002:000015a0       ??_C@_00CNPNBAHC@?$AA@     004c65a0     libvcruntimed:telemetry.obj
 0002:000015a4       ??_C@_11LOCGONAA@?$AA?$AA@ 004c65a4     libvcruntimed:telemetry.obj
 0002:000015a8       ??_C@_0O@JEOPJOMI@Main?5Invoked?4?$AA@ 004c65a8     libvcruntimed:telemetry.obj
 0002:000015b8       ??_C@_0P@NEAEIBDO@Main?5Returned?4?$AA@ 004c65b8     libvcruntimed:telemetry.obj
 0002:000015cc       ??_C@_0DF@NOINFFIM@f?3?2dd?2vctools?2crt?2vcruntime?2src?2@ 004c65cc     libvcruntimed:std_type_info.obj
 0002:00001620       ??_C@_1BC@DNHGCMLG@?$AAa?$AAd?$AAv?$AAa?$AAp?$AAi?$AA3?$AA2?$AA?$AA@ 004c6620     libvcruntimed:winapi_downlevel.obj
 0002:00001638       ??_C@_1DM@KHCHBNEB@?$AAa?$AAp?$AAi?$AA?9?$AAm?$AAs?$AA?9?$AAw?$AAi?$AAn?$AA?9?$AAc?$AAo?$AAr?$AAe?$AA?9?$AAf?$AAi?$AAb?$AAe?$AAr?$AAs?$AA?9?$AAl?$AA1?$AA?9?$AA1?$AA?9?$AA1?$AA?$AA@ 004c6638     libvcruntimed:winapi_downlevel.obj
 0002:00001680       ??_C@_1DK@LPPGFMPP@?$AAa?$AAp?$AAi?$AA?9?$AAm?$AAs?$AA?9?$AAw?$AAi?$AAn?$AA?9?$AAc?$AAo?$AAr?$AAe?$AA?9?$AAs?$AAy?$AAn?$AAc?$AAh?$AA?9?$AAl?$AA1?$AA?9?$AA2?$AA?9?$AA0?$AA?$AA@ 004c6680     libvcruntimed:winapi_downlevel.obj
 0002:000016c8       ??_C@_1BC@GDMECMAK@?$AAk?$AAe?$AAr?$AAn?$AAe?$AAl?$AA3?$AA2?$AA?$AA@ 004c66c8     libvcruntimed:winapi_downlevel.obj
 0002:000016e0       ??_C@_17CNPHIMPH@?$AA?$CF?$AAl?$AAs?$AA?$AA@ 004c66e0     libvcruntimed:winapi_downlevel.obj
 0002:000016f0       ??_C@_1EM@LBIFGLGH@?$AAc?$AAa?$AAc?$AAh?$AAe?$AAd?$AA_?$AAh?$AAa?$AAn?$AAd?$AAl?$AAe?$AA?5?$AA?$DN?$AA?$DN?$AA?5?$AAI?$AAN?$AAV?$AAA?$AAL?$AAI?$AAD?$AA_?$AAH?$AAA?$AAN?$AAD?$AAL?$AAE?$AA_@ 004c66f0     libvcruntimed:winapi_downlevel.obj
 0002:00001750       ??_C@_1HM@FGPKDEPG@?$AAf?$AA?3?$AA?2?$AAd?$AAd?$AA?2?$AAv?$AAc?$AAt?$AAo?$AAo?$AAl?$AAs?$AA?2?$AAc?$AAr?$AAt?$AA?2?$AAv?$AAc?$AAr?$AAu?$AAn?$AAt?$AAi?$AAm?$AAe?$AA?2?$AAs?$AAr?$AAc?$AA?2@ 004c6750     libvcruntimed:winapi_downlevel.obj
 0002:000017e4       ??_C@_1DI@MAHEDLDB@?$AAc?$AAa?$AAc?$AAh?$AAe?$AAd?$AA_?$AAh?$AAa?$AAn?$AAd?$AAl?$AAe?$AA?5?$AA?$DN?$AA?$DN?$AA?5?$AAn?$AAe?$AAw?$AA_?$AAh?$AAa?$AAn?$AAd?$AAl?$AAe?$AA?$AA@ 004c67e4     libvcruntimed:winapi_downlevel.obj
 0002:00001828       ??_C@_1FC@IBNCGNKL@?$AAc?$AAa?$AAc?$AAh?$AAe?$AAd?$AA_?$AAf?$AAp?$AA?5?$AA?$DN?$AA?$DN?$AA?5?$AAi?$AAn?$AAv?$AAa?$AAl?$AAi?$AAd?$AA_?$AAf?$AAu?$AAn?$AAc?$AAt?$AAi?$AAo?$AAn?$AA_?$AAs?$AAe@ 004c6828     libvcruntimed:winapi_downlevel.obj
 0002:0000188c       ??_C@_1CI@GDJBAGLP@?$AAc?$AAa?$AAc?$AAh?$AAe?$AAd?$AA_?$AAf?$AAp?$AA?5?$AA?$DN?$AA?$DN?$AA?5?$AAn?$AAe?$AAw?$AA_?$AAf?$AAp?$AA?$AA@ 004c688c     libvcruntimed:winapi_downlevel.obj
 0002:000018c0       ??_C@_0O@BAMBGLIE@EventRegister?$AA@ 004c68c0     libvcruntimed:winapi_downlevel.obj
 0002:000018d4       ??_C@_0BE@BJEEGHGK@EventSetInformation?$AA@ 004c68d4     libvcruntimed:winapi_downlevel.obj
 0002:000018f0       ??_C@_0BA@FAKLIPIC@EventUnregister?$AA@ 004c68f0     libvcruntimed:winapi_downlevel.obj
 0002:00001908       ??_C@_0BD@PKLHJPHD@EventWriteTransfer?$AA@ 004c6908     libvcruntimed:winapi_downlevel.obj
 0002:0000192c       ??_C@_08KNHFBNJ@FlsAlloc?$AA@ 004c692c     libvcruntimed:winapi_downlevel.obj
 0002:00001944       ??_C@_07PEJMOBNF@FlsFree?$AA@ 004c6944     libvcruntimed:winapi_downlevel.obj
 0002:0000195c       ??_C@_0M@GDNOONDI@FlsGetValue?$AA@ 004c695c     libvcruntimed:winapi_downlevel.obj
 0002:00001978       ??_C@_0M@JCPCPOEF@FlsSetValue?$AA@ 004c6978     libvcruntimed:winapi_downlevel.obj
 0002:00001994       ??_C@_0BM@HCFOFFN@InitializeCriticalSectionEx?$AA@ 004c6994     libvcruntimed:winapi_downlevel.obj
 0002:000019b8       ??_C@_0DN@JAECLCAP@f?3?2dd?2vctools?2crt?2vcruntime?2src?2@ 004c69b8     libvcruntimed:per_thread_data.obj
 0002:00001be8       ??_C@_08EHJDFFNH@__based?$CI?$AA@ 004c6be8     libvcruntimed:undname.obj
 0002:00001bf4       ??_C@_07KOLFKCDI@__cdecl?$AA@ 004c6bf4     libvcruntimed:undname.obj
 0002:00001c00       ??_C@_08GHMPAG@__pascal?$AA@ 004c6c00     libvcruntimed:undname.obj
 0002:00001c0c       ??_C@_09IFJBGAPI@__stdcall?$AA@ 004c6c0c     libvcruntimed:undname.obj
 0002:00001c18       ??_C@_0L@NPHFGOKO@__thiscall?$AA@ 004c6c18     libvcruntimed:undname.obj
 0002:00001c28       ??_C@_0L@JMKHOMEK@__fastcall?$AA@ 004c6c28     libvcruntimed:undname.obj
 0002:00001c38       ??_C@_0N@BCKKPABJ@__vectorcall?$AA@ 004c6c38     libvcruntimed:undname.obj
 0002:00001c48       ??_C@_09HIJEGCPM@__clrcall?$AA@ 004c6c48     libvcruntimed:undname.obj
 0002:00001c54       ??_C@_06GHPCKEAG@__eabi?$AA@ 004c6c54     libvcruntimed:undname.obj
 0002:00001c5c       ??_C@_07JOMMBBKO@__ptr64?$AA@ 004c6c5c     libvcruntimed:undname.obj
 0002:00001c68       ??_C@_0L@PILCLIHE@__restrict?$AA@ 004c6c68     libvcruntimed:undname.obj
 0002:00001c78       ??_C@_0M@GFIIJFMG@__unaligned?$AA@ 004c6c78     libvcruntimed:undname.obj
 0002:00001c88       ??_C@_09DHDLOLLB@restrict?$CI?$AA@ 004c6c88     libvcruntimed:undname.obj
 0002:00001c94       ??_C@_04NIHEBCM@?5new?$AA@ 004c6c94     libvcruntimed:undname.obj
 0002:00001c9c       ??_C@_07FPCDHGMM@?5delete?$AA@ 004c6c9c     libvcruntimed:undname.obj
 0002:00001ca8       ??_C@_01NEMOKFLO@?$DN?$AA@ 004c6ca8     libvcruntimed:undname.obj
 0002:00001cac       ??_C@_02GPIOPFAK@?$DO?$DO?$AA@ 004c6cac     libvcruntimed:undname.obj
 0002:00001cb0       ??_C@_02FODMEDOG@?$DM?$DM?$AA@ 004c6cb0     libvcruntimed:undname.obj
 0002:00001cb4       ??_C@_01DCLJPIOD@?$CB?$AA@ 004c6cb4     libvcruntimed:undname.obj
 0002:00001cb8       ??_C@_02EGOFBIJA@?$DN?$DN?$AA@ 004c6cb8     libvcruntimed:undname.obj
 0002:00001cbc       ??_C@_02FDNJECIE@?$CB?$DN?$AA@ 004c6cbc     libvcruntimed:undname.obj
 0002:00001cc0       ??_C@_02GPECMEKF@?$FL?$FN?$AA@ 004c6cc0     libvcruntimed:undname.obj
 0002:00001cc4       ??_C@_08LHJFAFGD@operator?$AA@ 004c6cc4     libvcruntimed:undname.obj
 0002:00001cd0       ??_C@_02HBOOOICD@?9?$DO?$AA@ 004c6cd0     libvcruntimed:undname.obj
 0002:00001cd4       ??_C@_01NBENCBCI@?$CK?$AA@ 004c6cd4     libvcruntimed:undname.obj
 0002:00001cd8       ??_C@_02ECNGHCIF@?$CL?$CL?$AA@ 004c6cd8     libvcruntimed:undname.obj
 0002:00001cdc       ??_C@_02BAABKJLB@?9?9?$AA@ 004c6cdc     libvcruntimed:undname.obj
 0002:00001ce0       ??_C@_01JOAMLHOP@?9?$AA@   004c6ce0     libvcruntimed:undname.obj
 0002:00001ce4       ??_C@_01MIFGBAGJ@?$CL?$AA@ 004c6ce4     libvcruntimed:undname.obj
 0002:00001ce8       ??_C@_01HNPIGOCE@?$CG?$AA@ 004c6ce8     libvcruntimed:undname.obj
 0002:00001cec       ??_C@_03MNHNFDLC@?9?$DO?$CK?$AA@ 004c6cec     libvcruntimed:undname.obj
 0002:00001cf0       ??_C@_01KMDKNFGN@?1?$AA@   004c6cf0     libvcruntimed:undname.obj
 0002:00001cf4       ??_C@_01FGNFDNOH@?$CF?$AA@ 004c6cf4     libvcruntimed:undname.obj
 0002:00001cf8       ??_C@_01MNNFJEPP@?$DM?$AA@ 004c6cf8     libvcruntimed:undname.obj
 0002:00001cfc       ??_C@_02EHCHHCKH@?$DM?$DN?$AA@ 004c6cfc     libvcruntimed:undname.obj
 0002:00001d00       ??_C@_01PPODPGHN@?$DO?$AA@ 004c6d00     libvcruntimed:undname.obj
 0002:00001d04       ??_C@_02EEKDKGMJ@?$DO?$DN?$AA@ 004c6d04     libvcruntimed:undname.obj
 0002:00001d08       ??_C@_01IHBHIGKO@?0?$AA@   004c6d08     libvcruntimed:undname.obj
 0002:00001d0c       ??_C@_02HCKGKOFO@?$CI?$CJ?$AA@ 004c6d0c     libvcruntimed:undname.obj
 0002:00001d10       ??_C@_01PJKLJHI@?$HO?$AA@  004c6d10     libvcruntimed:undname.obj
 0002:00001d14       ??_C@_01JKBOJNNK@?$FO?$AA@ 004c6d14     libvcruntimed:undname.obj
 0002:00001d18       ??_C@_01DNKMNLPK@?$HM?$AA@ 004c6d18     libvcruntimed:undname.obj
 0002:00001d1c       ??_C@_02PPKAJPJL@?$CG?$CG?$AA@ 004c6d1c     libvcruntimed:undname.obj
 0002:00001d20       ??_C@_02NONPIBCD@?$HM?$HM?$AA@ 004c6d20     libvcruntimed:undname.obj
 0002:00001d24       ??_C@_02FPIMKNGF@?$CK?$DN?$AA@ 004c6d24     libvcruntimed:undname.obj
 0002:00001d28       ??_C@_02FOEOMHFC@?$CL?$DN?$AA@ 004c6d28     libvcruntimed:undname.obj
 0002:00001d2c       ??_C@_02FKMDLLOA@?9?$DN?$AA@ 004c6d2c     libvcruntimed:undname.obj
 0002:00001d30       ??_C@_02FJEHGPIO@?1?$DN?$AA@ 004c6d30     libvcruntimed:undname.obj
 0002:00001d34       ??_C@_02FENAOKFI@?$CF?$DN?$AA@ 004c6d34     libvcruntimed:undname.obj
 0002:00001d38       ??_C@_03IKFCCPFF@?$DO?$DO?$DN?$AA@ 004c6d38     libvcruntimed:undname.obj
 0002:00001d3c       ??_C@_03CDNPDDLA@?$DM?$DM?$DN?$AA@ 004c6d3c     libvcruntimed:undname.obj
 0002:00001d40       ??_C@_02FGJGFEAB@?$CG?$DN?$AA@ 004c6d40     libvcruntimed:undname.obj
 0002:00001d44       ??_C@_02DHLNPPGH@?$HM?$DN?$AA@ 004c6d44     libvcruntimed:undname.obj
 0002:00001d48       ??_C@_02MHEGNOJ@?$FO?$DN?$AA@ 004c6d48     libvcruntimed:undname.obj
 0002:00001d4c       ??_C@_09IFPLHPGF@?$GAvftable?8?$AA@ 004c6d4c     libvcruntimed:undname.obj
 0002:00001d58       ??_C@_09BLBHBJP@?$GAvbtable?8?$AA@ 004c6d58     libvcruntimed:undname.obj
 0002:00001d64       ??_C@_07FEEIOKP@?$GAvcall?8?$AA@ 004c6d64     libvcruntimed:undname.obj
 0002:00001d70       ??_C@_08LLFFHHDJ@?$GAtypeof?8?$AA@ 004c6d70     libvcruntimed:undname.obj
 0002:00001d7c       ??_C@_0BF@KDPPACIK@?$GAlocal?5static?5guard?8?$AA@ 004c6d7c     libvcruntimed:undname.obj
 0002:00001d98       ??_C@_08OBABFOLI@?$GAstring?8?$AA@ 004c6d98     libvcruntimed:undname.obj
 0002:00001da4       ??_C@_0BD@JDLKDPAB@?$GAvbase?5destructor?8?$AA@ 004c6da4     libvcruntimed:undname.obj
 0002:00001dbc       ??_C@_0BN@DEGPLNFK@?$GAvector?5deleting?5destructor?8?$AA@ 004c6dbc     libvcruntimed:undname.obj
 0002:00001de0       ??_C@_0BO@OBMKPJIG@?$GAdefault?5constructor?5closure?8?$AA@ 004c6de0     libvcruntimed:undname.obj
 0002:00001e04       ??_C@_0BN@IMDCHIKM@?$GAscalar?5deleting?5destructor?8?$AA@ 004c6e04     libvcruntimed:undname.obj
 0002:00001e28       ??_C@_0BO@PFGOCPJJ@?$GAvector?5constructor?5iterator?8?$AA@ 004c6e28     libvcruntimed:undname.obj
 0002:00001e4c       ??_C@_0BN@LFPFMEDL@?$GAvector?5destructor?5iterator?8?$AA@ 004c6e4c     libvcruntimed:undname.obj
 0002:00001e70       ??_C@_0CE@IKBNEHA@?$GAvector?5vbase?5constructor?5iterat@ 004c6e70     libvcruntimed:undname.obj
 0002:00001e9c       ??_C@_0BL@NILFHHPC@?$GAvirtual?5displacement?5map?8?$AA@ 004c6e9c     libvcruntimed:undname.obj
 0002:00001ebc       ??_C@_0CB@JONCMFFK@?$GAeh?5vector?5constructor?5iterator?8@ 004c6ebc     libvcruntimed:undname.obj
 0002:00001ee4       ??_C@_0CA@GCEOPDGL@?$GAeh?5vector?5destructor?5iterator?8?$AA@ 004c6ee4     libvcruntimed:undname.obj
 0002:00001f0c       ??_C@_0CH@OOJPLCPH@?$GAeh?5vector?5vbase?5constructor?5ite@ 004c6f0c     libvcruntimed:undname.obj
 0002:00001f3c       ??_C@_0BL@LLKPOHJI@?$GAcopy?5constructor?5closure?8?$AA@ 004c6f3c     libvcruntimed:undname.obj
 0002:00001f5c       ??_C@_0BA@KBCDOMBN@?$GAudt?5returning?8?$AA@ 004c6f5c     libvcruntimed:undname.obj
 0002:00001f70       ??_C@_03KLGMFNMG@?$GAEH?$AA@ 004c6f70     libvcruntimed:undname.obj
 0002:00001f74       ??_C@_05KHLCHHI@?$GARTTI?$AA@ 004c6f74     libvcruntimed:undname.obj
 0002:00001f7c       ??_C@_0BA@KKLDJDLB@?$GAlocal?5vftable?8?$AA@ 004c6f7c     libvcruntimed:undname.obj
 0002:00001f90       ??_C@_0CE@IIHCMGGL@?$GAlocal?5vftable?5constructor?5closu@ 004c6f90     libvcruntimed:undname.obj
 0002:00001fbc       ??_C@_06FHBGPFGH@?5new?$FL?$FN?$AA@ 004c6fbc     libvcruntimed:undname.obj
 0002:00001fc4       ??_C@_09LBNFPBCA@?5delete?$FL?$FN?$AA@ 004c6fc4     libvcruntimed:undname.obj
 0002:00001fd0       ??_C@_0P@HJKNJFNN@?$GAomni?5callsig?8?$AA@ 004c6fd0     libvcruntimed:undname.obj
 0002:00001fe4       ??_C@_0BL@CNOONJFP@?$GAplacement?5delete?5closure?8?$AA@ 004c6fe4     libvcruntimed:undname.obj
 0002:00002004       ??_C@_0BN@CKNJLHMB@?$GAplacement?5delete?$FL?$FN?5closure?8?$AA@ 004c7004     libvcruntimed:undname.obj
 0002:00002028       ??_C@_0CG@CFDHKGGD@?$GAmanaged?5vector?5constructor?5iter@ 004c7028     libvcruntimed:undname.obj
 0002:00002058       ??_C@_0CF@IMGKMJNO@?$GAmanaged?5vector?5destructor?5itera@ 004c7058     libvcruntimed:undname.obj
 0002:00002084       ??_C@_0CG@HLDDJMAG@?$GAeh?5vector?5copy?5constructor?5iter@ 004c7084     libvcruntimed:undname.obj
 0002:000020b4       ??_C@_0CM@FCBBDIGB@?$GAeh?5vector?5vbase?5copy?5constructo@ 004c70b4     libvcruntimed:undname.obj
 0002:000020e8       ??_C@_0BL@CLIPGLGB@?$GAdynamic?5initializer?5for?5?8?$AA@ 004c70e8     libvcruntimed:undname.obj
 0002:00002108       ??_C@_0CB@PDBIFEP@?$GAdynamic?5atexit?5destructor?5for?5?8@ 004c7108     libvcruntimed:undname.obj
 0002:00002130       ??_C@_0CD@CGAJBKEJ@?$GAvector?5copy?5constructor?5iterato@ 004c7130     libvcruntimed:undname.obj
 0002:0000215c       ??_C@_0CJ@GJELGAMM@?$GAvector?5vbase?5copy?5constructor?5i@ 004c715c     libvcruntimed:undname.obj
 0002:00002190       ??_C@_0CL@FGIJHLCE@?$GAmanaged?5vector?5copy?5constructor@ 004c7190     libvcruntimed:undname.obj
 0002:000021c4       ??_C@_0BM@PMGGMLDN@?$GAlocal?5static?5thread?5guard?8?$AA@ 004c71c4     libvcruntimed:undname.obj
 0002:000021e8       ??_C@_0N@BDNMDMOL@operator?5?$CC?$CC?5?$AA@ 004c71e8     libvcruntimed:undname.obj
 0002:000021f8       ??_C@_0BC@DAFEJGAK@?5Type?5Descriptor?8?$AA@ 004c71f8     libvcruntimed:undname.obj
 0002:00002210       ??_C@_0BM@LDKODKLH@?5Base?5Class?5Descriptor?5at?5?$CI?$AA@ 004c7210     libvcruntimed:undname.obj
 0002:00002234       ??_C@_0BD@LGICGFMM@?5Base?5Class?5Array?8?$AA@ 004c7234     libvcruntimed:undname.obj
 0002:0000224c       ??_C@_0BN@MECKDCOJ@?5Class?5Hierarchy?5Descriptor?8?$AA@ 004c724c     libvcruntimed:undname.obj
 0002:00002270       ??_C@_0BK@CFCOFLF@?5Complete?5Object?5Locator?8?$AA@ 004c7270     libvcruntimed:undname.obj
 0002:00002290       ??_C@_04HEJADOOB@CV?3?5?$AA@ 004c7290     libvcruntimed:undname.obj
 0002:00002298       ??_C@_02MOLJINC@?3?3?$AA@  004c7298     libvcruntimed:undname.obj
 0002:0000229c       ??_C@_0BE@JAEOCHPE@template?9parameter?9?$AA@ 004c729c     libvcruntimed:undname.obj
 0002:000022b4       ??_C@_0O@KHGCOMHP@generic?9type?9?$AA@ 004c72b4     libvcruntimed:undname.obj
 0002:000022c4       ??_C@_01NLNLIGKH@?$GA?$AA@ 004c72c4     libvcruntimed:undname.obj
 0002:000022c8       ??_C@_01GEODFPGF@?8?$AA@   004c72c8     libvcruntimed:undname.obj
 0002:000022cc       ??_C@_0BG@JNJLAMPM@?$GAanonymous?5namespace?8?$AA@ 004c72cc     libvcruntimed:undname.obj
 0002:000022e8       ??_C@_02OHHJMEON@?8?8?$AA@ 004c72e8     libvcruntimed:undname.obj
 0002:000022ec       ??_C@_0BN@IBLMMFAP@?$GAnon?9type?9template?9parameter?$AA@ 004c72ec     libvcruntimed:undname.obj
 0002:00002310       ??_C@_04GKJNKENE@void?$AA@ 004c7310     libvcruntimed:undname.obj
 0002:00002318       ??_C@_0BE@EODMJLIF@?$GAtemplate?9parameter?$AA@ 004c7318     libvcruntimed:undname.obj
 0002:00002330       ??_C@_03KHICJKCI@?4?4?4?$AA@ 004c7330     libvcruntimed:undname.obj
 0002:00002334       ??_C@_04HIBGFPH@NULL?$AA@  004c7334     libvcruntimed:undname.obj
 0002:0000233c       ??_C@_02DPKJAMEF@?$CFd?$AA@ 004c733c     libvcruntimed:undname.obj
 0002:00002340       ??_C@_0BK@IHCCFNEL@?$GAtemplate?9type?9parameter?9?$AA@ 004c7340     libvcruntimed:undname.obj
 0002:00002360       ??_C@_0BK@OFCNNNKO@?$GAgeneric?9class?9parameter?9?$AA@ 004c7360     libvcruntimed:undname.obj
 0002:00002380       ??_C@_0BL@NGJBLFIL@?$GAgeneric?9method?9parameter?9?$AA@ 004c7380     libvcruntimed:undname.obj
 0002:000023a0       ??_C@_03OPGICMGF@?$HN?8?5?$AA@ 004c73a0     libvcruntimed:undname.obj
 0002:000023a4       ??_C@_02IGFCGPIL@?$HN?8?$AA@ 004c73a4     libvcruntimed:undname.obj
 0002:000023a8       ??_C@_01CLKCMJKC@?5?$AA@   004c73a8     libvcruntimed:undname.obj
 0002:000023ac       ??_C@_0N@CBHHHENL@?$GAvtordispex?$HL?$AA@ 004c73ac     libvcruntimed:undname.obj
 0002:000023bc       ??_C@_0L@GHPFDFH@?$GAvtordisp?$HL?$AA@ 004c73bc     libvcruntimed:undname.obj
 0002:000023cc       ??_C@_0L@HNGCOGAE@?$GAadjustor?$HL?$AA@ 004c73cc     libvcruntimed:undname.obj
 0002:000023dc       ??_C@_0CB@KJDOOODE@?$GAlocal?5static?5destructor?5helper?8@ 004c73dc     libvcruntimed:undname.obj
 0002:00002404       ??_C@_0DB@ILEFOCIJ@?$GAtemplate?5static?5data?5member?5con@ 004c7404     libvcruntimed:undname.obj
 0002:00002440       ??_C@_0DA@HGFJFBBE@?$GAtemplate?5static?5data?5member?5des@ 004c7440     libvcruntimed:undname.obj
 0002:0000247c       ??_C@_07PGOEDBHP@static?5?$AA@ 004c747c     libvcruntimed:undname.obj
 0002:00002488       ??_C@_08NIEOINHE@virtual?5?$AA@ 004c7488     libvcruntimed:undname.obj
 0002:00002494       ??_C@_09LAPHOOG@private?3?5?$AA@ 004c7494     libvcruntimed:undname.obj
 0002:000024a0       ??_C@_0M@GAIFPFIP@protected?3?5?$AA@ 004c74a0     libvcruntimed:undname.obj
 0002:000024b0       ??_C@_08GPDDCMKI@public?3?5?$AA@ 004c74b0     libvcruntimed:undname.obj
 0002:000024bc       ??_C@_08KJLFOPNE@?$FLthunk?$FN?3?$AA@ 004c74bc     libvcruntimed:undname.obj
 0002:000024c8       ??_C@_0M@DHNBOJMP@extern?5?$CCC?$CC?5?$AA@ 004c74c8     libvcruntimed:undname.obj
 0002:000024d8       ??_C@_02KCKGHPCA@?$CJ?5?$AA@ 004c74d8     libvcruntimed:undname.obj
 0002:000024dc       ??_C@_05CIHEBHNO@char?5?$AA@ 004c74dc     libvcruntimed:undname.obj
 0002:000024e4       ??_C@_06EHJMALKF@short?5?$AA@ 004c74e4     libvcruntimed:undname.obj
 0002:000024ec       ??_C@_04LAHKHJMA@int?5?$AA@ 004c74ec     libvcruntimed:undname.obj
 0002:000024f4       ??_C@_05CJIMAING@long?5?$AA@ 004c74f4     libvcruntimed:undname.obj
 0002:000024fc       ??_C@_09EBBEKKIH@unsigned?5?$AA@ 004c74fc     libvcruntimed:undname.obj
 0002:00002508       ??_C@_05BEFAKPML@void?5?$AA@ 004c7508     libvcruntimed:undname.obj
 0002:00002510       ??_C@_08PABEKFH@volatile?$AA@ 004c7510     libvcruntimed:undname.obj
 0002:0000251c       ??_C@_0P@GCOCNKDM@std?3?3nullptr_t?$AA@ 004c751c     libvcruntimed:undname.obj
 0002:00002530       ??_C@_0L@EGPHHEKN@?$DMellipsis?$DO?$AA@ 004c7530     libvcruntimed:undname.obj
 0002:00002540       ??_C@_04EENFHACM@?0?4?4?4?$AA@ 004c7540     libvcruntimed:undname.obj
 0002:00002548       ??_C@_0M@ELJOJFFH@?0?$DMellipsis?$DO?$AA@ 004c7548     libvcruntimed:undname.obj
 0002:00002558       ??_C@_07HDJPLPEK@?5throw?$CI?$AA@ 004c7558     libvcruntimed:undname.obj
 0002:00002564       ??_C@_03PBJBJNON@cpu?$AA@  004c7564     libvcruntimed:undname.obj
 0002:00002568       ??_C@_03DCBBJBAA@amp?$AA@  004c7568     libvcruntimed:undname.obj
 0002:0000256c       ??_C@_02KEGNLNML@?0?5?$AA@ 004c756c     libvcruntimed:undname.obj
 0002:00002570       ??_C@_04ENMBGAPA@char?$AA@ 004c7570     libvcruntimed:undname.obj
 0002:00002578       ??_C@_05BFKKPKCG@short?$AA@ 004c7578     libvcruntimed:undname.obj
 0002:00002580       ??_C@_03JBIPMCLC@int?$AA@  004c7580     libvcruntimed:undname.obj
 0002:00002584       ??_C@_04GOKPGOLB@long?$AA@ 004c7584     libvcruntimed:undname.obj
 0002:0000258c       ??_C@_05KNFBNCOH@float?$AA@ 004c758c     libvcruntimed:undname.obj
 0002:00002594       ??_C@_06BNJCAIGJ@double?$AA@ 004c7594     libvcruntimed:undname.obj
 0002:0000259c       ??_C@_04DDKJGDCM@bool?$AA@ 004c759c     libvcruntimed:undname.obj
 0002:000025a4       ??_C@_06EBGKOKIG@__int8?$AA@ 004c75a4     libvcruntimed:undname.obj
 0002:000025ac       ??_C@_07ICFHOGAF@__int16?$AA@ 004c75ac     libvcruntimed:undname.obj
 0002:000025b8       ??_C@_07OFLPPHGP@__int32?$AA@ 004c75b8     libvcruntimed:undname.obj
 0002:000025c4       ??_C@_07LFCOJCAC@__int64?$AA@ 004c75c4     libvcruntimed:undname.obj
 0002:000025d0       ??_C@_08GAHOLHEO@__int128?$AA@ 004c75d0     libvcruntimed:undname.obj
 0002:000025dc       ??_C@_09EEKGDCPH@?$DMunknown?$DO?$AA@ 004c75dc     libvcruntimed:undname.obj
 0002:000025e8       ??_C@_08HBIPOFJB@char16_t?$AA@ 004c75e8     libvcruntimed:undname.obj
 0002:000025f4       ??_C@_08IECNCBKG@char32_t?$AA@ 004c75f4     libvcruntimed:undname.obj
 0002:00002600       ??_C@_07CLGGIAMF@wchar_t?$AA@ 004c7600     libvcruntimed:undname.obj
 0002:0000260c       ??_C@_06GCICPBLB@__w64?5?$AA@ 004c760c     libvcruntimed:undname.obj
 0002:00002614       ??_C@_07NFANNNEC@UNKNOWN?$AA@ 004c7614     libvcruntimed:undname.obj
 0002:00002620       ??_C@_07EDHNAJHC@signed?5?$AA@ 004c7620     libvcruntimed:undname.obj
 0002:0000262c       ??_C@_05BNCCCJPP@const?$AA@ 004c762c     libvcruntimed:undname.obj
 0002:00002634       ??_C@_09EFNPDFFP@?5volatile?$AA@ 004c7634     libvcruntimed:undname.obj
 0002:00002640       ??_C@_0P@GCIFDJCJ@?$GAunknown?5ecsu?8?$AA@ 004c7640     libvcruntimed:undname.obj
 0002:00002654       ??_C@_06MOJHIBMG@union?5?$AA@ 004c7654     libvcruntimed:undname.obj
 0002:0000265c       ??_C@_07DIBCDNGL@struct?5?$AA@ 004c765c     libvcruntimed:undname.obj
 0002:00002668       ??_C@_06LJBABKPM@class?5?$AA@ 004c7668     libvcruntimed:undname.obj
 0002:00002670       ??_C@_08KOFANOFK@coclass?5?$AA@ 004c7670     libvcruntimed:undname.obj
 0002:0000267c       ??_C@_0N@DLIEFKNA@cointerface?5?$AA@ 004c767c     libvcruntimed:undname.obj
 0002:0000268c       ??_C@_05LJGMCFOG@enum?5?$AA@ 004c768c     libvcruntimed:undname.obj
 0002:00002694       ??_C@_09GAIEOBLP@volatile?5?$AA@ 004c7694     libvcruntimed:undname.obj
 0002:000026a0       ??_C@_06LIJLOJAG@const?5?$AA@ 004c76a0     libvcruntimed:undname.obj
 0002:000026a8       ??_C@_02KJPKDIBN@?$CG?5?$AA@ 004c76a8     libvcruntimed:undname.obj
 0002:000026ac       ??_C@_03PCKGMOPB@?$CG?$CG?5?$AA@ 004c76ac     libvcruntimed:undname.obj
 0002:000026b0       ??_C@_0M@EALIELKG@cli?3?3array?$DM?$AA@ 004c76b0     libvcruntimed:undname.obj
 0002:000026c0       ??_C@_0O@GKABPPIF@cli?3?3pin_ptr?$DM?$AA@ 004c76c0     libvcruntimed:undname.obj
 0002:000026d0       ??_C@_02GOGNNPBN@?$CJ?$FL?$AA@ 004c76d0     libvcruntimed:undname.obj
 0002:000026d4       ??_C@_06EEGAIFAK@?$HLflat?$HN?$AA@ 004c76d4     libvcruntimed:undname.obj
 0002:000026dc       ??_C@_05JIBOFOHK@?$HLfor?5?$AA@ 004c76dc     libvcruntimed:undname.obj
 0002:000026e4       ??_C@_02MDINNEEG@s?5?$AA@  004c76e4     libvcruntimed:undname.obj
 0002:000026ec       ??_7DNameNode@@6B@         004c76ec     libvcruntimed:undname.obj
 0002:00002700       ??_7charNode@@6B@          004c7700     libvcruntimed:undname.obj
 0002:00002714       ??_7pcharNode@@6B@         004c7714     libvcruntimed:undname.obj
 0002:00002728       ??_7pDNameNode@@6B@        004c7728     libvcruntimed:undname.obj
 0002:0000273c       ??_7DNameStatusNode@@6B@   004c773c     libvcruntimed:undname.obj
 0002:00002750       ??_7pairNode@@6B@          004c7750     libvcruntimed:undname.obj
 0002:00002760       ??_C@_04OKOHEJBO@?5?$DP?$DP?5?$AA@ 004c7760     libvcruntimed:undname.obj
 0002:00002768       ??_C@_0CF@GOGNBNAK@Microsoft?5Visual?5C?$CL?$CL?5Runtime?5Lib@ 004c7768     libucrtd:assert.obj
 0002:00002798       ??_C@_1EK@MBDPDCGA@?$AAM?$AAi?$AAc?$AAr?$AAo?$AAs?$AAo?$AAf?$AAt?$AA?5?$AAV?$AAi?$AAs?$AAu?$AAa?$AAl?$AA?5?$AAC?$AA?$CL?$AA?$CL?$AA?5?$AAR?$AAu?$AAn?$AAt?$AAi?$AAm?$AAe?$AA?5?$AAL?$AAi?$AAb@ 004c7798     libucrtd:assert.obj
 0002:000027f0       ??_C@_0CK@CFPGFGGO@Assertion?5failed?3?5?$CFTs?0?5file?5?$CFTs?0@ 004c77f0     libucrtd:assert.obj
 0002:00002828       ??_C@_1FE@LHBLIKM@?$AAA?$AAs?$AAs?$AAe?$AAr?$AAt?$AAi?$AAo?$AAn?$AA?5?$AAf?$AAa?$AAi?$AAl?$AAe?$AAd?$AA?3?$AA?5?$AA?$CF?$AAT?$AAs?$AA?0?$AA?5?$AAf?$AAi?$AAl?$AAe?$AA?5?$AA?$CF?$AAT?$AAs?$AA?0@ 004c7828     libucrtd:assert.obj
 0002:0000288c       ??_C@_0BC@LAIDCHCH@Assertion?5failed?$CB?$AA@ 004c788c     libucrtd:assert.obj
 0002:000028a4       ??_C@_1CE@OJBNHDMO@?$AAA?$AAs?$AAs?$AAe?$AAr?$AAt?$AAi?$AAo?$AAn?$AA?5?$AAf?$AAa?$AAi?$AAl?$AAe?$AAd?$AA?$CB?$AA?$AA@ 004c78a4     libucrtd:assert.obj
 0002:000028d0       ??_C@_09KLGCKDOD@Program?3?5?$AA@ 004c78d0     libucrtd:assert.obj
 0002:000028dc       ??_C@_1BE@PHKBBGE@?$AAP?$AAr?$AAo?$AAg?$AAr?$AAa?$AAm?$AA?3?$AA?5?$AA?$AA@ 004c78dc     libucrtd:assert.obj
 0002:000028f4       ??_C@_06IGPBOHMJ@File?3?5?$AA@ 004c78f4     libucrtd:assert.obj
 0002:000028fc       ??_C@_1O@HEMHKNDC@?$AAF?$AAi?$AAl?$AAe?$AA?3?$AA?5?$AA?$AA@ 004c78fc     libucrtd:assert.obj
 0002:0000290c       ??_C@_06FIEBOLOH@Line?3?5?$AA@ 004c790c     libucrtd:assert.obj
 0002:00002914       ??_C@_1O@KCAFKHJE@?$AAL?$AAi?$AAn?$AAe?$AA?3?$AA?5?$AA?$AA@ 004c7914     libucrtd:assert.obj
 0002:00002924       ??_C@_0N@MEECIJGN@Expression?3?5?$AA@ 004c7924     libucrtd:assert.obj
 0002:00002934       ??_C@_1BK@PEDCIPMA@?$AAE?$AAx?$AAp?$AAr?$AAe?$AAs?$AAs?$AAi?$AAo?$AAn?$AA?3?$AA?5?$AA?$AA@ 004c7934     libucrtd:assert.obj
 0002:00002958       ??_C@_0HA@OJHAGA@For?5information?5on?5how?5your?5prog@ 004c7958     libucrtd:assert.obj
 0002:000029e0       ??_C@_1OA@EGMLFBHJ@?$AAF?$AAo?$AAr?$AA?5?$AAi?$AAn?$AAf?$AAo?$AAr?$AAm?$AAa?$AAt?$AAi?$AAo?$AAn?$AA?5?$AAo?$AAn?$AA?5?$AAh?$AAo?$AAw?$AA?5?$AAy?$AAo?$AAu?$AAr?$AA?5?$AAp?$AAr?$AAo?$AAg@ 004c79e0     libucrtd:assert.obj
 0002:00002aec       ??_C@_0DN@EBBNMLME@?$CIPress?5Retry?5to?5debug?5the?5applic@ 004c7aec     libucrtd:assert.obj
 0002:00002b38       ??_C@_1HK@POCJMFGK@?$AA?$CI?$AAP?$AAr?$AAe?$AAs?$AAs?$AA?5?$AAR?$AAe?$AAt?$AAr?$AAy?$AA?5?$AAt?$AAo?$AA?5?$AAd?$AAe?$AAb?$AAu?$AAg?$AA?5?$AAt?$AAh?$AAe?$AA?5?$AAa?$AAp?$AAp?$AAl?$AAi?$AAc@ 004c7b38     libucrtd:assert.obj
 0002:00002bcc       ??_C@_17LGKOMLJ@?$AA?4?$AA?4?$AA?4?$AA?$AA@ 004c7bcc     libucrtd:assert.obj
 0002:00002bd8       ??_C@_01EEMJAFIK@?6?$AA@   004c7bd8     libucrtd:assert.obj
 0002:00002bdc       ??_C@_13LBAGMAIH@?$AA?6?$AA?$AA@ 004c7bdc     libucrtd:assert.obj
 0002:00002be0       ??_C@_02PHMGELLB@?6?6?$AA@ 004c7be0     libucrtd:assert.obj
 0002:00002be4       ??_C@_15IABLJNFO@?$AA?6?$AA?6?$AA?$AA@ 004c7be4     libucrtd:assert.obj
 0002:00002bec       ??_C@_0BH@DNAGHKFM@?$DMprogram?5name?5unknown?$DO?$AA@ 004c7bec     libucrtd:assert.obj
 0002:00002c08       ??_C@_1CO@EAEJAADC@?$AA?$DM?$AAp?$AAr?$AAo?$AAg?$AAr?$AAa?$AAm?$AA?5?$AAn?$AAa?$AAm?$AAe?$AA?5?$AAu?$AAn?$AAk?$AAn?$AAo?$AAw?$AAn?$AA?$DO?$AA?$AA@ 004c7c08     libucrtd:assert.obj
 0002:00002c40       ??_C@_1GE@PMLOPPED@?$AAm?$AAi?$AAn?$AAk?$AAe?$AAr?$AAn?$AAe?$AAl?$AA?2?$AAc?$AAr?$AAt?$AAs?$AA?2?$AAu?$AAc?$AAr?$AAt?$AA?2?$AAs?$AAr?$AAc?$AA?2?$AAa?$AAp?$AAp?$AAc?$AAr?$AAt?$AA?2?$AAs@ 004c7c40     libucrtd:assert.obj
 0002:00002cb8       ??_C@_1FE@LPBNNEBB@?$AAc?$AAo?$AAm?$AAm?$AAo?$AAn?$AA_?$AAa?$AAs?$AAs?$AAe?$AAr?$AAt?$AA_?$AAt?$AAo?$AA_?$AAm?$AAe?$AAs?$AAs?$AAa?$AAg?$AAe?$AA_?$AAb?$AAo?$AAx?$AA_?$AAb?$AAu?$AAi@ 004c7cb8     libucrtd:assert.obj
 0002:00002d20       ??_C@_1KC@PIMENJIN@?$AAt?$AAr?$AAa?$AAi?$AAt?$AAs?$AA?3?$AA?3?$AAt?$AAc?$AAs?$AAc?$AAp?$AAy?$AA_?$AAs?$AA?$CI?$AAa?$AAs?$AAs?$AAe?$AAr?$AAt?$AA_?$AAb?$AAu?$AAf?$AAf?$AAe?$AAr?$AA?0?$AA?5@ 004c7d20     libucrtd:assert.obj
 0002:00002de8       ??_C@_1KM@HGCBPADM@?$AAt?$AAr?$AAa?$AAi?$AAt?$AAs?$AA?3?$AA?3?$AAt?$AAc?$AAs?$AAc?$AAa?$AAt?$AA_?$AAs?$AA?$CI?$AAa?$AAs?$AAs?$AAe?$AAr?$AAt?$AA_?$AAb?$AAu?$AAf?$AAf?$AAe?$AAr?$AA?0?$AA?5@ 004c7de8     libucrtd:assert.obj
 0002:00002eb8       ??_C@_1KK@KDENILFB@?$AAt?$AAr?$AAa?$AAi?$AAt?$AAs?$AA?3?$AA?3?$AAt?$AAc?$AAs?$AAc?$AAa?$AAt?$AA_?$AAs?$AA?$CI?$AAa?$AAs?$AAs?$AAe?$AAr?$AAt?$AA_?$AAb?$AAu?$AAf?$AAf?$AAe?$AAr?$AA?0?$AA?5@ 004c7eb8     libucrtd:assert.obj
 0002:00002f88       ??_C@_1PE@ECNALGCA@?$AAt?$AAr?$AAa?$AAi?$AAt?$AAs?$AA?3?$AA?3?$AAt?$AAc?$AAs?$AAc?$AAp?$AAy?$AA_?$AAs?$AA?$CI?$AAp?$AAr?$AAo?$AAg?$AAr?$AAa?$AAm?$AA_?$AAn?$AAa?$AAm?$AAe?$AA?0?$AA?5?$AA?$CI@ 004c7f88     libucrtd:assert.obj
 0002:000030b0       ??_C@_1BBM@BCEFIAB@?$AAm?$AAe?$AAm?$AAc?$AAp?$AAy?$AA_?$AAs?$AA?$CI?$AA?5?$AAp?$AAc?$AAh?$AA?0?$AA?5?$AAs?$AAi?$AAz?$AAe?$AAo?$AAf?$AA?$CI?$AAC?$AAh?$AAa?$AAr?$AAa?$AAc?$AAt?$AAe?$AAr?$AA?$CJ@ 004c80b0     libucrtd:assert.obj
 0002:00003208       ??_C@_1HE@CDLKDPFH@?$AAt?$AAr?$AAa?$AAi?$AAt?$AAs?$AA?3?$AA?3?$AAt?$AAc?$AAs?$AAc?$AAa?$AAt?$AA_?$AAs?$AA?$CI?$AAa?$AAs?$AAs?$AAe?$AAr?$AAt?$AA_?$AAb?$AAu?$AAf?$AAf?$AAe?$AAr?$AA?0?$AA?5@ 004c8208     libucrtd:assert.obj
 0002:00003298       ??_C@_1JO@KJEGDHLC@?$AAt?$AAr?$AAa?$AAi?$AAt?$AAs?$AA?3?$AA?3?$AAt?$AAc?$AAs?$AAc?$AAa?$AAt?$AA_?$AAs?$AA?$CI?$AAa?$AAs?$AAs?$AAe?$AAr?$AAt?$AA_?$AAb?$AAu?$AAf?$AAf?$AAe?$AAr?$AA?0?$AA?5@ 004c8298     libucrtd:assert.obj
 0002:00003358       ??_C@_1KE@NJCNOBGA@?$AAt?$AAr?$AAa?$AAi?$AAt?$AAs?$AA?3?$AA?3?$AAt?$AAc?$AAs?$AAc?$AAa?$AAt?$AA_?$AAs?$AA?$CI?$AAa?$AAs?$AAs?$AAe?$AAr?$AAt?$AA_?$AAb?$AAu?$AAf?$AAf?$AAe?$AAr?$AA?0?$AA?5@ 004c8358     libucrtd:assert.obj
 0002:00003420       ??_C@_1LC@HKLLCKBM@?$AAt?$AAr?$AAa?$AAi?$AAt?$AAs?$AA?3?$AA?3?$AAt?$AAc?$AAs?$AAn?$AAc?$AAa?$AAt?$AA_?$AAs?$AA?$CI?$AAa?$AAs?$AAs?$AAe?$AAr?$AAt?$AA_?$AAb?$AAu?$AAf?$AAf?$AAe?$AAr?$AA?0@ 004c8420     libucrtd:assert.obj
 0002:000034f8       ??_C@_1KI@JBNHIIKF@?$AAt?$AAr?$AAa?$AAi?$AAt?$AAs?$AA?3?$AA?3?$AAt?$AAc?$AAs?$AAc?$AAa?$AAt?$AA_?$AAs?$AA?5?$AA?$CI?$AAa?$AAs?$AAs?$AAe?$AAr?$AAt?$AA_?$AAb?$AAu?$AAf?$AAf?$AAe?$AAr?$AA?0@ 004c84f8     libucrtd:assert.obj
 0002:000035c8       ??_C@_1IK@KKBPPOFO@?$AAt?$AAr?$AAa?$AAi?$AAt?$AAs?$AA?3?$AA?3?$AAt?$AAc?$AAs?$AAc?$AAa?$AAt?$AA_?$AAs?$AA?5?$AA?$CI?$AAa?$AAs?$AAs?$AAe?$AAr?$AAt?$AA_?$AAb?$AAu?$AAf?$AAf?$AAe?$AAr?$AA?0@ 004c85c8     libucrtd:assert.obj
 0002:00003670       ??_C@_1LO@BFIEBOKI@?$AAt?$AAr?$AAa?$AAi?$AAt?$AAs?$AA?3?$AA?3?$AAt?$AAc?$AAs?$AAn?$AAc?$AAa?$AAt?$AA_?$AAs?$AA?$CI?$AAa?$AAs?$AAs?$AAe?$AAr?$AAt?$AA_?$AAb?$AAu?$AAf?$AAf?$AAe?$AAr?$AA?0@ 004c8670     libucrtd:assert.obj
 0002:00003758       ??_C@_1KE@OEANDPDB@?$AAt?$AAr?$AAa?$AAi?$AAt?$AAs?$AA?3?$AA?3?$AAt?$AAc?$AAs?$AAn?$AAc?$AAa?$AAt?$AA_?$AAs?$AA?$CI?$AAa?$AAs?$AAs?$AAe?$AAr?$AAt?$AA_?$AAb?$AAu?$AAf?$AAf?$AAe?$AAr?$AA?0@ 004c8758     libucrtd:assert.obj
 0002:00003820       ??_C@_1LG@LMABGFBP@?$AAt?$AAr?$AAa?$AAi?$AAt?$AAs?$AA?3?$AA?3?$AAt?$AAc?$AAs?$AAc?$AAa?$AAt?$AA_?$AAs?$AA?5?$AA?$CI?$AAa?$AAs?$AAs?$AAe?$AAr?$AAt?$AA_?$AAb?$AAu?$AAf?$AAf?$AAe?$AAr?$AA?0@ 004c8820     libucrtd:assert.obj
 0002:00003900       ??_C@_1IA@JPAKIPAA@?$AAt?$AAr?$AAa?$AAi?$AAt?$AAs?$AA?3?$AA?3?$AAt?$AAc?$AAs?$AAc?$AAa?$AAt?$AA_?$AAs?$AA?$CI?$AAa?$AAs?$AAs?$AAe?$AAr?$AAt?$AA_?$AAb?$AAu?$AAf?$AAf?$AAe?$AAr?$AA?0?$AA?5@ 004c8900     libucrtd:assert.obj
 0002:000039a0       ??_C@_1KE@PADDJOL@?$AAt?$AAr?$AAa?$AAi?$AAt?$AAs?$AA?3?$AA?3?$AAt?$AAc?$AAs?$AAc?$AAa?$AAt?$AA_?$AAs?$AA?$CI?$AAa?$AAs?$AAs?$AAe?$AAr?$AAt?$AA_?$AAb?$AAu?$AAf?$AAf?$AAe?$AAr?$AA?0?$AA?5@ 004c89a0     libucrtd:assert.obj
 0002:00003a68       ??_C@_1BAK@NPHNFBPH@?$AAt?$AAr?$AAa?$AAi?$AAt?$AAs?$AA?3?$AA?3?$AAi?$AAt?$AAo?$AAt?$AA_?$AAs?$AA?$CI?$AA?5?$AAl?$AAi?$AAn?$AAe?$AA_?$AAn?$AAu?$AAm?$AAb?$AAe?$AAr?$AA?0?$AA?5?$AAa?$AAs?$AAs@ 004c8a68     libucrtd:assert.obj
 0002:00003ba8       ??_C@_1LA@JOKMAPHG@?$AAt?$AAr?$AAa?$AAi?$AAt?$AAs?$AA?3?$AA?3?$AAt?$AAc?$AAs?$AAc?$AAa?$AAt?$AA_?$AAs?$AA?$CI?$AAa?$AAs?$AAs?$AAe?$AAr?$AAt?$AA_?$AAb?$AAu?$AAf?$AAf?$AAe?$AAr?$AA?0?$AA?5@ 004c8ba8     libucrtd:assert.obj
 0002:00003c80       ??_C@_1LA@IFFOJJCK@?$AAt?$AAr?$AAa?$AAi?$AAt?$AAs?$AA?3?$AA?3?$AAt?$AAc?$AAs?$AAn?$AAc?$AAa?$AAt?$AA_?$AAs?$AA?$CI?$AA?5?$AAa?$AAs?$AAs?$AAe?$AAr?$AAt?$AA_?$AAb?$AAu?$AAf?$AAf?$AAe?$AAr@ 004c8c80     libucrtd:assert.obj
 0002:00003d58       ??_C@_1KG@MFCBNPOK@?$AAt?$AAr?$AAa?$AAi?$AAt?$AAs?$AA?3?$AA?3?$AAt?$AAc?$AAs?$AAc?$AAa?$AAt?$AA_?$AAs?$AA?$CI?$AAa?$AAs?$AAs?$AAe?$AAr?$AAt?$AA_?$AAb?$AAu?$AAf?$AAf?$AAe?$AAr?$AA?0?$AA?5@ 004c8d58     libucrtd:assert.obj
 0002:00003e20       ??_C@_1IC@EDHOAOJ@?$AAt?$AAr?$AAa?$AAi?$AAt?$AAs?$AA?3?$AA?3?$AAt?$AAc?$AAs?$AAc?$AAa?$AAt?$AA_?$AAs?$AA?$CI?$AAa?$AAs?$AAs?$AAe?$AAr?$AAt?$AA_?$AAb?$AAu?$AAf?$AAf?$AAe?$AAr?$AA?0?$AA?5@ 004c8e20     libucrtd:assert.obj
 0002:00003ec0       ??_C@_1KE@NALOKOIG@?$AAt?$AAr?$AAa?$AAi?$AAt?$AAs?$AA?3?$AA?3?$AAt?$AAc?$AAs?$AAc?$AAa?$AAt?$AA_?$AAs?$AA?$CI?$AAa?$AAs?$AAs?$AAe?$AAr?$AAt?$AA_?$AAb?$AAu?$AAf?$AAf?$AAe?$AAr?$AA?0?$AA?5@ 004c8ec0     libucrtd:assert.obj
 0002:00003f88       ??_C@_1KE@GGOFBC@?$AAt?$AAr?$AAa?$AAi?$AAt?$AAs?$AA?3?$AA?3?$AAt?$AAc?$AAs?$AAc?$AAa?$AAt?$AA_?$AAs?$AA?$CI?$AAa?$AAs?$AAs?$AAe?$AAr?$AAt?$AA_?$AAb?$AAu?$AAf?$AAf?$AAe?$AAr?$AA?0?$AA?5@ 004c8f88     libucrtd:assert.obj
 0002:00004050       _standard_lookup_table     004c9050     libucrtd:output.obj
 0002:000040c0       _format_validation_lookup_table 004c90c0     libucrtd:output.obj
 0002:00004130       ??_C@_1BDG@MKBKGHOH@?$AA?$CI?$AA?5?$AA?$CI?$AA_?$AAS?$AAt?$AAr?$AAe?$AAa?$AAm?$AA?4?$AAi?$AAs?$AA_?$AAs?$AAt?$AAr?$AAi?$AAn?$AAg?$AA_?$AAb?$AAa?$AAc?$AAk?$AAe?$AAd?$AA?$CI?$AA?$CJ?$AA?$CJ?$AA?5?$AA?$HM@ 004c9130     libucrtd:output.obj
 0002:000042a8       ??_C@_1GC@LCDLABEA@?$AAm?$AAi?$AAn?$AAk?$AAe?$AAr?$AAn?$AAe?$AAl?$AA?2?$AAc?$AAr?$AAt?$AAs?$AA?2?$AAu?$AAc?$AAr?$AAt?$AA?2?$AAi?$AAn?$AAc?$AA?2?$AAc?$AAo?$AAr?$AAe?$AAc?$AAr?$AAt?$AA_@ 004c92a8     libucrtd:output.obj
 0002:00004320       ??_C@_1II@DIIMCJOK@?$AA_?$AA_?$AAa?$AAc?$AAr?$AAt?$AA_?$AAs?$AAt?$AAd?$AAi?$AAo?$AA_?$AAc?$AAh?$AAa?$AAr?$AA_?$AAt?$AAr?$AAa?$AAi?$AAt?$AAs?$AA?$DM?$AAc?$AAh?$AAa?$AAr?$AA?$DO?$AA?3?$AA?3@ 004c9320     libucrtd:output.obj
 0002:000043c4       ??_C@_1CE@JLIJLEKO@?$AAs?$AAt?$AAr?$AAe?$AAa?$AAm?$AA?5?$AA?$CB?$AA?$DN?$AA?5?$AAn?$AAu?$AAl?$AAl?$AAp?$AAt?$AAr?$AA?$AA@ 004c93c4     libucrtd:output.obj
 0002:000043f0       ??_C@_1GA@MOBAPGIO@?$AAm?$AAi?$AAn?$AAk?$AAe?$AAr?$AAn?$AAe?$AAl?$AA?2?$AAc?$AAr?$AAt?$AAs?$AA?2?$AAu?$AAc?$AAr?$AAt?$AA?2?$AAs?$AAr?$AAc?$AA?2?$AAa?$AAp?$AAp?$AAc?$AAr?$AAt?$AA?2?$AAs@ 004c93f0     libucrtd:output.obj
 0002:00004464       ??_C@_1CA@GELIJBMC@?$AAc?$AAo?$AAm?$AAm?$AAo?$AAn?$AA_?$AAv?$AAf?$AAp?$AAr?$AAi?$AAn?$AAt?$AAf?$AA?$AA@ 004c9464     libucrtd:output.obj
 0002:0000448c       ??_C@_1CE@EAKLPBKK@?$AAf?$AAo?$AAr?$AAm?$AAa?$AAt?$AA?5?$AA?$CB?$AA?$DN?$AA?5?$AAn?$AAu?$AAl?$AAl?$AAp?$AAt?$AAr?$AA?$AA@ 004c948c     libucrtd:output.obj
 0002:000044b8       ??_C@_1CA@PIMGHCEK@?$AAc?$AAo?$AAm?$AAm?$AAo?$AAn?$AA_?$AAv?$AAs?$AAp?$AAr?$AAi?$AAn?$AAt?$AAf?$AA?$AA@ 004c94b8     libucrtd:output.obj
 0002:000044e0       ??_C@_1EO@EGEEFEFM@?$AAb?$AAu?$AAf?$AAf?$AAe?$AAr?$AA_?$AAc?$AAo?$AAu?$AAn?$AAt?$AA?5?$AA?$DN?$AA?$DN?$AA?5?$AA0?$AA?5?$AA?$HM?$AA?$HM?$AA?5?$AAb?$AAu?$AAf?$AAf?$AAe?$AAr?$AA?5?$AA?$CB?$AA?$DN?$AA?5?$AAn@ 004c94e0     libucrtd:output.obj
 0002:00004540       ??_C@_1CE@JEILLNB@?$AAc?$AAo?$AAm?$AAm?$AAo?$AAn?$AA_?$AAv?$AAs?$AAp?$AAr?$AAi?$AAn?$AAt?$AAf?$AA_?$AAs?$AA?$AA@ 004c9540     libucrtd:output.obj
 0002:00004570       ??_C@_1EM@OAFHAOLH@?$AAb?$AAu?$AAf?$AAf?$AAe?$AAr?$AA?5?$AA?$CB?$AA?$DN?$AA?5?$AAn?$AAu?$AAl?$AAl?$AAp?$AAt?$AAr?$AA?5?$AA?$CG?$AA?$CG?$AA?5?$AAb?$AAu?$AAf?$AAf?$AAe?$AAr?$AA_?$AAc?$AAo?$AAu?$AAn@ 004c9570     libucrtd:output.obj
 0002:000045cc       ??_C@_1DA@HPBFKMEB@?$AA?$CI?$AA?$CC?$AAB?$AAu?$AAf?$AAf?$AAe?$AAr?$AA?5?$AAt?$AAo?$AAo?$AA?5?$AAs?$AAm?$AAa?$AAl?$AAl?$AA?$CC?$AA?0?$AA?5?$AA0?$AA?$CJ?$AA?$AA@ 004c95cc     libucrtd:output.obj
 0002:00004608       ??_C@_1CG@LHFJHFBB@?$AAc?$AAo?$AAm?$AAm?$AAo?$AAn?$AA_?$AAv?$AAs?$AAn?$AAp?$AAr?$AAi?$AAn?$AAt?$AAf?$AA_?$AAs?$AA?$AA@ 004c9608     libucrtd:output.obj
 0002:00004638       ??_C@_1CM@JOIJBMEM@?$AA_?$AAf?$AAo?$AAr?$AAm?$AAa?$AAt?$AA_?$AAi?$AAt?$AA?5?$AA?$CB?$AA?$DN?$AA?5?$AAn?$AAu?$AAl?$AAl?$AAp?$AAt?$AAr?$AA?$AA@ 004c9638     libucrtd:output.obj
 0002:00004670       ??_C@_1HA@DMAAKIJP@?$AAm?$AAi?$AAn?$AAk?$AAe?$AAr?$AAn?$AAe?$AAl?$AA?2?$AAc?$AAr?$AAt?$AAs?$AA?2?$AAu?$AAc?$AAr?$AAt?$AA?2?$AAi?$AAn?$AAc?$AA?2?$AAc?$AAo?$AAr?$AAe?$AAc?$AAr?$AAt?$AA_@ 004c9670     libucrtd:output.obj
 0002:000046f8       ??_C@_1BKA@IIAAOGBO@?$AA_?$AA_?$AAc?$AAr?$AAt?$AA_?$AAs?$AAt?$AAd?$AAi?$AAo?$AA_?$AAo?$AAu?$AAt?$AAp?$AAu?$AAt?$AA?3?$AA?3?$AAo?$AAu?$AAt?$AAp?$AAu?$AAt?$AA_?$AAp?$AAr?$AAo?$AAc?$AAe@ 004c96f8     libucrtd:output.obj
 0002:000048f0       ??_C@_1EE@DMAIGNBG@?$AA?$CI?$AA?$CC?$AAI?$AAn?$AAc?$AAo?$AAr?$AAr?$AAe?$AAc?$AAt?$AA?5?$AAf?$AAo?$AAr?$AAm?$AAa?$AAt?$AA?5?$AAs?$AAp?$AAe?$AAc?$AAi?$AAf?$AAi?$AAe?$AAr?$AA?$CC?$AA?0?$AA?5?$AA0@ 004c98f0     libucrtd:output.obj
 0002:00004948       ??_C@_1BLI@EEAAPJD@?$AA_?$AA_?$AAc?$AAr?$AAt?$AA_?$AAs?$AAt?$AAd?$AAi?$AAo?$AA_?$AAo?$AAu?$AAt?$AAp?$AAu?$AAt?$AA?3?$AA?3?$AAo?$AAu?$AAt?$AAp?$AAu?$AAt?$AA_?$AAp?$AAr?$AAo?$AAc?$AAe@ 004c9948     libucrtd:output.obj
 0002:00004b58       ??_C@_1BLC@PMCLHHAE@?$AA_?$AA_?$AAc?$AAr?$AAt?$AA_?$AAs?$AAt?$AAd?$AAi?$AAo?$AA_?$AAo?$AAu?$AAt?$AAp?$AAu?$AAt?$AA?3?$AA?3?$AAo?$AAu?$AAt?$AAp?$AAu?$AAt?$AA_?$AAp?$AAr?$AAo?$AAc?$AAe@ 004c9b58     libucrtd:output.obj
 0002:00004d60       ??_C@_1BMK@CPBKHDIH@?$AA_?$AA_?$AAc?$AAr?$AAt?$AA_?$AAs?$AAt?$AAd?$AAi?$AAo?$AA_?$AAo?$AAu?$AAt?$AAp?$AAu?$AAt?$AA?3?$AA?3?$AAo?$AAu?$AAt?$AAp?$AAu?$AAt?$AA_?$AAp?$AAr?$AAo?$AAc?$AAe@ 004c9d60     libucrtd:output.obj
 0002:00004f88       ??_C@_1BLI@FOCNEPKJ@?$AA_?$AA_?$AAc?$AAr?$AAt?$AA_?$AAs?$AAt?$AAd?$AAi?$AAo?$AA_?$AAo?$AAu?$AAt?$AAp?$AAu?$AAt?$AA?3?$AA?3?$AAo?$AAu?$AAt?$AAp?$AAu?$AAt?$AA_?$AAp?$AAr?$AAo?$AAc?$AAe@ 004c9f88     libucrtd:output.obj
 0002:00005198       ??_C@_1BNA@HGLCOOBP@?$AA_?$AA_?$AAc?$AAr?$AAt?$AA_?$AAs?$AAt?$AAd?$AAi?$AAo?$AA_?$AAo?$AAu?$AAt?$AAp?$AAu?$AAt?$AA?3?$AA?3?$AAo?$AAu?$AAt?$AAp?$AAu?$AAt?$AA_?$AAp?$AAr?$AAo?$AAc?$AAe@ 004ca198     libucrtd:output.obj
 0002:000053c8       ??_C@_1BKA@DNADAJMC@?$AA_?$AA_?$AAc?$AAr?$AAt?$AA_?$AAs?$AAt?$AAd?$AAi?$AAo?$AA_?$AAo?$AAu?$AAt?$AAp?$AAu?$AAt?$AA?3?$AA?3?$AAo?$AAu?$AAt?$AAp?$AAu?$AAt?$AA_?$AAp?$AAr?$AAo?$AAc?$AAe@ 004ca3c8     libucrtd:output.obj
 0002:000055c0       ??_C@_1BLI@IKDKMDHI@?$AA_?$AA_?$AAc?$AAr?$AAt?$AA_?$AAs?$AAt?$AAd?$AAi?$AAo?$AA_?$AAo?$AAu?$AAt?$AAp?$AAu?$AAt?$AA?3?$AA?3?$AAo?$AAu?$AAt?$AAp?$AAu?$AAt?$AA_?$AAp?$AAr?$AAo?$AAc?$AAe@ 004ca5c0     libucrtd:output.obj
 0002:000057d0       ??_C@_1BLI@EGFICANE@?$AA_?$AA_?$AAc?$AAr?$AAt?$AA_?$AAs?$AAt?$AAd?$AAi?$AAo?$AA_?$AAo?$AAu?$AAt?$AAp?$AAu?$AAt?$AA?3?$AA?3?$AAo?$AAu?$AAt?$AAp?$AAu?$AAt?$AA_?$AAp?$AAr?$AAo?$AAc?$AAe@ 004ca7d0     libucrtd:output.obj
 0002:000059e0       ??_C@_1BNA@OIIAGHJI@?$AA_?$AA_?$AAc?$AAr?$AAt?$AA_?$AAs?$AAt?$AAd?$AAi?$AAo?$AA_?$AAo?$AAu?$AAt?$AAp?$AAu?$AAt?$AA?3?$AA?3?$AAo?$AAu?$AAt?$AAp?$AAu?$AAt?$AA_?$AAp?$AAr?$AAo?$AAc?$AAe@ 004ca9e0     libucrtd:output.obj
 0002:00005c0c       ??_C@_1CA@ONEGMNAN@?$AA_?$AAs?$AAt?$AAr?$AAe?$AAa?$AAm?$AA?4?$AAv?$AAa?$AAl?$AAi?$AAd?$AA?$CI?$AA?$CJ?$AA?$AA@ 004cac0c     libucrtd:output.obj
 0002:00005c38       ??_C@_1HE@FGKHNBNL@?$AA_?$AA_?$AAc?$AAr?$AAt?$AA_?$AAs?$AAt?$AAd?$AAi?$AAo?$AA_?$AAo?$AAu?$AAt?$AAp?$AAu?$AAt?$AA?3?$AA?3?$AAs?$AAt?$AAr?$AAe?$AAa?$AAm?$AA_?$AAo?$AAu?$AAt?$AAp?$AAu@ 004cac38     libucrtd:output.obj
 0002:00005cc4       ??_C@_1DG@CEJKFDMO@?$AAs?$AAt?$AAa?$AAt?$AAe?$AA_?$AAc?$AAa?$AAs?$AAe?$AA_?$AAn?$AAo?$AAr?$AAm?$AAa?$AAl?$AA_?$AAc?$AAo?$AAm?$AAm?$AAo?$AAn?$AA?$CI?$AA?$CJ?$AA?$AA@ 004cacc4     libucrtd:output.obj
 0002:00005d08       ??_C@_1BLE@PAACOKDK@?$AA_?$AA_?$AAc?$AAr?$AAt?$AA_?$AAs?$AAt?$AAd?$AAi?$AAo?$AA_?$AAo?$AAu?$AAt?$AAp?$AAu?$AAt?$AA?3?$AA?3?$AAo?$AAu?$AAt?$AAp?$AAu?$AAt?$AA_?$AAp?$AAr?$AAo?$AAc?$AAe@ 004cad08     libucrtd:output.obj
 0002:00005f18       ??_C@_1FG@OBJBDPAC@?$AA?$CI?$AA?$CC?$AAN?$AA?5?$AAl?$AAe?$AAn?$AAg?$AAt?$AAh?$AA?5?$AAm?$AAo?$AAd?$AAi?$AAf?$AAi?$AAe?$AAr?$AA?5?$AAn?$AAo?$AAt?$AA?5?$AAs?$AAp?$AAe?$AAc?$AAi?$AAf?$AAi?$AAe@ 004caf18     libucrtd:output.obj
 0002:00005f80       ??_C@_1BLA@GJNGKGIK@?$AA_?$AA_?$AAc?$AAr?$AAt?$AA_?$AAs?$AAt?$AAd?$AAi?$AAo?$AA_?$AAo?$AAu?$AAt?$AAp?$AAu?$AAt?$AA?3?$AA?3?$AAo?$AAu?$AAt?$AAp?$AAu?$AAt?$AA_?$AAp?$AAr?$AAo?$AAc?$AAe@ 004caf80     libucrtd:output.obj
 0002:00006188       ??_C@_1EC@GJPNJDCN@?$AA_?$AAl?$AAe?$AAn?$AAg?$AAt?$AAh?$AA?5?$AA?$DN?$AA?$DN?$AA?5?$AAl?$AAe?$AAn?$AAg?$AAt?$AAh?$AA_?$AAm?$AAo?$AAd?$AAi?$AAf?$AAi?$AAe?$AAr?$AA?3?$AA?3?$AAn?$AAo?$AAn?$AAe@ 004cb188     libucrtd:output.obj
 0002:000061d8       ??_C@_1HK@MPBCDOK@?$AA_?$AA_?$AAc?$AAr?$AAt?$AA_?$AAs?$AAt?$AAd?$AAi?$AAo?$AA_?$AAo?$AAu?$AAt?$AAp?$AAu?$AAt?$AA?3?$AA?3?$AAs?$AAt?$AAr?$AAe?$AAa?$AAm?$AA_?$AAo?$AAu?$AAt?$AAp?$AAu@ 004cb1d8     libucrtd:output.obj
 0002:00006270       ??_C@_1BMM@JHGFKAND@?$AA_?$AA_?$AAc?$AAr?$AAt?$AA_?$AAs?$AAt?$AAd?$AAi?$AAo?$AA_?$AAo?$AAu?$AAt?$AAp?$AAu?$AAt?$AA?3?$AA?3?$AAo?$AAu?$AAt?$AAp?$AAu?$AAt?$AA_?$AAp?$AAr?$AAo?$AAc?$AAe@ 004cb270     libucrtd:output.obj
 0002:00006498       ??_C@_1BMI@DNMDMAAN@?$AA_?$AA_?$AAc?$AAr?$AAt?$AA_?$AAs?$AAt?$AAd?$AAi?$AAo?$AA_?$AAo?$AAu?$AAt?$AAp?$AAu?$AAt?$AA?3?$AA?3?$AAo?$AAu?$AAt?$AAp?$AAu?$AAt?$AA_?$AAp?$AAr?$AAo?$AAc?$AAe@ 004cb498     libucrtd:output.obj
 0002:000066c0       ??_C@_1BMG@KOENKAMB@?$AA_?$AA_?$AAc?$AAr?$AAt?$AA_?$AAs?$AAt?$AAd?$AAi?$AAo?$AA_?$AAo?$AAu?$AAt?$AAp?$AAu?$AAt?$AA?3?$AA?3?$AAo?$AAu?$AAt?$AAp?$AAu?$AAt?$AA_?$AAp?$AAr?$AAo?$AAc?$AAe@ 004cb6c0     libucrtd:output.obj
 0002:000068e0       ??_C@_1BMC@DAENMDAD@?$AA_?$AA_?$AAc?$AAr?$AAt?$AA_?$AAs?$AAt?$AAd?$AAi?$AAo?$AA_?$AAo?$AAu?$AAt?$AAp?$AAu?$AAt?$AA?3?$AA?3?$AAo?$AAu?$AAt?$AAp?$AAu?$AAt?$AA_?$AAp?$AAr?$AAo?$AAc?$AAe@ 004cb8e0     libucrtd:output.obj
 0002:00006b00       ??_C@_1GC@BNMHNGKM@?$AA_?$AAs?$AAt?$AAa?$AAt?$AAe?$AA?5?$AA?$DN?$AA?$DN?$AA?5?$AAs?$AAt?$AAa?$AAt?$AAe?$AA?3?$AA?3?$AAn?$AAo?$AAr?$AAm?$AAa?$AAl?$AA?5?$AA?$HM?$AA?$HM?$AA?5?$AA_?$AAs?$AAt?$AAa?$AAt@ 004cbb00     libucrtd:output.obj
 0002:00006b78       ??_C@_1BDG@PLANJEFE@?$AA_?$AA_?$AAc?$AAr?$AAt?$AA_?$AAs?$AAt?$AAd?$AAi?$AAo?$AA_?$AAo?$AAu?$AAt?$AAp?$AAu?$AAt?$AA?3?$AA?3?$AAf?$AAo?$AAr?$AAm?$AAa?$AAt?$AA_?$AAv?$AAa?$AAl?$AAi?$AAd@ 004cbb78     libucrtd:output.obj
 0002:00006cf0       ??_C@_1BNO@LMMLJOOJ@?$AA_?$AA_?$AAc?$AAr?$AAt?$AA_?$AAs?$AAt?$AAd?$AAi?$AAo?$AA_?$AAo?$AAu?$AAt?$AAp?$AAu?$AAt?$AA?3?$AA?3?$AAo?$AAu?$AAt?$AAp?$AAu?$AAt?$AA_?$AAp?$AAr?$AAo?$AAc?$AAe@ 004cbcf0     libucrtd:output.obj
 0002:00006f30       ??_C@_1BNK@ONPHCEAM@?$AA_?$AA_?$AAc?$AAr?$AAt?$AA_?$AAs?$AAt?$AAd?$AAi?$AAo?$AA_?$AAo?$AAu?$AAt?$AAp?$AAu?$AAt?$AA?3?$AA?3?$AAo?$AAu?$AAt?$AAp?$AAu?$AAt?$AA_?$AAp?$AAr?$AAo?$AAc?$AAe@ 004cbf30     libucrtd:output.obj
 0002:00007168       ??_C@_1BEC@FNIGNBHI@?$AA_?$AA_?$AAc?$AAr?$AAt?$AA_?$AAs?$AAt?$AAd?$AAi?$AAo?$AA_?$AAo?$AAu?$AAt?$AAp?$AAu?$AAt?$AA?3?$AA?3?$AAf?$AAo?$AAr?$AAm?$AAa?$AAt?$AA_?$AAv?$AAa?$AAl?$AAi?$AAd@ 004cc168     libucrtd:output.obj
 0002:000072f0       ??_C@_1BMM@BLBJDDIA@?$AA_?$AA_?$AAc?$AAr?$AAt?$AA_?$AAs?$AAt?$AAd?$AAi?$AAo?$AA_?$AAo?$AAu?$AAt?$AAp?$AAu?$AAt?$AA?3?$AA?3?$AAo?$AAu?$AAt?$AAp?$AAu?$AAt?$AA_?$AAp?$AAr?$AAo?$AAc?$AAe@ 004cc2f0     libucrtd:output.obj
 0002:00007518       ??_C@_1BMI@PKGBOKJK@?$AA_?$AA_?$AAc?$AAr?$AAt?$AA_?$AAs?$AAt?$AAd?$AAi?$AAo?$AA_?$AAo?$AAu?$AAt?$AAp?$AAu?$AAt?$AA?3?$AA?3?$AAo?$AAu?$AAt?$AAp?$AAu?$AAt?$AA_?$AAp?$AAr?$AAo?$AAc?$AAe@ 004cc518     libucrtd:output.obj
 0002:00007740       ??_C@_1FK@BCPANIEK@?$AA?$CI?$AA?$CC?$AAM?$AAi?$AAs?$AAs?$AAi?$AAn?$AAg?$AA?5?$AAp?$AAo?$AAs?$AAi?$AAt?$AAi?$AAo?$AAn?$AA?5?$AAi?$AAn?$AA?5?$AAt?$AAh?$AAe?$AA?5?$AAf?$AAo?$AAr?$AAm?$AAa?$AAt@ 004cc740     libucrtd:output.obj
 0002:000077b0       ??_C@_1BDM@FDOLKCHK@?$AA_?$AA_?$AAc?$AAr?$AAt?$AA_?$AAs?$AAt?$AAd?$AAi?$AAo?$AA_?$AAo?$AAu?$AAt?$AAp?$AAu?$AAt?$AA?3?$AA?3?$AAp?$AAo?$AAs?$AAi?$AAt?$AAi?$AAo?$AAn?$AAa?$AAl?$AA_?$AAp@ 004cc7b0     libucrtd:output.obj
 0002:00007930       ??_C@_1IC@NLEOMCDL@?$AA_?$AAt?$AAy?$AAp?$AAe?$AA_?$AAi?$AAn?$AAd?$AAe?$AAx?$AA?5?$AA?$DO?$AA?$DN?$AA?5?$AA0?$AA?5?$AA?$CG?$AA?$CG?$AA?5?$AA?$CK?$AAe?$AAn?$AAd?$AA_?$AAp?$AAo?$AAi?$AAn?$AAt?$AAe?$AAr@ 004cc930     libucrtd:output.obj
 0002:000079d0       ??_C@_1BEO@JEHLMMKB@?$AA_?$AA_?$AAc?$AAr?$AAt?$AA_?$AAs?$AAt?$AAd?$AAi?$AAo?$AA_?$AAo?$AAu?$AAt?$AAp?$AAu?$AAt?$AA?3?$AA?3?$AAp?$AAo?$AAs?$AAi?$AAt?$AAi?$AAo?$AAn?$AAa?$AAl?$AA_?$AAp@ 004cc9d0     libucrtd:output.obj
 0002:00007b60       ??_C@_1BOE@NLICFINO@?$AA_?$AA_?$AAc?$AAr?$AAt?$AA_?$AAs?$AAt?$AAd?$AAi?$AAo?$AA_?$AAo?$AAu?$AAt?$AAp?$AAu?$AAt?$AA?3?$AA?3?$AAo?$AAu?$AAt?$AAp?$AAu?$AAt?$AA_?$AAp?$AAr?$AAo?$AAc?$AAe@ 004ccb60     libucrtd:output.obj
 0002:00007da8       ??_C@_1BOA@CBIEMBEE@?$AA_?$AA_?$AAc?$AAr?$AAt?$AA_?$AAs?$AAt?$AAd?$AAi?$AAo?$AA_?$AAo?$AAu?$AAt?$AAp?$AAu?$AAt?$AA?3?$AA?3?$AAo?$AAu?$AAt?$AAp?$AAu?$AAt?$AA_?$AAp?$AAr?$AAo?$AAc?$AAe@ 004ccda8     libucrtd:output.obj
 0002:00007fe8       ??_C@_1BEI@JNJAFAD@?$AA_?$AA_?$AAc?$AAr?$AAt?$AA_?$AAs?$AAt?$AAd?$AAi?$AAo?$AA_?$AAo?$AAu?$AAt?$AAp?$AAu?$AAt?$AA?3?$AA?3?$AAp?$AAo?$AAs?$AAi?$AAt?$AAi?$AAo?$AAn?$AAa?$AAl?$AA_?$AAp@ 004ccfe8     libucrtd:output.obj
 0002:00008178       ??_C@_1BFK@IOIDDMPJ@?$AA_?$AA_?$AAc?$AAr?$AAt?$AA_?$AAs?$AAt?$AAd?$AAi?$AAo?$AA_?$AAo?$AAu?$AAt?$AAp?$AAu?$AAt?$AA?3?$AA?3?$AAp?$AAo?$AAs?$AAi?$AAt?$AAi?$AAo?$AAn?$AAa?$AAl?$AA_?$AAp@ 004cd178     libucrtd:output.obj
 0002:00008318       ??_C@_1CI@DDKMNCPP@?$AA_?$AAc?$AAo?$AAn?$AAt?$AAe?$AAx?$AAt?$AA?5?$AA?$CB?$AA?$DN?$AA?5?$AAn?$AAu?$AAl?$AAl?$AAp?$AAt?$AAr?$AA?$AA@ 004cd318     libucrtd:output.obj
 0002:00008348       ??_C@_1HE@IACOMEJF@?$AA_?$AA_?$AAc?$AAr?$AAt?$AA_?$AAs?$AAt?$AAd?$AAi?$AAo?$AA_?$AAo?$AAu?$AAt?$AAp?$AAu?$AAt?$AA?3?$AA?3?$AAs?$AAt?$AAr?$AAi?$AAn?$AAg?$AA_?$AAo?$AAu?$AAt?$AAp?$AAu@ 004cd348     libucrtd:output.obj
 0002:000083d8       ??_C@_1BLE@LCKPBJON@?$AA_?$AA_?$AAc?$AAr?$AAt?$AA_?$AAs?$AAt?$AAd?$AAi?$AAo?$AA_?$AAo?$AAu?$AAt?$AAp?$AAu?$AAt?$AA?3?$AA?3?$AAo?$AAu?$AAt?$AAp?$AAu?$AAt?$AA_?$AAp?$AAr?$AAo?$AAc?$AAe@ 004cd3d8     libucrtd:output.obj
 0002:000085e8       ??_C@_1BLA@MEDMHIOH@?$AA_?$AA_?$AAc?$AAr?$AAt?$AA_?$AAs?$AAt?$AAd?$AAi?$AAo?$AA_?$AAo?$AAu?$AAt?$AAp?$AAu?$AAt?$AA?3?$AA?3?$AAo?$AAu?$AAt?$AAp?$AAu?$AAt?$AA_?$AAp?$AAr?$AAo?$AAc?$AAe@ 004cd5e8     libucrtd:output.obj
 0002:000087f0       ??_C@_1HK@IIPGOADH@?$AA_?$AA_?$AAc?$AAr?$AAt?$AA_?$AAs?$AAt?$AAd?$AAi?$AAo?$AA_?$AAo?$AAu?$AAt?$AAp?$AAu?$AAt?$AA?3?$AA?3?$AAs?$AAt?$AAr?$AAi?$AAn?$AAg?$AA_?$AAo?$AAu?$AAt?$AAp?$AAu@ 004cd7f0     libucrtd:output.obj
 0002:00008888       ??_C@_1BMM@PGHHMNDM@?$AA_?$AA_?$AAc?$AAr?$AAt?$AA_?$AAs?$AAt?$AAd?$AAi?$AAo?$AA_?$AAo?$AAu?$AAt?$AAp?$AAu?$AAt?$AA?3?$AA?3?$AAo?$AAu?$AAt?$AAp?$AAu?$AAt?$AA_?$AAp?$AAr?$AAo?$AAc?$AAe@ 004cd888     libucrtd:output.obj
 0002:00008ab0       ??_C@_1BMI@KBPJOJJI@?$AA_?$AA_?$AAc?$AAr?$AAt?$AA_?$AAs?$AAt?$AAd?$AAi?$AAo?$AA_?$AAo?$AAu?$AAt?$AAp?$AAu?$AAt?$AA?3?$AA?3?$AAo?$AAu?$AAt?$AAp?$AAu?$AAt?$AA_?$AAp?$AAr?$AAo?$AAc?$AAe@ 004cdab0     libucrtd:output.obj
 0002:00008cd8       ??_C@_1BMM@JGEKEBKL@?$AA_?$AA_?$AAc?$AAr?$AAt?$AA_?$AAs?$AAt?$AAd?$AAi?$AAo?$AA_?$AAo?$AAu?$AAt?$AAp?$AAu?$AAt?$AA?3?$AA?3?$AAo?$AAu?$AAt?$AAp?$AAu?$AAt?$AA_?$AAp?$AAr?$AAo?$AAc?$AAe@ 004cdcd8     libucrtd:output.obj
 0002:00008f00       ??_C@_1BMI@LKDDDFDL@?$AA_?$AA_?$AAc?$AAr?$AAt?$AA_?$AAs?$AAt?$AAd?$AAi?$AAo?$AA_?$AAo?$AAu?$AAt?$AAp?$AAu?$AAt?$AA?3?$AA?3?$AAo?$AAu?$AAt?$AAp?$AAu?$AAt?$AA_?$AAp?$AAr?$AAo?$AAc?$AAe@ 004cdf00     libucrtd:output.obj
 0002:00009128       ??_C@_1BDM@GFCGMNL@?$AA_?$AA_?$AAc?$AAr?$AAt?$AA_?$AAs?$AAt?$AAd?$AAi?$AAo?$AA_?$AAo?$AAu?$AAt?$AAp?$AAu?$AAt?$AA?3?$AA?3?$AAp?$AAo?$AAs?$AAi?$AAt?$AAi?$AAo?$AAn?$AAa?$AAl?$AA_?$AAp@ 004ce128     libucrtd:output.obj
 0002:000092a8       ??_C@_1BEO@ODGKIOAL@?$AA_?$AA_?$AAc?$AAr?$AAt?$AA_?$AAs?$AAt?$AAd?$AAi?$AAo?$AA_?$AAo?$AAu?$AAt?$AAp?$AAu?$AAt?$AA?3?$AA?3?$AAp?$AAo?$AAs?$AAi?$AAt?$AAi?$AAo?$AAn?$AAa?$AAl?$AA_?$AAp@ 004ce2a8     libucrtd:output.obj
 0002:00009438       ??_C@_1BOE@IPKNNOEE@?$AA_?$AA_?$AAc?$AAr?$AAt?$AA_?$AAs?$AAt?$AAd?$AAi?$AAo?$AA_?$AAo?$AAu?$AAt?$AAp?$AAu?$AAt?$AA?3?$AA?3?$AAo?$AAu?$AAt?$AAp?$AAu?$AAt?$AA_?$AAp?$AAr?$AAo?$AAc?$AAe@ 004ce438     libucrtd:output.obj
 0002:00009680       ??_C@_1BOA@BMEGDMHF@?$AA_?$AA_?$AAc?$AAr?$AAt?$AA_?$AAs?$AAt?$AAd?$AAi?$AAo?$AA_?$AAo?$AAu?$AAt?$AAp?$AAu?$AAt?$AA?3?$AA?3?$AAo?$AAu?$AAt?$AAp?$AAu?$AAt?$AA_?$AAp?$AAr?$AAo?$AAc?$AAe@ 004ce680     libucrtd:output.obj
 0002:000098c0       ??_C@_1BEI@IHLBHMLJ@?$AA_?$AA_?$AAc?$AAr?$AAt?$AA_?$AAs?$AAt?$AAd?$AAi?$AAo?$AA_?$AAo?$AAu?$AAt?$AAp?$AAu?$AAt?$AA?3?$AA?3?$AAp?$AAo?$AAs?$AAi?$AAt?$AAi?$AAo?$AAn?$AAa?$AAl?$AA_?$AAp@ 004ce8c0     libucrtd:output.obj
 0002:00009a50       ??_C@_1BFK@KNCMELHH@?$AA_?$AA_?$AAc?$AAr?$AAt?$AA_?$AAs?$AAt?$AAd?$AAi?$AAo?$AA_?$AAo?$AAu?$AAt?$AAp?$AAu?$AAt?$AA?3?$AA?3?$AAp?$AAo?$AAs?$AAi?$AAt?$AAi?$AAo?$AAn?$AAa?$AAl?$AA_?$AAp@ 004cea50     libucrtd:output.obj
 0002:00009bf0       ??_C@_1EK@PNGFDECN@?$AA?$CI?$AA?$CC?$AA?8?$AAn?$AA?8?$AA?5?$AAf?$AAo?$AAr?$AAm?$AAa?$AAt?$AA?5?$AAs?$AAp?$AAe?$AAc?$AAi?$AAf?$AAi?$AAe?$AAr?$AA?5?$AAd?$AAi?$AAs?$AAa?$AAb?$AAl?$AAe?$AAd?$AA?$CC@ 004cebf0     libucrtd:output.obj
 0002:00009c48       ??_C@_1BKI@NDKBCDGP@?$AA_?$AA_?$AAc?$AAr?$AAt?$AA_?$AAs?$AAt?$AAd?$AAi?$AAo?$AA_?$AAo?$AAu?$AAt?$AAp?$AAu?$AAt?$AA?3?$AA?3?$AAo?$AAu?$AAt?$AAp?$AAu?$AAt?$AA_?$AAp?$AAr?$AAo?$AAc?$AAe@ 004cec48     libucrtd:output.obj
 0002:00009e48       ??_C@_1EO@GHKFGFKL@?$AA?$CI?$AA?$CC?$AAI?$AAn?$AAv?$AAa?$AAl?$AAi?$AAd?$AA?5?$AAi?$AAn?$AAt?$AAe?$AAg?$AAe?$AAr?$AA?5?$AAl?$AAe?$AAn?$AAg?$AAt?$AAh?$AA?5?$AAm?$AAo?$AAd?$AAi?$AAf?$AAi?$AAe@ 004cee48     libucrtd:output.obj
 0002:00009ea8       ??_C@_1BMA@PGOJAHFP@?$AA_?$AA_?$AAc?$AAr?$AAt?$AA_?$AAs?$AAt?$AAd?$AAi?$AAo?$AA_?$AAo?$AAu?$AAt?$AAp?$AAu?$AAt?$AA?3?$AA?3?$AAo?$AAu?$AAt?$AAp?$AAu?$AAt?$AA_?$AAp?$AAr?$AAo?$AAc?$AAe@ 004ceea8     libucrtd:output.obj
 0002:0000a0c8       ??_C@_1BLK@BGFMMAPO@?$AA_?$AA_?$AAc?$AAr?$AAt?$AA_?$AAs?$AAt?$AAd?$AAi?$AAo?$AA_?$AAo?$AAu?$AAt?$AAp?$AAu?$AAt?$AA?3?$AA?3?$AAo?$AAu?$AAt?$AAp?$AAu?$AAt?$AA_?$AAp?$AAr?$AAo?$AAc?$AAe@ 004cf0c8     libucrtd:output.obj
 0002:0000a2e0       ??_C@_1BNC@DONELHFF@?$AA_?$AA_?$AAc?$AAr?$AAt?$AA_?$AAs?$AAt?$AAd?$AAi?$AAo?$AA_?$AAo?$AAu?$AAt?$AAp?$AAu?$AAt?$AA?3?$AA?3?$AAo?$AAu?$AAt?$AAp?$AAu?$AAt?$AA_?$AAp?$AAr?$AAo?$AAc?$AAe@ 004cf2e0     libucrtd:output.obj
 0002:0000a510       ??_C@_1BMA@GACGPGHN@?$AA_?$AA_?$AAc?$AAr?$AAt?$AA_?$AAs?$AAt?$AAd?$AAi?$AAo?$AA_?$AAo?$AAu?$AAt?$AAp?$AAu?$AAt?$AA?3?$AA?3?$AAo?$AAu?$AAt?$AAp?$AAu?$AAt?$AA_?$AAp?$AAr?$AAo?$AAc?$AAe@ 004cf510     libucrtd:output.obj
 0002:0000a730       ??_C@_1IC@KGDNLBNC@?$AAw?$AAi?$AAd?$AAt?$AAh?$AA_?$AAi?$AAn?$AAd?$AAe?$AAx?$AA?5?$AA?$DO?$AA?$DN?$AA?5?$AA0?$AA?5?$AA?$CG?$AA?$CG?$AA?5?$AA?$CK?$AAe?$AAn?$AAd?$AA_?$AAp?$AAo?$AAi?$AAn?$AAt?$AAe?$AAr@ 004cf730     libucrtd:output.obj
 0002:0000a7d0       ??_C@_1PO@LKIIANED@?$AA_?$AA_?$AAc?$AAr?$AAt?$AA_?$AAs?$AAt?$AAd?$AAi?$AAo?$AA_?$AAo?$AAu?$AAt?$AAp?$AAu?$AAt?$AA?3?$AA?3?$AAp?$AAo?$AAs?$AAi?$AAt?$AAi?$AAo?$AAn?$AAa?$AAl?$AA_?$AAp@ 004cf7d0     libucrtd:output.obj
 0002:0000a900       ??_C@_1JC@PMCLKCOC@?$AAp?$AAr?$AAe?$AAc?$AAi?$AAs?$AAi?$AAo?$AAn?$AA_?$AAi?$AAn?$AAd?$AAe?$AAx?$AA?5?$AA?$DO?$AA?$DN?$AA?5?$AA0?$AA?5?$AA?$CG?$AA?$CG?$AA?5?$AA?$CK?$AAe?$AAn?$AAd?$AA_?$AAp?$AAo?$AAi@ 004cf900     libucrtd:output.obj
 0002:0000a9b0       ??_C@_1PK@KBJECIEM@?$AA_?$AA_?$AAc?$AAr?$AAt?$AA_?$AAs?$AAt?$AAd?$AAi?$AAo?$AA_?$AAo?$AAu?$AAt?$AAp?$AAu?$AAt?$AA?3?$AA?3?$AAp?$AAo?$AAs?$AAi?$AAt?$AAi?$AAo?$AAn?$AAa?$AAl?$AA_?$AAp@ 004cf9b0     libucrtd:output.obj
 0002:0000aae0       ??_C@_1BNI@IMOCDBNE@?$AA_?$AA_?$AAc?$AAr?$AAt?$AA_?$AAs?$AAt?$AAd?$AAi?$AAo?$AA_?$AAo?$AAu?$AAt?$AAp?$AAu?$AAt?$AA?3?$AA?3?$AAo?$AAu?$AAt?$AAp?$AAu?$AAt?$AA_?$AAp?$AAr?$AAo?$AAc?$AAe@ 004cfae0     libucrtd:output.obj
 0002:0000ad18       ??_C@_1BAK@DALINHHB@?$AA_?$AA_?$AAc?$AAr?$AAt?$AA_?$AAs?$AAt?$AAd?$AAi?$AAo?$AA_?$AAo?$AAu?$AAt?$AAp?$AAu?$AAt?$AA?3?$AA?3?$AAp?$AAo?$AAs?$AAi?$AAt?$AAi?$AAo?$AAn?$AAa?$AAl?$AA_?$AAp@ 004cfd18     libucrtd:output.obj
 0002:0000ae58       ??_C@_1BAG@DOFNHDMF@?$AA_?$AA_?$AAc?$AAr?$AAt?$AA_?$AAs?$AAt?$AAd?$AAi?$AAo?$AA_?$AAo?$AAu?$AAt?$AAp?$AAu?$AAt?$AA?3?$AA?3?$AAp?$AAo?$AAs?$AAi?$AAt?$AAi?$AAo?$AAn?$AAa?$AAl?$AA_?$AAp@ 004cfe58     libucrtd:output.obj
 0002:0000af98       ??_C@_1BKI@CJEIGDAI@?$AA_?$AA_?$AAc?$AAr?$AAt?$AA_?$AAs?$AAt?$AAd?$AAi?$AAo?$AA_?$AAo?$AAu?$AAt?$AAp?$AAu?$AAt?$AA?3?$AA?3?$AAo?$AAu?$AAt?$AAp?$AAu?$AAt?$AA_?$AAp?$AAr?$AAo?$AAc?$AAe@ 004cff98     libucrtd:output.obj
 0002:0000b198       ??_C@_1BMA@IHIBOLMD@?$AA_?$AA_?$AAc?$AAr?$AAt?$AA_?$AAs?$AAt?$AAd?$AAi?$AAo?$AA_?$AAo?$AAu?$AAt?$AAp?$AAu?$AAt?$AA?3?$AA?3?$AAo?$AAu?$AAt?$AAp?$AAu?$AAt?$AA_?$AAp?$AAr?$AAo?$AAc?$AAe@ 004d0198     libucrtd:output.obj
 0002:0000b3b8       ??_C@_1BMA@CBPCAOAB@?$AA_?$AA_?$AAc?$AAr?$AAt?$AA_?$AAs?$AAt?$AAd?$AAi?$AAo?$AA_?$AAo?$AAu?$AAt?$AAp?$AAu?$AAt?$AA?3?$AA?3?$AAo?$AAu?$AAt?$AAp?$AAu?$AAt?$AA_?$AAp?$AAr?$AAo?$AAc?$AAe@ 004d03b8     libucrtd:output.obj
 0002:0000b5d8       ??_C@_1PO@PODEJAGE@?$AA_?$AA_?$AAc?$AAr?$AAt?$AA_?$AAs?$AAt?$AAd?$AAi?$AAo?$AA_?$AAo?$AAu?$AAt?$AAp?$AAu?$AAt?$AA?3?$AA?3?$AAp?$AAo?$AAs?$AAi?$AAt?$AAi?$AAo?$AAn?$AAa?$AAl?$AA_?$AAp@ 004d05d8     libucrtd:output.obj
 0002:0000b708       ??_C@_1PK@KBJLALII@?$AA_?$AA_?$AAc?$AAr?$AAt?$AA_?$AAs?$AAt?$AAd?$AAi?$AAo?$AA_?$AAo?$AAu?$AAt?$AAp?$AAu?$AAt?$AA?3?$AA?3?$AAp?$AAo?$AAs?$AAi?$AAt?$AAi?$AAo?$AAn?$AAa?$AAl?$AA_?$AAp@ 004d0708     libucrtd:output.obj
 0002:0000b838       ??_C@_1BDG@KOLEFKPF@?$AA_?$AA_?$AAc?$AAr?$AAt?$AA_?$AAs?$AAt?$AAd?$AAi?$AAo?$AA_?$AAo?$AAu?$AAt?$AAp?$AAu?$AAt?$AA?3?$AA?3?$AAf?$AAo?$AAr?$AAm?$AAa?$AAt?$AA_?$AAv?$AAa?$AAl?$AAi?$AAd@ 004d0838     libucrtd:output.obj
 0002:0000b9b0       ??_C@_1BNI@OPBGCNOB@?$AA_?$AA_?$AAc?$AAr?$AAt?$AA_?$AAs?$AAt?$AAd?$AAi?$AAo?$AA_?$AAo?$AAu?$AAt?$AAp?$AAu?$AAt?$AA?3?$AA?3?$AAo?$AAu?$AAt?$AAp?$AAu?$AAt?$AA_?$AAp?$AAr?$AAo?$AAc?$AAe@ 004d09b0     libucrtd:output.obj
 0002:0000bbe8       ??_C@_1BAK@CDLANFGA@?$AA_?$AA_?$AAc?$AAr?$AAt?$AA_?$AAs?$AAt?$AAd?$AAi?$AAo?$AA_?$AAo?$AAu?$AAt?$AAp?$AAu?$AAt?$AA?3?$AA?3?$AAp?$AAo?$AAs?$AAi?$AAt?$AAi?$AAo?$AAn?$AAa?$AAl?$AA_?$AAp@ 004d0be8     libucrtd:output.obj
 0002:0000bd28       ??_C@_1BAG@GKCGGKOF@?$AA_?$AA_?$AAc?$AAr?$AAt?$AA_?$AAs?$AAt?$AAd?$AAi?$AAo?$AA_?$AAo?$AAu?$AAt?$AAp?$AAu?$AAt?$AA?3?$AA?3?$AAp?$AAo?$AAs?$AAi?$AAt?$AAi?$AAo?$AAn?$AAa?$AAl?$AA_?$AAp@ 004d0d28     libucrtd:output.obj
 0002:0000be68       ??_C@_1BEC@NDOOKIMC@?$AA_?$AA_?$AAc?$AAr?$AAt?$AA_?$AAs?$AAt?$AAd?$AAi?$AAo?$AA_?$AAo?$AAu?$AAt?$AAp?$AAu?$AAt?$AA?3?$AA?3?$AAf?$AAo?$AAr?$AAm?$AAa?$AAt?$AA_?$AAv?$AAa?$AAl?$AAi?$AAd@ 004d0e68     libucrtd:output.obj
 0002:0000bfec       ??_C@_1CK@LGDCECDH@?$AA_?$AAf?$AAo?$AAr?$AAm?$AAa?$AAt?$AA_?$AAc?$AAh?$AAa?$AAr?$AA?5?$AA?$CB?$AA?$DN?$AA?5?$AA?8?$AA?2?$AA0?$AA?8?$AA?$AA@ 004d0fec     libucrtd:output.obj
 0002:0000c020       ??_C@_1BMA@MEBEEDJE@?$AA_?$AA_?$AAc?$AAr?$AAt?$AA_?$AAs?$AAt?$AAd?$AAi?$AAo?$AA_?$AAo?$AAu?$AAt?$AAp?$AAu?$AAt?$AA?3?$AA?3?$AAo?$AAu?$AAt?$AAp?$AAu?$AAt?$AA_?$AAp?$AAr?$AAo?$AAc?$AAe@ 004d1020     libucrtd:output.obj
 0002:0000c240       ??_C@_1BLE@MHLEAOID@?$AA_?$AA_?$AAc?$AAr?$AAt?$AA_?$AAs?$AAt?$AAd?$AAi?$AAo?$AA_?$AAo?$AAu?$AAt?$AAp?$AAu?$AAt?$AA?3?$AA?3?$AAo?$AAu?$AAt?$AAp?$AAu?$AAt?$AA_?$AAp?$AAr?$AAo?$AAc?$AAe@ 004d1240     libucrtd:output.obj
 0002:0000c44c       ??_C@_06OJHGLDPL@?$CInull?$CJ?$AA@ 004d144c     libucrtd:output.obj
 0002:0000c454       ??_C@_1O@CEDCILHN@?$AA?$CI?$AAn?$AAu?$AAl?$AAl?$AA?$CJ?$AA?$AA@ 004d1454     libucrtd:output.obj
 0002:0000c468       ??_C@_1BMM@KANDEEGK@?$AA_?$AA_?$AAc?$AAr?$AAt?$AA_?$AAs?$AAt?$AAd?$AAi?$AAo?$AA_?$AAo?$AAu?$AAt?$AAp?$AAu?$AAt?$AA?3?$AA?3?$AAo?$AAu?$AAt?$AAp?$AAu?$AAt?$AA_?$AAp?$AAr?$AAo?$AAc?$AAe@ 004d1468     libucrtd:output.obj
 0002:0000c690       ??_C@_1BNC@BAMNIOCM@?$AA_?$AA_?$AAc?$AAr?$AAt?$AA_?$AAs?$AAt?$AAd?$AAi?$AAo?$AA_?$AAo?$AAu?$AAt?$AAp?$AAu?$AAt?$AA?3?$AA?3?$AAo?$AAu?$AAt?$AAp?$AAu?$AAt?$AA_?$AAp?$AAr?$AAo?$AAc?$AAe@ 004d1690     libucrtd:output.obj
 0002:0000c8c0       ??_C@_1BMG@JJPLEEHI@?$AA_?$AA_?$AAc?$AAr?$AAt?$AA_?$AAs?$AAt?$AAd?$AAi?$AAo?$AA_?$AAo?$AAu?$AAt?$AAp?$AAu?$AAt?$AA?3?$AA?3?$AAo?$AAu?$AAt?$AAp?$AAu?$AAt?$AA_?$AAp?$AAr?$AAo?$AAc?$AAe@ 004d18c0     libucrtd:output.obj
 0002:0000cae0       ??_C@_1BNO@ILHNHKFA@?$AA_?$AA_?$AAc?$AAr?$AAt?$AA_?$AAs?$AAt?$AAd?$AAi?$AAo?$AA_?$AAo?$AAu?$AAt?$AAp?$AAu?$AAt?$AA?3?$AA?3?$AAo?$AAu?$AAt?$AAp?$AAu?$AAt?$AA_?$AAp?$AAr?$AAo?$AAc?$AAe@ 004d1ae0     libucrtd:output.obj
 0002:0000cd20       ??_C@_1BNI@EJPCEBAG@?$AA_?$AA_?$AAc?$AAr?$AAt?$AA_?$AAs?$AAt?$AAd?$AAi?$AAo?$AA_?$AAo?$AAu?$AAt?$AAp?$AAu?$AAt?$AA?3?$AA?3?$AAo?$AAu?$AAt?$AAp?$AAu?$AAt?$AA_?$AAp?$AAr?$AAo?$AAc?$AAe@ 004d1d20     libucrtd:output.obj
 0002:0000cf58       ??_C@_1BMM@CMKPNHDJ@?$AA_?$AA_?$AAc?$AAr?$AAt?$AA_?$AAs?$AAt?$AAd?$AAi?$AAo?$AA_?$AAo?$AAu?$AAt?$AAp?$AAu?$AAt?$AA?3?$AA?3?$AAo?$AAu?$AAt?$AAp?$AAu?$AAt?$AA_?$AAp?$AAr?$AAo?$AAc?$AAe@ 004d1f58     libucrtd:output.obj
 0002:0000d180       ??_C@_1FE@IAFJEKN@?$AA_?$AAt?$AAy?$AAp?$AAe?$AA_?$AAi?$AAn?$AAd?$AAe?$AAx?$AA?5?$AA?$DO?$AA?$DN?$AA?5?$AA0?$AA?5?$AA?$CG?$AA?$CG?$AA?5?$AA_?$AAt?$AAy?$AAp?$AAe?$AA_?$AAi?$AAn?$AAd?$AAe?$AAx?$AA?5@ 004d2180     libucrtd:output.obj
 0002:0000d1e8       ??_C@_1BBG@JLLDGFML@?$AA_?$AA_?$AAc?$AAr?$AAt?$AA_?$AAs?$AAt?$AAd?$AAi?$AAo?$AA_?$AAo?$AAu?$AAt?$AAp?$AAu?$AAt?$AA?3?$AA?3?$AAp?$AAo?$AAs?$AAi?$AAt?$AAi?$AAo?$AAn?$AAa?$AAl?$AA_?$AAp@ 004d21e8     libucrtd:output.obj
 0002:0000d338       ??_C@_1LO@HECDHMMI@?$AAi?$AAs?$AA_?$AAp?$AAo?$AAs?$AAi?$AAt?$AAi?$AAo?$AAn?$AAa?$AAl?$AA_?$AAp?$AAa?$AAr?$AAa?$AAm?$AAe?$AAt?$AAe?$AAr?$AA_?$AAr?$AAe?$AAa?$AAp?$AAp?$AAe?$AAa?$AAr@ 004d2338     libucrtd:output.obj
 0002:0000d420       ??_C@_1BBM@LLHBCDAF@?$AA_?$AA_?$AAc?$AAr?$AAt?$AA_?$AAs?$AAt?$AAd?$AAi?$AAo?$AA_?$AAo?$AAu?$AAt?$AAp?$AAu?$AAt?$AA?3?$AA?3?$AAp?$AAo?$AAs?$AAi?$AAt?$AAi?$AAo?$AAn?$AAa?$AAl?$AA_?$AAp@ 004d2420     libucrtd:output.obj
 0002:0000d578       ??_C@_1BOE@OMDELMGH@?$AA_?$AA_?$AAc?$AAr?$AAt?$AA_?$AAs?$AAt?$AAd?$AAi?$AAo?$AA_?$AAo?$AAu?$AAt?$AAp?$AAu?$AAt?$AA?3?$AA?3?$AAo?$AAu?$AAt?$AAp?$AAu?$AAt?$AA_?$AAp?$AAr?$AAo?$AAc?$AAe@ 004d2578     libucrtd:output.obj
 0002:0000d7c0       ??_C@_1BCC@PDNLFIHK@?$AA_?$AA_?$AAc?$AAr?$AAt?$AA_?$AAs?$AAt?$AAd?$AAi?$AAo?$AA_?$AAo?$AAu?$AAt?$AAp?$AAu?$AAt?$AA?3?$AA?3?$AAp?$AAo?$AAs?$AAi?$AAt?$AAi?$AAo?$AAn?$AAa?$AAl?$AA_?$AAp@ 004d27c0     libucrtd:output.obj
 0002:0000d920       ??_C@_1BCI@ILAANKJG@?$AA_?$AA_?$AAc?$AAr?$AAt?$AA_?$AAs?$AAt?$AAd?$AAi?$AAo?$AA_?$AAo?$AAu?$AAt?$AAp?$AAu?$AAt?$AA?3?$AA?3?$AAp?$AAo?$AAs?$AAi?$AAt?$AAi?$AAo?$AAn?$AAa?$AAl?$AA_?$AAp@ 004d2920     libucrtd:output.obj
 0002:0000da88       ??_C@_1BMA@FANDDEHK@?$AA_?$AA_?$AAc?$AAr?$AAt?$AA_?$AAs?$AAt?$AAd?$AAi?$AAo?$AA_?$AAo?$AAu?$AAt?$AAp?$AAu?$AAt?$AA?3?$AA?3?$AAo?$AAu?$AAt?$AAp?$AAu?$AAt?$AA_?$AAp?$AAr?$AAo?$AAc?$AAe@ 004d2a88     libucrtd:output.obj
 0002:0000dca8       ??_C@_1BLE@IFBJPNFE@?$AA_?$AA_?$AAc?$AAr?$AAt?$AA_?$AAs?$AAt?$AAd?$AAi?$AAo?$AA_?$AAo?$AAu?$AAt?$AAp?$AAu?$AAt?$AA?3?$AA?3?$AAo?$AAu?$AAt?$AAp?$AAu?$AAt?$AA_?$AAp?$AAr?$AAo?$AAc?$AAe@ 004d2ca8     libucrtd:output.obj
 0002:0000deb8       ??_C@_1BMM@MBMBCJIF@?$AA_?$AA_?$AAc?$AAr?$AAt?$AA_?$AAs?$AAt?$AAd?$AAi?$AAo?$AA_?$AAo?$AAu?$AAt?$AAp?$AAu?$AAt?$AA?3?$AA?3?$AAo?$AAu?$AAt?$AAp?$AAu?$AAt?$AA_?$AAp?$AAr?$AAo?$AAc?$AAe@ 004d2eb8     libucrtd:output.obj
 0002:0000e0e0       ??_C@_1BNI@EDCGAPJB@?$AA_?$AA_?$AAc?$AAr?$AAt?$AA_?$AAs?$AAt?$AAd?$AAi?$AAo?$AA_?$AAo?$AAu?$AAt?$AAp?$AAu?$AAt?$AA?3?$AA?3?$AAo?$AAu?$AAt?$AAp?$AAu?$AAt?$AA_?$AAp?$AAr?$AAo?$AAc?$AAe@ 004d30e0     libucrtd:output.obj
 0002:0000e318       ??_C@_1BMM@KBPMKFBC@?$AA_?$AA_?$AAc?$AAr?$AAt?$AA_?$AAs?$AAt?$AAd?$AAi?$AAo?$AA_?$AAo?$AAu?$AAt?$AAp?$AAu?$AAt?$AA?3?$AA?3?$AAo?$AAu?$AAt?$AAp?$AAu?$AAt?$AA_?$AAp?$AAr?$AAo?$AAc?$AAe@ 004d3318     libucrtd:output.obj
 0002:0000e540       ??_C@_1BBG@KIHCHFIM@?$AA_?$AA_?$AAc?$AAr?$AAt?$AA_?$AAs?$AAt?$AAd?$AAi?$AAo?$AA_?$AAo?$AAu?$AAt?$AAp?$AAu?$AAt?$AA?3?$AA?3?$AAp?$AAo?$AAs?$AAi?$AAt?$AAi?$AAo?$AAn?$AAa?$AAl?$AA_?$AAp@ 004d3540     libucrtd:output.obj
 0002:0000e690       ??_C@_1BBM@CBBAFMPJ@?$AA_?$AA_?$AAc?$AAr?$AAt?$AA_?$AAs?$AAt?$AAd?$AAi?$AAo?$AA_?$AAo?$AAu?$AAt?$AAp?$AAu?$AAt?$AA?3?$AA?3?$AAp?$AAo?$AAs?$AAi?$AAt?$AAi?$AAo?$AAn?$AAa?$AAl?$AA_?$AAp@ 004d3690     libucrtd:output.obj
 0002:0000e7e8       ??_C@_1BOE@LIBLDKPN@?$AA_?$AA_?$AAc?$AAr?$AAt?$AA_?$AAs?$AAt?$AAd?$AAi?$AAo?$AA_?$AAo?$AAu?$AAt?$AAp?$AAu?$AAt?$AA?3?$AA?3?$AAo?$AAu?$AAt?$AAp?$AAu?$AAt?$AA_?$AAp?$AAr?$AAo?$AAc?$AAe@ 004d37e8     libucrtd:output.obj
 0002:0000ea30       ??_C@_1BCC@GJLKCHIG@?$AA_?$AA_?$AAc?$AAr?$AAt?$AA_?$AAs?$AAt?$AAd?$AAi?$AAo?$AA_?$AAo?$AAu?$AAt?$AAp?$AAu?$AAt?$AA?3?$AA?3?$AAp?$AAo?$AAs?$AAi?$AAt?$AAi?$AAo?$AAn?$AAa?$AAl?$AA_?$AAp@ 004d3a30     libucrtd:output.obj
 0002:0000eb90       ??_C@_1BCI@OBMMNJKK@?$AA_?$AA_?$AAc?$AAr?$AAt?$AA_?$AAs?$AAt?$AAd?$AAi?$AAo?$AA_?$AAo?$AAu?$AAt?$AAp?$AAu?$AAt?$AA?3?$AA?3?$AAp?$AAo?$AAs?$AAi?$AAt?$AAi?$AAo?$AAn?$AAa?$AAl?$AA_?$AAp@ 004d3b90     libucrtd:output.obj
 0002:0000ecf4       ??_C@_0DI@KIFBHMNO@minkernel?2crts?2ucrt?2inc?2corecrt_@ 004d3cf4     libucrtd:output.obj
 0002:0000ed38       ??_C@_1BBE@FLKADCDA@?$AA_?$AA_?$AAc?$AAr?$AAt?$AA_?$AAs?$AAt?$AAd?$AAi?$AAo?$AA_?$AAo?$AAu?$AAt?$AAp?$AAu?$AAt?$AA?3?$AA?3?$AAp?$AAo?$AAs?$AAi?$AAt?$AAi?$AAo?$AAn?$AAa?$AAl?$AA_?$AAp@ 004d3d38     libucrtd:output.obj
 0002:0000ee88       ??_C@_1BCA@FCGNBIN@?$AA_?$AA_?$AAc?$AAr?$AAt?$AA_?$AAs?$AAt?$AAd?$AAi?$AAo?$AA_?$AAo?$AAu?$AAt?$AAp?$AAu?$AAt?$AA?3?$AA?3?$AAp?$AAo?$AAs?$AAi?$AAt?$AAi?$AAo?$AAn?$AAa?$AAl?$AA_?$AAp@ 004d3e88     libucrtd:output.obj
 0002:0000efe8       ??_C@_1BBE@IBPNPIIM@?$AA_?$AA_?$AAc?$AAr?$AAt?$AA_?$AAs?$AAt?$AAd?$AAi?$AAo?$AA_?$AAo?$AAu?$AAt?$AAp?$AAu?$AAt?$AA?3?$AA?3?$AAp?$AAo?$AAs?$AAi?$AAt?$AAi?$AAo?$AAn?$AAa?$AAl?$AA_?$AAp@ 004d3fe8     libucrtd:output.obj
 0002:0000f138       ??_C@_1BCA@HCPCJFGA@?$AA_?$AA_?$AAc?$AAr?$AAt?$AA_?$AAs?$AAt?$AAd?$AAi?$AAo?$AA_?$AAo?$AAu?$AAt?$AAp?$AAu?$AAt?$AA?3?$AA?3?$AAp?$AAo?$AAs?$AAi?$AAt?$AAi?$AAo?$AAn?$AAa?$AAl?$AA_?$AAp@ 004d4138     libucrtd:output.obj
 0002:0000f298       ??_C@_1BLC@INKIGOCN@?$AA_?$AA_?$AAc?$AAr?$AAt?$AA_?$AAs?$AAt?$AAd?$AAi?$AAo?$AA_?$AAo?$AAu?$AAt?$AAp?$AAu?$AAt?$AA?3?$AA?3?$AAo?$AAu?$AAt?$AAp?$AAu?$AAt?$AA_?$AAp?$AAr?$AAo?$AAc?$AAe@ 004d4298     libucrtd:output.obj
 0002:0000f4a0       ??_C@_1BMK@JGIBNIA@?$AA_?$AA_?$AAc?$AAr?$AAt?$AA_?$AAs?$AAt?$AAd?$AAi?$AAo?$AA_?$AAo?$AAu?$AAt?$AAp?$AAu?$AAt?$AA?3?$AA?3?$AAo?$AAu?$AAt?$AAp?$AAu?$AAt?$AA_?$AAp?$AAr?$AAo?$AAc?$AAe@ 004d44a0     libucrtd:output.obj
 0002:0000f6c8       ??_C@_1BMG@CGPDIFDK@?$AA_?$AA_?$AAc?$AAr?$AAt?$AA_?$AAs?$AAt?$AAd?$AAi?$AAo?$AA_?$AAo?$AAu?$AAt?$AAp?$AAu?$AAt?$AA?3?$AA?3?$AAo?$AAu?$AAt?$AAp?$AAu?$AAt?$AA_?$AAp?$AAr?$AAo?$AAc?$AAe@ 004d46c8     libucrtd:output.obj
 0002:0000f8e8       ??_C@_1BMC@FAGJFBLI@?$AA_?$AA_?$AAc?$AAr?$AAt?$AA_?$AAs?$AAt?$AAd?$AAi?$AAo?$AA_?$AAo?$AAu?$AAt?$AAp?$AAu?$AAt?$AA?3?$AA?3?$AAo?$AAu?$AAt?$AAp?$AAu?$AAt?$AA_?$AAp?$AAr?$AAo?$AAc?$AAe@ 004d48e8     libucrtd:output.obj
 0002:0000fb08       ??_C@_1BNO@OHFFMOOJ@?$AA_?$AA_?$AAc?$AAr?$AAt?$AA_?$AAs?$AAt?$AAd?$AAi?$AAo?$AA_?$AAo?$AAu?$AAt?$AAp?$AAu?$AAt?$AA?3?$AA?3?$AAo?$AAu?$AAt?$AAp?$AAu?$AAt?$AA_?$AAp?$AAr?$AAo?$AAc?$AAe@ 004d4b08     libucrtd:output.obj
 0002:0000fd48       ??_C@_1BNK@KHNJGCCP@?$AA_?$AA_?$AAc?$AAr?$AAt?$AA_?$AAs?$AAt?$AAd?$AAi?$AAo?$AA_?$AAo?$AAu?$AAt?$AAp?$AAu?$AAt?$AA?3?$AA?3?$AAo?$AAu?$AAt?$AAp?$AAu?$AAt?$AA_?$AAp?$AAr?$AAo?$AAc?$AAe@ 004d4d48     libucrtd:output.obj
 0002:0000ff80       ??_C@_1BLK@FOLFMPJH@?$AA_?$AA_?$AAc?$AAr?$AAt?$AA_?$AAs?$AAt?$AAd?$AAi?$AAo?$AA_?$AAo?$AAu?$AAt?$AAp?$AAu?$AAt?$AA?3?$AA?3?$AAo?$AAu?$AAt?$AAp?$AAu?$AAt?$AA_?$AAp?$AAr?$AAo?$AAc?$AAe@ 004d4f80     libucrtd:output.obj
 0002:00010198       ??_C@_1BNC@OHPDPPJK@?$AA_?$AA_?$AAc?$AAr?$AAt?$AA_?$AAs?$AAt?$AAd?$AAi?$AAo?$AA_?$AAo?$AAu?$AAt?$AAp?$AAu?$AAt?$AA?3?$AA?3?$AAo?$AAu?$AAt?$AAp?$AAu?$AAt?$AA_?$AAp?$AAr?$AAo?$AAc?$AAe@ 004d5198     libucrtd:output.obj
 0002:000103c8       ??_C@_1BNC@JPKLPOHO@?$AA_?$AA_?$AAc?$AAr?$AAt?$AA_?$AAs?$AAt?$AAd?$AAi?$AAo?$AA_?$AAo?$AAu?$AAt?$AAp?$AAu?$AAt?$AA?3?$AA?3?$AAo?$AAu?$AAt?$AAp?$AAu?$AAt?$AA_?$AAp?$AAr?$AAo?$AAc?$AAe@ 004d53c8     libucrtd:output.obj
 0002:000105f8       ??_C@_1BMG@BBEFGBID@?$AA_?$AA_?$AAc?$AAr?$AAt?$AA_?$AAs?$AAt?$AAd?$AAi?$AAo?$AA_?$AAo?$AAu?$AAt?$AAp?$AAu?$AAt?$AA?3?$AA?3?$AAo?$AAu?$AAt?$AAp?$AAu?$AAt?$AA_?$AAp?$AAr?$AAo?$AAc?$AAe@ 004d55f8     libucrtd:output.obj
 0002:00010818       ??_C@_1BNO@NAODCKFA@?$AA_?$AA_?$AAc?$AAr?$AAt?$AA_?$AAs?$AAt?$AAd?$AAi?$AAo?$AA_?$AAo?$AAu?$AAt?$AAp?$AAu?$AAt?$AA?3?$AA?3?$AAo?$AAu?$AAt?$AAp?$AAu?$AAt?$AA_?$AAp?$AAr?$AAo?$AAc?$AAe@ 004d5818     libucrtd:output.obj
 0002:00010a58       ??_C@_0CP@GDJHIDC@minkernel?2crts?2ucrt?2src?2appcrt?2s@ 004d5a58     libucrtd:_file.obj
 0002:00010a90       ??_C@_1DC@OGOLMDEL@?$AAp?$AAu?$AAb?$AAl?$AAi?$AAc?$AA_?$AAs?$AAt?$AAr?$AAe?$AAa?$AAm?$AA?5?$AA?$CB?$AA?$DN?$AA?5?$AAn?$AAu?$AAl?$AAl?$AAp?$AAt?$AAr?$AA?$AA@ 004d5a90     libucrtd:_file.obj
 0002:00010ad0       ??_C@_1FO@IEGKHABE@?$AAm?$AAi?$AAn?$AAk?$AAe?$AAr?$AAn?$AAe?$AAl?$AA?2?$AAc?$AAr?$AAt?$AAs?$AA?2?$AAu?$AAc?$AAr?$AAt?$AA?2?$AAs?$AAr?$AAc?$AA?2?$AAa?$AAp?$AAp?$AAc?$AAr?$AAt?$AA?2?$AAs@ 004d5ad0     libucrtd:_file.obj
 0002:00010b40       ??_C@_1DI@PJGMCDLC@?$AA_?$AAg?$AAe?$AAt?$AA_?$AAs?$AAt?$AAr?$AAe?$AAa?$AAm?$AA_?$AAb?$AAu?$AAf?$AAf?$AAe?$AAr?$AA_?$AAp?$AAo?$AAi?$AAn?$AAt?$AAe?$AAr?$AAs?$AA?$AA@ 004d5b40     libucrtd:_file.obj
 0002:00010b88       ??_C@_1EA@MFKLBHOB@?$AAs?$AAt?$AAr?$AAi?$AAn?$AAg?$AA?5?$AA?$CB?$AA?$DN?$AA?5?$AAn?$AAu?$AAl?$AAl?$AAp?$AAt?$AAr?$AA?5?$AA?$HM?$AA?$HM?$AA?5?$AAc?$AAo?$AAu?$AAn?$AAt?$AA?5?$AA?$DN?$AA?$DN?$AA?5?$AA0?$AA?$AA@ 004d5b88     libucrtd:fgets.obj
 0002:00010bd8       ??_C@_1FO@HIFCGJKB@?$AAm?$AAi?$AAn?$AAk?$AAe?$AAr?$AAn?$AAe?$AAl?$AA?2?$AAc?$AAr?$AAt?$AAs?$AA?2?$AAu?$AAc?$AAr?$AAt?$AA?2?$AAs?$AAr?$AAc?$AA?2?$AAa?$AAp?$AAp?$AAc?$AAr?$AAt?$AA?2?$AAs@ 004d5bd8     libucrtd:fgets.obj
 0002:00010c48       ??_C@_1BK@HJELCDB@?$AAc?$AAo?$AAm?$AAm?$AAo?$AAn?$AA_?$AAf?$AAg?$AAe?$AAt?$AAs?$AA?$AA@ 004d5c48     libucrtd:fgets.obj
 0002:00010c68       ??_C@_1BG@DPDCLCPC@?$AAc?$AAo?$AAu?$AAn?$AAt?$AA?5?$AA?$DO?$AA?$DN?$AA?5?$AA0?$AA?$AA@ 004d5c68     libucrtd:fgets.obj
 0002:00010c84       ??_C@_1BO@MHPFFFJJ@?$AAs?$AAt?$AAr?$AAe?$AAa?$AAm?$AA?4?$AAv?$AAa?$AAl?$AAi?$AAd?$AA?$CI?$AA?$CJ?$AA?$AA@ 004d5c84     libucrtd:fgets.obj
 0002:00010ca8       ??_C@_1CE@JMFACANE@?$AAr?$AAe?$AAs?$AAu?$AAl?$AAt?$AA?5?$AA?$CB?$AA?$DN?$AA?5?$AAn?$AAu?$AAl?$AAl?$AAp?$AAt?$AAr?$AA?$AA@ 004d5ca8     libucrtd:freopen.obj
 0002:00010cd8       ??_C@_1GC@NJJKIOIO@?$AAm?$AAi?$AAn?$AAk?$AAe?$AAr?$AAn?$AAe?$AAl?$AA?2?$AAc?$AAr?$AAt?$AAs?$AA?2?$AAu?$AAc?$AAr?$AAt?$AA?2?$AAs?$AAr?$AAc?$AA?2?$AAa?$AAp?$AAp?$AAc?$AAr?$AAt?$AA?2?$AAs@ 004d5cd8     libucrtd:freopen.obj
 0002:00010d50       ??_C@_1BO@DFBEFOCD@?$AAc?$AAo?$AAm?$AAm?$AAo?$AAn?$AA_?$AAf?$AAr?$AAe?$AAo?$AAp?$AAe?$AAn?$AA?$AA@ 004d5d50     libucrtd:freopen.obj
 0002:00010d74       ??_C@_1CA@HJKPLBCC@?$AAm?$AAo?$AAd?$AAe?$AA?5?$AA?$CB?$AA?$DN?$AA?5?$AAn?$AAu?$AAl?$AAl?$AAp?$AAt?$AAr?$AA?$AA@ 004d5d74     libucrtd:freopen.obj
 0002:00010d9c       ??_C@_1CE@BLLJFLOH@?$AAs?$AAt?$AAr?$AAi?$AAn?$AAg?$AA?5?$AA?$CB?$AA?$DN?$AA?5?$AAn?$AAu?$AAl?$AAl?$AAp?$AAt?$AAr?$AA?$AA@ 004d5d9c     libucrtd:puts.obj
 0002:00010dc8       ??_C@_1FM@DPFHHLEF@?$AAm?$AAi?$AAn?$AAk?$AAe?$AAr?$AAn?$AAe?$AAl?$AA?2?$AAc?$AAr?$AAt?$AAs?$AA?2?$AAu?$AAc?$AAr?$AAt?$AA?2?$AAs?$AAr?$AAc?$AA?2?$AAa?$AAp?$AAp?$AAc?$AAr?$AAt?$AA?2?$AAs@ 004d5dc8     libucrtd:puts.obj
 0002:00010e38       ??_C@_19OHLFMNEA@?$AAp?$AAu?$AAt?$AAs?$AA?$AA@ 004d5e38     libucrtd:puts.obj
 0002:00010e44       ??_C@_1BO@GCPMHDON@?$AAd?$AAs?$AAt?$AA?5?$AA?$CB?$AA?$DN?$AA?5?$AAn?$AAu?$AAl?$AAl?$AAp?$AAt?$AAr?$AA?$AA@ 004d5e44     libucrtd:strnicmp.obj
 0002:00010e68       ??_C@_1GG@FIFJEMIA@?$AAm?$AAi?$AAn?$AAk?$AAe?$AAr?$AAn?$AAe?$AAl?$AA?2?$AAc?$AAr?$AAt?$AAs?$AA?2?$AAu?$AAc?$AAr?$AAt?$AA?2?$AAs?$AAr?$AAc?$AA?2?$AAa?$AAp?$AAp?$AAc?$AAr?$AAt?$AA?2?$AAs@ 004d5e68     libucrtd:strnicmp.obj
 0002:00010ee4       ??_C@_1BI@BJLEPLEF@?$AA_?$AAs?$AAt?$AAr?$AAn?$AAi?$AAc?$AAm?$AAp?$AA_?$AAl?$AA?$AA@ 004d5ee4     libucrtd:strnicmp.obj
 0002:00010f00       ??_C@_1BO@NEBGDLJE@?$AAs?$AAr?$AAc?$AA?5?$AA?$CB?$AA?$DN?$AA?5?$AAn?$AAu?$AAl?$AAl?$AAp?$AAt?$AAr?$AA?$AA@ 004d5f00     libucrtd:strnicmp.obj
 0002:00010f24       ??_C@_1CC@JLPHKJPH@?$AAc?$AAo?$AAu?$AAn?$AAt?$AA?5?$AA?$DM?$AA?$DN?$AA?5?$AAI?$AAN?$AAT?$AA_?$AAM?$AAA?$AAX?$AA?$AA@ 004d5f24     libucrtd:strnicmp.obj
 0002:00010f4c       ??_C@_1BE@BHJDFFNA@?$AA_?$AAs?$AAt?$AAr?$AAn?$AAi?$AAc?$AAm?$AAp?$AA?$AA@ 004d5f4c     libucrtd:strnicmp.obj
 0002:00010f70       __OP_FMODjmptab            004d5f70     libucrtd:87fmod.obj
 0002:00010fd0       ___acrt_exception_action_table 004d5fd0     libucrtd:exception_filter.obj
 0002:0001107c       ___acrt_signal_action_table_count 004d607c     libucrtd:exception_filter.obj
 0002:00011080       ___acrt_signal_action_table_size 004d6080     libucrtd:exception_filter.obj
 0002:00011084       ___acrt_signal_action_first_fpe_index 004d6084     libucrtd:exception_filter.obj
 0002:00011088       ___acrt_signal_action_fpe_count 004d6088     libucrtd:exception_filter.obj
 0002:00011090       ??_C@_1IC@DCNEKBE@?$AAm?$AAi?$AAn?$AAk?$AAe?$AAr?$AAn?$AAe?$AAl?$AA?2?$AAc?$AAr?$AAt?$AAs?$AA?2?$AAu?$AAc?$AAr?$AAt?$AA?2?$AAs?$AAr?$AAc?$AA?2?$AAa?$AAp?$AAp?$AAc?$AAr?$AAt?$AA?2?$AAi@ 004d6090     libucrtd:report_runtime_error.obj
 0002:0001112c       ??_C@_1DI@BLFJHKKP@?$AA_?$AA_?$AAa?$AAc?$AAr?$AAt?$AA_?$AAr?$AAe?$AAp?$AAo?$AAr?$AAt?$AA_?$AAr?$AAu?$AAn?$AAt?$AAi?$AAm?$AAe?$AA_?$AAe?$AAr?$AAr?$AAo?$AAr?$AA?$AA@ 004d612c     libucrtd:report_runtime_error.obj
 0002:00011170       ??_C@_1LE@MHPGJGKE@?$AAw?$AAc?$AAs?$AAc?$AAp?$AAy?$AA_?$AAs?$AA?$CI?$AAo?$AAu?$AAt?$AAm?$AAs?$AAg?$AA?0?$AA?5?$AA?$CI?$AAs?$AAi?$AAz?$AAe?$AAo?$AAf?$AA?$CI?$AA?$CK?$AA_?$AA_?$AAc?$AAo?$AAu?$AAn@ 004d6170     libucrtd:report_runtime_error.obj
 0002:00011248       ??_C@_1DE@JNGNBFGO@?$AAR?$AAu?$AAn?$AAt?$AAi?$AAm?$AAe?$AA?5?$AAE?$AAr?$AAr?$AAo?$AAr?$AA?$CB?$AA?6?$AA?6?$AAP?$AAr?$AAo?$AAg?$AAr?$AAa?$AAm?$AA?3?$AA?5?$AA?$AA@ 004d6248     libucrtd:report_runtime_error.obj
 0002:00011288       ??_C@_1HK@FJJNAABO@?$AAw?$AAc?$AAs?$AAc?$AAp?$AAy?$AA_?$AAs?$AA?$CI?$AAp?$AAr?$AAo?$AAg?$AAn?$AAa?$AAm?$AAe?$AA?0?$AA?5?$AAp?$AAr?$AAo?$AAg?$AAn?$AAa?$AAm?$AAe?$AA_?$AAs?$AAi?$AAz?$AAe@ 004d6288     libucrtd:report_runtime_error.obj
 0002:00011320       ??_C@_1HI@FLHKGEBE@?$AAw?$AAc?$AAs?$AAn?$AAc?$AAp?$AAy?$AA_?$AAs?$AA?$CI?$AAp?$AAc?$AAh?$AA?0?$AA?5?$AAp?$AAr?$AAo?$AAg?$AAn?$AAa?$AAm?$AAe?$AA_?$AAs?$AAi?$AAz?$AAe?$AA?5?$AA?9?$AA?5?$AA?$CI@ 004d6320     libucrtd:report_runtime_error.obj
 0002:000113b0       ??_C@_1IG@MNNKBLBI@?$AAw?$AAc?$AAs?$AAc?$AAa?$AAt?$AA_?$AAs?$AA?$CI?$AAo?$AAu?$AAt?$AAm?$AAs?$AAg?$AA?0?$AA?5?$AA?$CI?$AAs?$AAi?$AAz?$AAe?$AAo?$AAf?$AA?$CI?$AA?$CK?$AA_?$AA_?$AAc?$AAo?$AAu?$AAn@ 004d63b0     libucrtd:report_runtime_error.obj
 0002:00011450       ??_C@_1IG@DFBBBDAN@?$AAw?$AAc?$AAs?$AAc?$AAa?$AAt?$AA_?$AAs?$AA?$CI?$AAo?$AAu?$AAt?$AAm?$AAs?$AAg?$AA?0?$AA?5?$AA?$CI?$AAs?$AAi?$AAz?$AAe?$AAo?$AAf?$AA?$CI?$AA?$CK?$AA_?$AA_?$AAc?$AAo?$AAu?$AAn@ 004d6450     libucrtd:report_runtime_error.obj
 0002:000114f0       ??_C@_0DI@KNDIGDEP@minkernel?2crts?2ucrt?2src?2appcrt?2s@ 004d64f0     libucrtd:argv_parsing.obj
 0002:00011538       ??_C@_1JO@PGBIJBAM@?$AAm?$AAo?$AAd?$AAe?$AA?5?$AA?$DN?$AA?$DN?$AA?5?$AA_?$AAc?$AAr?$AAt?$AA_?$AAa?$AAr?$AAg?$AAv?$AA_?$AAe?$AAx?$AAp?$AAa?$AAn?$AAd?$AAe?$AAd?$AA_?$AAa?$AAr?$AAg?$AAu?$AAm@ 004d6538     libucrtd:argv_parsing.obj
 0002:000115f8       ??_C@_1HA@JMLCANEE@?$AAm?$AAi?$AAn?$AAk?$AAe?$AAr?$AAn?$AAe?$AAl?$AA?2?$AAc?$AAr?$AAt?$AAs?$AA?2?$AAu?$AAc?$AAr?$AAt?$AA?2?$AAs?$AAr?$AAc?$AA?2?$AAa?$AAp?$AAp?$AAc?$AAr?$AAt?$AA?2?$AAs@ 004d65f8     libucrtd:argv_parsing.obj
 0002:00011680       ??_C@_1CM@LHOJELIC@?$AAc?$AAo?$AAm?$AAm?$AAo?$AAn?$AA_?$AAc?$AAo?$AAn?$AAf?$AAi?$AAg?$AAu?$AAr?$AAe?$AA_?$AAa?$AAr?$AAg?$AAv?$AA?$AA@ 004d6680     libucrtd:argv_parsing.obj
 0002:000116b8       ??_C@_0EG@LEHKHOEH@minkernel?2crts?2ucrt?2src?2desktopc@ 004d66b8     libucrtd:environment_initialization.obj
 0002:00011710       ??_C@_1IM@IMOFFPLG@?$AAm?$AAi?$AAn?$AAk?$AAe?$AAr?$AAn?$AAe?$AAl?$AA?2?$AAc?$AAr?$AAt?$AAs?$AA?2?$AAu?$AAc?$AAr?$AAt?$AA?2?$AAs?$AAr?$AAc?$AA?2?$AAd?$AAe?$AAs?$AAk?$AAt?$AAo?$AAp?$AAc@ 004d6710     libucrtd:environment_initialization.obj
 0002:000117b8       ??_C@_1CG@MNNNBNAK@?$AAc?$AAr?$AAe?$AAa?$AAt?$AAe?$AA_?$AAe?$AAn?$AAv?$AAi?$AAr?$AAo?$AAn?$AAm?$AAe?$AAn?$AAt?$AA?$AA@ 004d67b8     libucrtd:environment_initialization.obj
 0002:000117e8       ??_C@_1HI@OOPIFFGA@?$AAt?$AAr?$AAa?$AAi?$AAt?$AAs?$AA?3?$AA?3?$AAt?$AAc?$AAs?$AAc?$AAp?$AAy?$AA_?$AAs?$AA?$CI?$AAv?$AAa?$AAr?$AAi?$AAa?$AAb?$AAl?$AAe?$AA?4?$AAg?$AAe?$AAt?$AA?$CI?$AA?$CJ?$AA?0@ 004d67e8     libucrtd:environment_initialization.obj
 0002:00011878       _RtlNtPathSeperatorString  004d6878     libucrtd:exit.obj
 0002:00011884       ??_C@_13FPGAJAPJ@?$AA?2?$AA?$AA@ 004d6884     libucrtd:exit.obj
 0002:00011888       _RtlDosPathSeperatorsString 004d6888     libucrtd:exit.obj
 0002:00011894       ??_C@_15MNCACJLI@?$AA?2?$AA?1?$AA?$AA@ 004d6894     libucrtd:exit.obj
 0002:0001189c       _RtlAlternateDosPathSeperatorString 004d689c     libucrtd:exit.obj
 0002:000118a8       ??_C@_13CGOKJPIL@?$AA?1?$AA?$AA@ 004d68a8     libucrtd:exit.obj
 0002:000118ac       ??_C@_1BI@BGOHAHKC@?$AAm?$AAs?$AAc?$AAo?$AAr?$AAe?$AAe?$AA?4?$AAd?$AAl?$AAl?$AA?$AA@ 004d68ac     libucrtd:exit.obj
 0002:000118c8       ??_C@_0P@MIGLKIOC@CorExitProcess?$AA@ 004d68c8     libucrtd:exit.obj
 0002:000118e0       ??_C@_1MI@PNMMBOIN@?$AAm?$AAo?$AAd?$AAe?$AA?5?$AA?$DN?$AA?$DN?$AA?5?$AA_?$AAO?$AA_?$AAT?$AAE?$AAX?$AAT?$AA?5?$AA?$HM?$AA?$HM?$AA?5?$AAm?$AAo?$AAd?$AAe?$AA?5?$AA?$DN?$AA?$DN?$AA?5?$AA_?$AAO?$AA_?$AAB?$AAI@ 004d68e0     libucrtd:setmode.obj
 0002:000119d0       ??_C@_1GC@CIJNGKLD@?$AAm?$AAi?$AAn?$AAk?$AAe?$AAr?$AAn?$AAe?$AAl?$AA?2?$AAc?$AAr?$AAt?$AAs?$AA?2?$AAu?$AAc?$AAr?$AAt?$AA?2?$AAs?$AAr?$AAc?$AA?2?$AAa?$AAp?$AAp?$AAc?$AAr?$AAt?$AA?2?$AAl@ 004d69d0     libucrtd:setmode.obj
 0002:00011a48       ??_C@_1BC@JBGGJDCM@?$AA_?$AAs?$AAe?$AAt?$AAm?$AAo?$AAd?$AAe?$AA?$AA@ 004d6a48     libucrtd:setmode.obj
 0002:00011a60       ??_C@_1FO@LPCLHKGE@?$AA?$CI?$AAf?$AAh?$AA?5?$AA?$DO?$AA?$DN?$AA?5?$AA0?$AA?5?$AA?$CG?$AA?$CG?$AA?5?$AA?$CI?$AAu?$AAn?$AAs?$AAi?$AAg?$AAn?$AAe?$AAd?$AA?$CJ?$AAf?$AAh?$AA?5?$AA?$DM?$AA?5?$AA?$CI?$AAu?$AAn?$AAs?$AAi@ 004d6a60     libucrtd:setmode.obj
 0002:00011ad0       ??_C@_1CM@OKGMMMDH@?$AA?$CI?$AA_?$AAo?$AAs?$AAf?$AAi?$AAl?$AAe?$AA?$CI?$AAf?$AAh?$AA?$CJ?$AA?5?$AA?$CG?$AA?5?$AAF?$AAO?$AAP?$AAE?$AAN?$AA?$CJ?$AA?$AA@ 004d6ad0     libucrtd:setmode.obj
 0002:00011b08       ??_C@_1JE@ECKHFIFP@?$AA?$CI?$AA?$CC?$AAI?$AAn?$AAv?$AAa?$AAl?$AAi?$AAd?$AA?5?$AAf?$AAi?$AAl?$AAe?$AA?5?$AAd?$AAe?$AAs?$AAc?$AAr?$AAi?$AAp?$AAt?$AAo?$AAr?$AA?4?$AA?5?$AAF?$AAi?$AAl?$AAe?$AA?5@ 004d6b08     libucrtd:setmode.obj
 0002:00011bc0       ??_C@_1HC@GNDCDMJL@?$AAm?$AAo?$AAd?$AAe?$AA?5?$AA?$DN?$AA?$DN?$AA?5?$AA_?$AAO?$AA_?$AAT?$AAE?$AAX?$AAT?$AA?5?$AA?$HM?$AA?$HM?$AA?5?$AAm?$AAo?$AAd?$AAe?$AA?5?$AA?$DN?$AA?$DN?$AA?5?$AA_?$AAO?$AA_?$AAB?$AAI@ 004d6bc0     libucrtd:setmode.obj
 0002:00011c48       ??_C@_1BG@IEEHLOCL@?$AA_?$AAs?$AAe?$AAt?$AA_?$AAf?$AAm?$AAo?$AAd?$AAe?$AA?$AA@ 004d6c48     libucrtd:setmode.obj
 0002:00011c64       ??_C@_1CC@ODGEBJBO@?$AAp?$AAM?$AAo?$AAd?$AAe?$AA?5?$AA?$CB?$AA?$DN?$AA?5?$AAn?$AAu?$AAl?$AAl?$AAp?$AAt?$AAr?$AA?$AA@ 004d6c64     libucrtd:setmode.obj
 0002:00011c8c       ??_C@_1BG@CKGMPOFH@?$AA_?$AAg?$AAe?$AAt?$AA_?$AAf?$AAm?$AAo?$AAd?$AAe?$AA?$AA@ 004d6c8c     libucrtd:setmode.obj
 0002:00011ca8       ??_C@_1GK@EMNILMBI@?$AAm?$AAi?$AAn?$AAk?$AAe?$AAr?$AAn?$AAe?$AAl?$AA?2?$AAc?$AAr?$AAt?$AAs?$AA?2?$AAu?$AAc?$AAr?$AAt?$AA?2?$AAs?$AAr?$AAc?$AA?2?$AAa?$AAp?$AAp?$AAc?$AAr?$AAt?$AA?2?$AAs@ 004d6ca8     libucrtd:argv_data.obj
 0002:00011d28       ??_C@_1BK@PNLDCCDP@?$AA_?$AAg?$AAe?$AAt?$AA_?$AAw?$AAp?$AAg?$AAm?$AAp?$AAt?$AAr?$AA?$AA@ 004d6d28     libucrtd:argv_data.obj
 0002:00011d48       ??_C@_1CI@ENCADPBF@?$AA_?$AAw?$AAp?$AAg?$AAm?$AAp?$AAt?$AAr?$AA?5?$AA?$CB?$AA?$DN?$AA?5?$AAn?$AAu?$AAl?$AAl?$AAp?$AAt?$AAr?$AA?$AA@ 004d6d48     libucrtd:argv_data.obj
 0002:00011d78       ??_C@_1BI@COAAPHJK@?$AA_?$AAg?$AAe?$AAt?$AA_?$AAp?$AAg?$AAm?$AAp?$AAt?$AAr?$AA?$AA@ 004d6d78     libucrtd:argv_data.obj
 0002:00011d94       ??_C@_1CG@CKJHPBDG@?$AA_?$AAp?$AAg?$AAm?$AAp?$AAt?$AAr?$AA?5?$AA?$CB?$AA?$DN?$AA?5?$AAn?$AAu?$AAl?$AAl?$AAp?$AAt?$AAr?$AA?$AA@ 004d6d94     libucrtd:argv_data.obj
 0002:00011dc8       ___lc_category             004d6dc8     libucrtd:wsetlocale.obj
 0002:00011e20       ??_C@_1O@GIFLHMA@?$AAL?$AAC?$AA_?$AAA?$AAL?$AAL?$AA?$AA@ 004d6e20     libucrtd:wsetlocale.obj
 0002:00011e30       ??_C@_1BG@PPOMIBNJ@?$AAL?$AAC?$AA_?$AAC?$AAO?$AAL?$AAL?$AAA?$AAT?$AAE?$AA?$AA@ 004d6e30     libucrtd:wsetlocale.obj
 0002:00011e4c       ??_C@_1BC@FFJGAPJM@?$AAL?$AAC?$AA_?$AAC?$AAT?$AAY?$AAP?$AAE?$AA?$AA@ 004d6e4c     libucrtd:wsetlocale.obj
 0002:00011e64       ??_C@_1BI@PCKFNJFB@?$AAL?$AAC?$AA_?$AAM?$AAO?$AAN?$AAE?$AAT?$AAA?$AAR?$AAY?$AA?$AA@ 004d6e64     libucrtd:wsetlocale.obj
 0002:00011e80       ??_C@_1BG@ENIEDKID@?$AAL?$AAC?$AA_?$AAN?$AAU?$AAM?$AAE?$AAR?$AAI?$AAC?$AA?$AA@ 004d6e80     libucrtd:wsetlocale.obj
 0002:00011e9c       ??_C@_1BA@HAAOMIIG@?$AAL?$AAC?$AA_?$AAT?$AAI?$AAM?$AAE?$AA?$AA@ 004d6e9c     libucrtd:wsetlocale.obj
 0002:00011f48       ??_C@_1GA@LDEGDKD@?$AA?$CI?$AA?$CC?$AAI?$AAn?$AAv?$AAa?$AAl?$AAi?$AAd?$AA?5?$AAp?$AAa?$AAr?$AAa?$AAm?$AAe?$AAt?$AAe?$AAr?$AA?5?$AAf?$AAo?$AAr?$AA?5?$AA_?$AAc?$AAo?$AAn?$AAf?$AAi?$AAg?$AAt@ 004d6f48     libucrtd:wsetlocale.obj
 0002:00011fc0       ??_C@_1GK@DPKNLBIE@?$AAm?$AAi?$AAn?$AAk?$AAe?$AAr?$AAn?$AAe?$AAl?$AA?2?$AAc?$AAr?$AAt?$AAs?$AA?2?$AAu?$AAc?$AAr?$AAt?$AA?2?$AAs?$AAr?$AAc?$AA?2?$AAa?$AAp?$AAp?$AAc?$AAr?$AAt?$AA?2?$AAl@ 004d6fc0     libucrtd:wsetlocale.obj
 0002:00012040       ??_C@_1CI@FGIONOJM@?$AA_?$AAc?$AAo?$AAn?$AAf?$AAi?$AAg?$AAt?$AAh?$AAr?$AAe?$AAa?$AAd?$AAl?$AAo?$AAc?$AAa?$AAl?$AAe?$AA?$AA@ 004d7040     libucrtd:wsetlocale.obj
 0002:00012070       ??_C@_0DF@MKMHJGEJ@minkernel?2crts?2ucrt?2src?2appcrt?2l@ 004d7070     libucrtd:wsetlocale.obj
 0002:000120b0       ??_C@_1FG@OHLFEKMC@?$AAL?$AAC?$AA_?$AAM?$AAI?$AAN?$AA?5?$AA?$DM?$AA?$DN?$AA?5?$AA_?$AAc?$AAa?$AAt?$AAe?$AAg?$AAo?$AAr?$AAy?$AA?5?$AA?$CG?$AA?$CG?$AA?5?$AA_?$AAc?$AAa?$AAt?$AAe?$AAg?$AAo?$AAr?$AAy@ 004d70b0     libucrtd:wsetlocale.obj
 0002:00012118       ??_C@_1BI@KJNPAEHL@?$AA_?$AAw?$AAs?$AAe?$AAt?$AAl?$AAo?$AAc?$AAa?$AAl?$AAe?$AA?$AA@ 004d7118     libucrtd:wsetlocale.obj
 0002:00012134       ??_C@_15NBPDDFIP@?$AA?$DN?$AA?$DL?$AA?$AA@ 004d7134     libucrtd:wsetlocale.obj
 0002:0001213c       ??_C@_13PJJBFPED@?$AA?$DL?$AA?$AA@ 004d713c     libucrtd:wsetlocale.obj
 0002:00012140       ??_C@_1CG@DKJCBBPP@?$AA_?$AAw?$AAs?$AAe?$AAt?$AAl?$AAo?$AAc?$AAa?$AAl?$AAe?$AA_?$AAn?$AAo?$AAl?$AAo?$AAc?$AAk?$AA?$AA@ 004d7140     libucrtd:wsetlocale.obj
 0002:00012170       ??_C@_1IG@NGDCPCDE@?$AAw?$AAc?$AAs?$AAn?$AAc?$AAp?$AAy?$AA_?$AAs?$AA?$CI?$AAl?$AAc?$AAt?$AAe?$AAm?$AAp?$AA?0?$AA?5?$AA?$CI?$AAs?$AAi?$AAz?$AAe?$AAo?$AAf?$AA?$CI?$AA?$CK?$AA_?$AA_?$AAc?$AAo?$AAu@ 004d7170     libucrtd:wsetlocale.obj
 0002:00012210       ??_C@_1CI@ODOPEMNJ@?$AA_?$AAw?$AAs?$AAe?$AAt?$AAl?$AAo?$AAc?$AAa?$AAl?$AAe?$AA_?$AAs?$AAe?$AAt?$AA_?$AAc?$AAa?$AAt?$AA?$AA@ 004d7210     libucrtd:wsetlocale.obj
 0002:00012240       ??_C@_1EM@MHOCNIAA@?$AAw?$AAc?$AAs?$AAc?$AAp?$AAy?$AA_?$AAs?$AA?$CI?$AAp?$AAc?$AAh?$AA_?$AAc?$AAa?$AAt?$AA_?$AAl?$AAo?$AAc?$AAa?$AAl?$AAe?$AA?0?$AA?5?$AAc?$AAc?$AAh?$AA?0?$AA?5?$AAl?$AAc@ 004d7240     libucrtd:wsetlocale.obj
 0002:0001229c       ??_C@_13NMPKAAJP@?$AA?$DN?$AA?$AA@ 004d729c     libucrtd:wsetlocale.obj
 0002:000122a0       ??_C@_1CI@LKOPFFBD@?$AA_?$AAw?$AAs?$AAe?$AAt?$AAl?$AAo?$AAc?$AAa?$AAl?$AAe?$AA_?$AAg?$AAe?$AAt?$AA_?$AAa?$AAl?$AAl?$AA?$AA@ 004d72a0     libucrtd:wsetlocale.obj
 0002:000122d0       ??_C@_1DC@HMLJMODP@?$AAw?$AAc?$AAs?$AAc?$AAa?$AAt?$AA_?$AAs?$AA?$CI?$AAp?$AAc?$AAh?$AA?0?$AA?5?$AAc?$AAc?$AAh?$AA?0?$AA?5?$AAL?$AA?$CC?$AA?$DL?$AA?$CC?$AA?$CJ?$AA?$AA@ 004d72d0     libucrtd:wsetlocale.obj
 0002:0001230c       ??_C@_1BM@OIIBLEFG@?$AA_?$AAe?$AAx?$AAp?$AAa?$AAn?$AAd?$AAl?$AAo?$AAc?$AAa?$AAl?$AAe?$AA?$AA@ 004d730c     libucrtd:wsetlocale.obj
 0002:00012330       ??_C@_1BCM@BOFLACKH@?$AAw?$AAc?$AAs?$AAn?$AAc?$AAp?$AAy?$AA_?$AAs?$AA?$CI?$AAl?$AAo?$AAc?$AAa?$AAl?$AAe?$AAN?$AAa?$AAm?$AAe?$AAO?$AAu?$AAt?$AAp?$AAu?$AAt?$AA?0?$AA?5?$AAl?$AAo?$AAc?$AAa@ 004d7330     libucrtd:wsetlocale.obj
 0002:00012498       ??_C@_1EI@OCINLCHN@?$AAw?$AAc?$AAs?$AAc?$AAp?$AAy?$AA_?$AAs?$AA?$CI?$AAo?$AAu?$AAt?$AAp?$AAu?$AAt?$AA?0?$AA?5?$AAs?$AAi?$AAz?$AAe?$AAI?$AAn?$AAC?$AAh?$AAa?$AAr?$AAs?$AA?0?$AA?5?$AAL?$AA?$CC@ 004d7498     libucrtd:wsetlocale.obj
 0002:000124f0       ??_C@_13FHBKNHDA@?$AAC?$AA?$AA@ 004d74f0     libucrtd:wsetlocale.obj
 0002:000124f8       ??_C@_1MO@NNCNEOAP@?$AAw?$AAc?$AAs?$AAn?$AAc?$AAp?$AAy?$AA_?$AAs?$AA?$CI?$AAl?$AAo?$AAc?$AAa?$AAl?$AAe?$AAN?$AAa?$AAm?$AAe?$AAO?$AAu?$AAt?$AAp?$AAu?$AAt?$AA?0?$AA?5?$AAl?$AAo?$AAc?$AAa@ 004d74f8     libucrtd:wsetlocale.obj
 0002:000125f0       ??_C@_1IG@MKDIEKFD@?$AAw?$AAc?$AAs?$AAn?$AAc?$AAp?$AAy?$AA_?$AAs?$AA?$CI?$AAc?$AAa?$AAc?$AAh?$AAe?$AAo?$AAu?$AAt?$AA?0?$AA?5?$AAc?$AAa?$AAc?$AAh?$AAe?$AAo?$AAu?$AAt?$AAL?$AAe?$AAn?$AA?0@ 004d75f0     libucrtd:wsetlocale.obj
 0002:00012690       ??_C@_1KK@KMIFPBBC@?$AAw?$AAc?$AAs?$AAn?$AAc?$AAp?$AAy?$AA_?$AAs?$AA?$CI?$AAl?$AAo?$AAc?$AAa?$AAl?$AAe?$AAN?$AAa?$AAm?$AAe?$AAO?$AAu?$AAt?$AAp?$AAu?$AAt?$AA?0?$AA?5?$AAl?$AAo?$AAc?$AAa@ 004d7690     libucrtd:wsetlocale.obj
 0002:00012760       ??_C@_1BBO@MGLBPLBP@?$AAw?$AAc?$AAs?$AAn?$AAc?$AAp?$AAy?$AA_?$AAs?$AA?$CI?$AA_?$AAp?$AAs?$AAe?$AAt?$AAl?$AAo?$AAc?$AA_?$AAd?$AAa?$AAt?$AAa?$AA?9?$AA?$DO?$AA_?$AAc?$AAa?$AAc?$AAh?$AAe?$AAL@ 004d7760     libucrtd:wsetlocale.obj
 0002:000128b8       ??_C@_1BDK@DHHMOMPJ@?$AAw?$AAc?$AAs?$AAn?$AAc?$AAp?$AAy?$AA_?$AAs?$AA?$CI?$AA_?$AAp?$AAs?$AAe?$AAt?$AAl?$AAo?$AAc?$AA_?$AAd?$AAa?$AAt?$AAa?$AA?9?$AA?$DO?$AA_?$AAc?$AAa?$AAc?$AAh?$AAe?$AAL@ 004d78b8     libucrtd:wsetlocale.obj
 0002:00012a30       ??_C@_1IC@FCCDBGLL@?$AAw?$AAc?$AAs?$AAn?$AAc?$AAp?$AAy?$AA_?$AAs?$AA?$CI?$AAc?$AAa?$AAc?$AAh?$AAe?$AAi?$AAn?$AA?0?$AA?5?$AAc?$AAa?$AAc?$AAh?$AAe?$AAi?$AAn?$AAL?$AAe?$AAn?$AA?0?$AA?5?$AAe@ 004d7a30     libucrtd:wsetlocale.obj
 0002:00012ad0       ??_C@_1FA@HOOAAHFF@?$AAw?$AAc?$AAs?$AAc?$AAp?$AAy?$AA_?$AAs?$AA?$CI?$AAo?$AAu?$AAt?$AAp?$AAu?$AAt?$AA?0?$AA?5?$AAs?$AAi?$AAz?$AAe?$AAI?$AAn?$AAC?$AAh?$AAa?$AAr?$AAs?$AA?0?$AA?5?$AAc?$AAa@ 004d7ad0     libucrtd:wsetlocale.obj
 0002:00012b30       ??_C@_1BC@LEOKFFML@?$AA_?$AAw?$AAc?$AAs?$AAc?$AAa?$AAt?$AAs?$AA?$AA@ 004d7b30     libucrtd:wsetlocale.obj
 0002:00012b48       ??_C@_1BHK@BGMBCJOP@?$AAw?$AAc?$AAs?$AAc?$AAa?$AAt?$AA_?$AAs?$AA?$CI?$AAo?$AAu?$AAt?$AAs?$AAt?$AAr?$AA?0?$AA?5?$AAn?$AAu?$AAm?$AAb?$AAe?$AAr?$AAO?$AAf?$AAE?$AAl?$AAe?$AAm?$AAe?$AAn?$AAt@ 004d7b48     libucrtd:wsetlocale.obj
 0002:00012d10       ??_C@_1BK@GNCHCGCN@?$AA_?$AA_?$AAl?$AAc?$AA_?$AAw?$AAc?$AAs?$AAt?$AAo?$AAl?$AAc?$AA?$AA@ 004d7d10     libucrtd:wsetlocale.obj
 0002:00012d30       ??_C@_1MI@MGHKCMFH@?$AAw?$AAc?$AAs?$AAn?$AAc?$AAp?$AAy?$AA_?$AAs?$AA?$CI?$AAn?$AAa?$AAm?$AAe?$AAs?$AA?9?$AA?$DO?$AAs?$AAz?$AAC?$AAo?$AAd?$AAe?$AAP?$AAa?$AAg?$AAe?$AA?0?$AA?5?$AA?$CI?$AAs?$AAi@ 004d7d30     libucrtd:wsetlocale.obj
 0002:00012e20       ??_C@_17MBJJLFDM@?$AA_?$AA?4?$AA?0?$AA?$AA@ 004d7e20     libucrtd:wsetlocale.obj
 0002:00012e30       ??_C@_1LO@GGCCDNLJ@?$AAw?$AAc?$AAs?$AAn?$AAc?$AAp?$AAy?$AA_?$AAs?$AA?$CI?$AAn?$AAa?$AAm?$AAe?$AAs?$AA?9?$AA?$DO?$AAs?$AAz?$AAL?$AAa?$AAn?$AAg?$AAu?$AAa?$AAg?$AAe?$AA?0?$AA?5?$AA?$CI?$AAs?$AAi@ 004d7e30     libucrtd:wsetlocale.obj
 0002:00012f18       ??_C@_1LK@JOIOCOID@?$AAw?$AAc?$AAs?$AAn?$AAc?$AAp?$AAy?$AA_?$AAs?$AA?$CI?$AAn?$AAa?$AAm?$AAe?$AAs?$AA?9?$AA?$DO?$AAs?$AAz?$AAC?$AAo?$AAu?$AAn?$AAt?$AAr?$AAy?$AA?0?$AA?5?$AA?$CI?$AAs?$AAi?$AAz@ 004d7f18     libucrtd:wsetlocale.obj
 0002:00012ff8       ??_C@_1LO@OJICFEP@?$AAw?$AAc?$AAs?$AAn?$AAc?$AAp?$AAy?$AA_?$AAs?$AA?$CI?$AAn?$AAa?$AAm?$AAe?$AAs?$AA?9?$AA?$DO?$AAs?$AAz?$AAC?$AAo?$AAd?$AAe?$AAP?$AAa?$AAg?$AAe?$AA?0?$AA?5?$AA?$CI?$AAs?$AAi@ 004d7ff8     libucrtd:wsetlocale.obj
 0002:000130dc       ??_C@_1BK@HEBMGPEK@?$AA_?$AA_?$AAl?$AAc?$AA_?$AAl?$AAc?$AAt?$AAo?$AAw?$AAc?$AAs?$AA?$AA@ 004d80dc     libucrtd:wsetlocale.obj
 0002:00013100       ??_C@_1GM@FOFMGOEK@?$AAw?$AAc?$AAs?$AAc?$AAp?$AAy?$AA_?$AAs?$AA?$CI?$AAl?$AAo?$AAc?$AAa?$AAl?$AAe?$AA?0?$AA?5?$AAn?$AAu?$AAm?$AAb?$AAe?$AAr?$AAO?$AAf?$AAE?$AAl?$AAe?$AAm?$AAe?$AAn?$AAt@ 004d8100     libucrtd:wsetlocale.obj
 0002:00013184       ??_C@_13ENNFDPBH@?$AA_?$AA?$AA@ 004d8184     libucrtd:wsetlocale.obj
 0002:00013188       ??_C@_13JOFGPIOO@?$AA?4?$AA?$AA@ 004d8188     libucrtd:wsetlocale.obj
 0002:0001318c       ??_C@_1DA@BBIOOKDN@?$AA_?$AA_?$AAa?$AAc?$AAr?$AAt?$AA_?$AAc?$AAo?$AAp?$AAy?$AA_?$AAl?$AAo?$AAc?$AAa?$AAl?$AAe?$AA_?$AAn?$AAa?$AAm?$AAe?$AA?$AA@ 004d818c     libucrtd:wsetlocale.obj
 0002:000131c8       ??_C@_1GI@HBNMCKGD@?$AAw?$AAc?$AAs?$AAn?$AAc?$AAp?$AAy?$AA_?$AAs?$AA?$CI?$AAl?$AAo?$AAc?$AAa?$AAl?$AAe?$AAN?$AAa?$AAm?$AAe?$AAC?$AAo?$AAp?$AAy?$AA?0?$AA?5?$AAc?$AAc?$AAh?$AA?$CL?$AA1?$AA?0@ 004d81c8     libucrtd:wsetlocale.obj
 0002:00013244       ??_C@_1CO@JKFLNGDK@?$AAm?$AAo?$AAd?$AAe?$AA?5?$AA?$DN?$AA?$DN?$AA?5?$AA0?$AA?5?$AA?$HM?$AA?$HM?$AA?5?$AAm?$AAo?$AAd?$AAe?$AA?5?$AA?$DN?$AA?$DN?$AA?5?$AA1?$AA?$AA@ 004d8244     libucrtd:new_mode.obj
 0002:00013280       ??_C@_1GC@PJMKBHEK@?$AAm?$AAi?$AAn?$AAk?$AAe?$AAr?$AAn?$AAe?$AAl?$AA?2?$AAc?$AAr?$AAt?$AAs?$AA?2?$AAu?$AAc?$AAr?$AAt?$AA?2?$AAs?$AAr?$AAc?$AA?2?$AAa?$AAp?$AAp?$AAc?$AAr?$AAt?$AA?2?$AAh@ 004d8280     libucrtd:new_mode.obj
 0002:000132f8       ??_C@_1BM@PDPAKJNF@?$AA_?$AAs?$AAe?$AAt?$AA_?$AAn?$AAe?$AAw?$AA_?$AAm?$AAo?$AAd?$AAe?$AA?$AA@ 004d82f8     libucrtd:new_mode.obj
 0002:00013438       ??_C@_03KHJOGHMM@exp?$AA@  004d8438     libucrtd:fpexcept.obj
 0002:0001343c       ??_C@_03JGHBODFD@pow?$AA@  004d843c     libucrtd:fpexcept.obj
 0002:00013440       ??_C@_03MGHMBJCF@log?$AA@  004d8440     libucrtd:fpexcept.obj
 0002:00013444       ??_C@_05HGHHAHAP@log10?$AA@ 004d8444     libucrtd:fpexcept.obj
 0002:0001344c       ??_C@_04COOMCNPB@sinh?$AA@ 004d844c     libucrtd:fpexcept.obj
 0002:00013454       ??_C@_04HPJJNFIM@cosh?$AA@ 004d8454     libucrtd:fpexcept.obj
 0002:0001345c       ??_C@_04FJHINJAO@tanh?$AA@ 004d845c     libucrtd:fpexcept.obj
 0002:00013464       ??_C@_04FIHNOPOL@asin?$AA@ 004d8464     libucrtd:fpexcept.obj
 0002:0001346c       ??_C@_04PDIFKINK@acos?$AA@ 004d846c     libucrtd:fpexcept.obj
 0002:00013474       ??_C@_04MLLJIGOK@atan?$AA@ 004d8474     libucrtd:fpexcept.obj
 0002:0001347c       ??_C@_05KNGEOGJB@atan2?$AA@ 004d847c     libucrtd:fpexcept.obj
 0002:00013484       ??_C@_04EIAKFFMI@sqrt?$AA@ 004d8484     libucrtd:fpexcept.obj
 0002:0001348c       ??_C@_03BLEJJJBH@sin?$AA@  004d848c     libucrtd:fpexcept.obj
 0002:00013490       ??_C@_03LALBNOCG@cos?$AA@  004d8490     libucrtd:fpexcept.obj
 0002:00013494       ??_C@_03IIINPABG@tan?$AA@  004d8494     libucrtd:fpexcept.obj
 0002:00013498       ??_C@_04GFPJNGEK@ceil?$AA@ 004d8498     libucrtd:fpexcept.obj
 0002:000134a0       ??_C@_05PBJFFIGL@floor?$AA@ 004d84a0     libucrtd:fpexcept.obj
 0002:000134a8       ??_C@_04ODHECPBC@fabs?$AA@ 004d84a8     libucrtd:fpexcept.obj
 0002:000134b0       ??_C@_04EHEDPDJG@modf?$AA@ 004d84b0     libucrtd:fpexcept.obj
 0002:000134b8       ??_C@_05CEJMAHNP@ldexp?$AA@ 004d84b8     libucrtd:fpexcept.obj
 0002:000134c0       ??_C@_05KBKMEMPO@_cabs?$AA@ 004d84c0     libucrtd:fpexcept.obj
 0002:000134c8       ??_C@_06MEIMCGCF@_hypot?$AA@ 004d84c8     libucrtd:fpexcept.obj
 0002:000134d0       ??_C@_04KEPJIHGP@fmod?$AA@ 004d84d0     libucrtd:fpexcept.obj
 0002:000134d8       ??_C@_05GKKHEGJL@frexp?$AA@ 004d84d8     libucrtd:fpexcept.obj
 0002:000134e0       ??_C@_03MJLDFKDL@_y0?$AA@  004d84e0     libucrtd:fpexcept.obj
 0002:000134e4       ??_C@_03NAKIGLHK@_y1?$AA@  004d84e4     libucrtd:fpexcept.obj
 0002:000134e8       ??_C@_03ONILCKOB@_yn?$AA@  004d84e8     libucrtd:fpexcept.obj
 0002:000134ec       ??_C@_05JGDBENOH@_logb?$AA@ 004d84ec     libucrtd:fpexcept.obj
 0002:000134f4       ??_C@_0L@KDOEJCKC@_nextafter?$AA@ 004d84f4     libucrtd:fpexcept.obj
 0002:00013504       ??_C@_0DC@NBHMIIKL@minkernel?2crts?2ucrt?2src?2appcrt?2s@ 004d8504     libucrtd:onexit.obj
 0002:000135d0       ??_C@_1DG@JNDMIEJL@?$AA?$CI?$AA?$CC?$AAI?$AAn?$AAv?$AAa?$AAl?$AAi?$AAd?$AA?5?$AAi?$AAn?$AAp?$AAu?$AAt?$AA?5?$AAv?$AAa?$AAl?$AAu?$AAe?$AA?$CC?$AA?0?$AA?5?$AA0?$AA?$CJ?$AA?$AA@ 004d85d0     libucrtd:contrlfp.obj
 0002:00013610       ??_C@_1FO@HHLKCIKB@?$AAm?$AAi?$AAn?$AAk?$AAe?$AAr?$AAn?$AAe?$AAl?$AA?2?$AAc?$AAr?$AAt?$AAs?$AA?2?$AAu?$AAc?$AAr?$AAt?$AA?2?$AAs?$AAr?$AAc?$AA?2?$AAa?$AAp?$AAp?$AAc?$AAr?$AAt?$AA?2?$AAt@ 004d8610     libucrtd:contrlfp.obj
 0002:00013680       ??_C@_1BK@CDOALEA@?$AA_?$AAc?$AAo?$AAn?$AAt?$AAr?$AAo?$AAl?$AAf?$AAp?$AA_?$AAs?$AA?$AA@ 004d8680     libucrtd:contrlfp.obj
 0002:000136b8       ??_C@_04HJMOFLDF@Free?$AA@ 004d86b8     libucrtd:debug_heap.obj
 0002:000136c0       ??_C@_06EFAGIKOH@Normal?$AA@ 004d86c0     libucrtd:debug_heap.obj
 0002:000136c8       ??_C@_03OGPFLFLO@CRT?$AA@  004d86c8     libucrtd:debug_heap.obj
 0002:000136cc       ??_C@_06KMEJCCGM@Ignore?$AA@ 004d86cc     libucrtd:debug_heap.obj
 0002:000136d4       ??_C@_06PJIGMIJB@Client?$AA@ 004d86d4     libucrtd:debug_heap.obj
 0002:000136dc       ??_C@_1CE@LJFEPPMP@?$AA_?$AAC?$AAr?$AAt?$AAC?$AAh?$AAe?$AAc?$AAk?$AAM?$AAe?$AAm?$AAo?$AAr?$AAy?$AA?$CI?$AA?$CJ?$AA?$AA@ 004d86dc     libucrtd:debug_heap.obj
 0002:00013708       ??_C@_1GG@OCLHPJPK@?$AAm?$AAi?$AAn?$AAk?$AAe?$AAr?$AAn?$AAe?$AAl?$AA?2?$AAc?$AAr?$AAt?$AAs?$AA?2?$AAu?$AAc?$AAr?$AAt?$AA?2?$AAs?$AAr?$AAc?$AA?2?$AAa?$AAp?$AAp?$AAc?$AAr?$AAt?$AA?2?$AAh@ 004d8708     libucrtd:debug_heap.obj
 0002:00013784       ??_C@_0DF@BBEGIFEK@Client?5hook?5allocation?5failure?5a@ 004d8784     libucrtd:debug_heap.obj
 0002:000137c4       ??_C@_0CB@CCLOLAHO@Client?5hook?5allocation?5failure?4?6@ 004d87c4     libucrtd:debug_heap.obj
 0002:000137ec       ??_C@_02DKCKIIND@?$CFs?$AA@ 004d87ec     libucrtd:debug_heap.obj
 0002:000137f0       ??_C@_0DC@JEMAGEKG@Error?3?5memory?5allocation?3?5bad?5me@ 004d87f0     libucrtd:debug_heap.obj
 0002:0001382c       ??_C@_0DI@KKJPDPGM@Client?5hook?5re?9allocation?5failur@ 004d882c     libucrtd:debug_heap.obj
 0002:00013870       ??_C@_0CE@DOFMDOL@Client?5hook?5re?9allocation?5failur@ 004d8870     libucrtd:debug_heap.obj
 0002:000138a0       ??_C@_0FA@EFEIGJKG@Error?3?5memory?5allocation?3?5bad?5me@ 004d88a0     libucrtd:debug_heap.obj
 0002:00013900       ??_C@_0EM@LGFLMAGJ@The?5Block?5at?50x?$CFp?5was?5allocated?5@ 004d8900     libucrtd:debug_heap.obj
 0002:0001395c       ??_C@_1DM@DEDLGNML@?$AA_?$AAC?$AAr?$AAt?$AAI?$AAs?$AAV?$AAa?$AAl?$AAi?$AAd?$AAH?$AAe?$AAa?$AAp?$AAP?$AAo?$AAi?$AAn?$AAt?$AAe?$AAr?$AA?$CI?$AAb?$AAl?$AAo?$AAc?$AAk?$AA?$CJ?$AA?$AA@ 004d895c     libucrtd:debug_heap.obj
 0002:000139a8       ??_C@_1PC@MCGKJLN@?$AAo?$AAl?$AAd?$AA_?$AAh?$AAe?$AAa?$AAd?$AA?9?$AA?$DO?$AA_?$AAl?$AAi?$AAn?$AAe?$AA_?$AAn?$AAu?$AAm?$AAb?$AAe?$AAr?$AA?5?$AA?$DN?$AA?$DN?$AA?5?$AAl?$AAi?$AAn?$AAe?$AA_?$AAn@ 004d89a8     libucrtd:debug_heap.obj
 0002:00013acc       ??_C@_0DA@HFBKENN@Error?3?5possible?5heap?5corruption?5@ 004d8acc     libucrtd:debug_heap.obj
 0002:00013b08       ??_C@_1JM@MCMEPJEP@?$AAr?$AAe?$AAa?$AAl?$AAl?$AAo?$AAc?$AAa?$AAt?$AAi?$AAo?$AAn?$AA_?$AAi?$AAs?$AA_?$AAa?$AAl?$AAl?$AAo?$AAw?$AAe?$AAd?$AA?5?$AA?$HM?$AA?$HM?$AA?5?$AA?$CI?$AA?$CB?$AAr?$AAe?$AAa@ 004d8b08     libucrtd:debug_heap.obj
 0002:00013bc4       ??_C@_1DM@LNOPKAIJ@?$AA_?$AA_?$AAa?$AAc?$AAr?$AAt?$AA_?$AAl?$AAa?$AAs?$AAt?$AA_?$AAb?$AAl?$AAo?$AAc?$AAk?$AA?5?$AA?$DN?$AA?$DN?$AA?5?$AAo?$AAl?$AAd?$AA_?$AAh?$AAe?$AAa?$AAd?$AA?$AA@ 004d8bc4     libucrtd:debug_heap.obj
 0002:00013c0c       ??_C@_1DO@HABCJBHO@?$AA_?$AA_?$AAa?$AAc?$AAr?$AAt?$AA_?$AAf?$AAi?$AAr?$AAs?$AAt?$AA_?$AAb?$AAl?$AAo?$AAc?$AAk?$AA?5?$AA?$DN?$AA?$DN?$AA?5?$AAo?$AAl?$AAd?$AA_?$AAh?$AAe?$AAa?$AAd?$AA?$AA@ 004d8c0c     libucrtd:debug_heap.obj
 0002:00013c58       ??_C@_1CC@CKEAHJPH@?$AAb?$AAl?$AAo?$AAc?$AAk?$AA?5?$AA?$CB?$AA?$DN?$AA?5?$AAn?$AAu?$AAl?$AAl?$AAp?$AAt?$AAr?$AA?$AA@ 004d8c58     libucrtd:debug_heap.obj
 0002:00013c80       ??_C@_1BI@HAPNGHDP@?$AA_?$AAe?$AAx?$AAp?$AAa?$AAn?$AAd?$AA_?$AAd?$AAb?$AAg?$AA?$AA@ 004d8c80     libucrtd:debug_heap.obj
 0002:00013ca0       ??_C@_0EJ@HEIBCIMJ@The?5Block?5at?50x?$CFp?5was?5allocated?5@ 004d8ca0     libucrtd:debug_heap.obj
 0002:00013cf8       ??_C@_0BL@KEIPLFAC@Client?5hook?5free?5failure?4?6?$AA@ 004d8cf8     libucrtd:debug_heap.obj
 0002:00013d18       ??_C@_1FA@KDNEBILF@?$AAi?$AAs?$AA_?$AAb?$AAl?$AAo?$AAc?$AAk?$AA_?$AAt?$AAy?$AAp?$AAe?$AA_?$AAv?$AAa?$AAl?$AAi?$AAd?$AA?$CI?$AAh?$AAe?$AAa?$AAd?$AAe?$AAr?$AA?9?$AA?$DO?$AA_?$AAb?$AAl?$AAo@ 004d8d18     libucrtd:debug_heap.obj
 0002:00013d78       ??_C@_0KI@JGFOHMEB@HEAP?5CORRUPTION?5DETECTED?3?5before@ 004d8d78     libucrtd:debug_heap.obj
 0002:00013e48       ??_C@_0IK@PJCGLBOB@HEAP?5CORRUPTION?5DETECTED?3?5before@ 004d8e48     libucrtd:debug_heap.obj
 0002:00013ef0       ??_C@_0KE@MBMNHHHN@HEAP?5CORRUPTION?5DETECTED?3?5after?5@ 004d8ef0     libucrtd:debug_heap.obj
 0002:00013fb8       ??_C@_0IG@LEMBDCJK@HEAP?5CORRUPTION?5DETECTED?3?5after?5@ 004d8fb8     libucrtd:debug_heap.obj
 0002:00014058       ??_C@_1OK@GFEOEJAF@?$AAh?$AAe?$AAa?$AAd?$AAe?$AAr?$AA?9?$AA?$DO?$AA_?$AAl?$AAi?$AAn?$AAe?$AA_?$AAn?$AAu?$AAm?$AAb?$AAe?$AAr?$AA?5?$AA?$DN?$AA?$DN?$AA?5?$AAl?$AAi?$AAn?$AAe?$AA_?$AAn?$AAu?$AAm@ 004d9058     libucrtd:debug_heap.obj
 0002:00014170       ??_C@_1ME@GFALMLNA@?$AAh?$AAe?$AAa?$AAd?$AAe?$AAr?$AA?9?$AA?$DO?$AA_?$AAb?$AAl?$AAo?$AAc?$AAk?$AA_?$AAu?$AAs?$AAe?$AA?5?$AA?$DN?$AA?$DN?$AA?5?$AAb?$AAl?$AAo?$AAc?$AAk?$AA_?$AAu?$AAs?$AAe?$AA?5@ 004d9170     libucrtd:debug_heap.obj
 0002:0001425c       ??_C@_1DI@ILNOPEPI@?$AA_?$AA_?$AAa?$AAc?$AAr?$AAt?$AA_?$AAl?$AAa?$AAs?$AAt?$AA_?$AAb?$AAl?$AAo?$AAc?$AAk?$AA?5?$AA?$DN?$AA?$DN?$AA?5?$AAh?$AAe?$AAa?$AAd?$AAe?$AAr?$AA?$AA@ 004d925c     libucrtd:debug_heap.obj
 0002:000142a0       ??_C@_1DK@KEHFGDIJ@?$AA_?$AA_?$AAa?$AAc?$AAr?$AAt?$AA_?$AAf?$AAi?$AAr?$AAs?$AAt?$AA_?$AAb?$AAl?$AAo?$AAc?$AAk?$AA?5?$AA?$DN?$AA?$DN?$AA?5?$AAh?$AAe?$AAa?$AAd?$AAe?$AAr?$AA?$AA@ 004d92a0     libucrtd:debug_heap.obj
 0002:000142e8       ??_C@_1BG@MBKOGDLD@?$AA_?$AAm?$AAs?$AAi?$AAz?$AAe?$AA_?$AAd?$AAb?$AAg?$AA?$AA@ 004d92e8     libucrtd:debug_heap.obj
 0002:00014304       ??_C@_07OHKEFPKJ@DAMAGED?$AA@ 004d9304     libucrtd:debug_heap.obj
 0002:00014310       ??_C@_0KA@IHNJJKPL@HEAP?5CORRUPTION?5DETECTED?3?5on?5top@ 004d9310     libucrtd:debug_heap.obj
 0002:000143d0       ??_C@_0IC@BBJIOOJH@HEAP?5CORRUPTION?5DETECTED?3?5on?5top@ 004d93d0     libucrtd:debug_heap.obj
 0002:00014470       ??_C@_0EG@DGJMPDBH@?$CFhs?5located?5at?50x?$CFp?5is?5?$CFIu?5bytes@ 004d9470     libucrtd:debug_heap.obj
 0002:000144c4       ??_C@_0CI@JMLBEDHJ@?$CFhs?5located?5at?50x?$CFp?5is?5?$CFIu?5bytes@ 004d94c4     libucrtd:debug_heap.obj
 0002:000144f8       ??_C@_0EG@GPFHANHO@Cycle?5in?5block?5list?5detected?5whi@ 004d94f8     libucrtd:debug_heap.obj
 0002:0001454c       ??_C@_0BJ@ELMAOCAJ@Heap?5validation?5failed?4?6?$AA@ 004d954c     libucrtd:debug_heap.obj
 0002:00014570       ??_C@_1IE@BBIFDGEB@?$AAn?$AAe?$AAw?$AA_?$AAb?$AAi?$AAt?$AAs?$AA?5?$AA?$DN?$AA?$DN?$AA?5?$AA_?$AAC?$AAR?$AAT?$AAD?$AAB?$AAG?$AA_?$AAR?$AAE?$AAP?$AAO?$AAR?$AAT?$AA_?$AAF?$AAL?$AAA?$AAG?$AA?5@ 004d9570     libucrtd:debug_heap.obj
 0002:00014610       ??_C@_1BO@GJFDNMNF@?$AA_?$AAC?$AAr?$AAt?$AAS?$AAe?$AAt?$AAD?$AAb?$AAg?$AAF?$AAl?$AAa?$AAg?$AA?$AA@ 004d9610     libucrtd:debug_heap.obj
 0002:00014634       ??_C@_1CI@CEIBPAIA@?$AAc?$AAa?$AAl?$AAl?$AAb?$AAa?$AAc?$AAk?$AA?5?$AA?$CB?$AA?$DN?$AA?5?$AAn?$AAu?$AAl?$AAl?$AAp?$AAt?$AAr?$AA?$AA@ 004d9634     libucrtd:debug_heap.obj
 0002:00014664       ??_C@_1DE@GJCKCKEC@?$AA_?$AAC?$AAr?$AAt?$AAD?$AAo?$AAF?$AAo?$AAr?$AAA?$AAl?$AAl?$AAC?$AAl?$AAi?$AAe?$AAn?$AAt?$AAO?$AAb?$AAj?$AAe?$AAc?$AAt?$AAs?$AA?$AA@ 004d9664     libucrtd:debug_heap.obj
 0002:000146a4       ??_C@_1CC@BBKMONGA@?$AAs?$AAt?$AAa?$AAt?$AAe?$AA?5?$AA?$CB?$AA?$DN?$AA?5?$AAn?$AAu?$AAl?$AAl?$AAp?$AAt?$AAr?$AA?$AA@ 004d96a4     libucrtd:debug_heap.obj
 0002:000146cc       ??_C@_1CE@NJJKELF@?$AA_?$AAC?$AAr?$AAt?$AAM?$AAe?$AAm?$AAC?$AAh?$AAe?$AAc?$AAk?$AAp?$AAo?$AAi?$AAn?$AAt?$AA?$AA@ 004d96cc     libucrtd:debug_heap.obj
 0002:000146f8       ??_C@_0DP@LEFMFBOD@Bad?5memory?5block?5found?5at?50x?$CFp?4?6@ 004d96f8     libucrtd:debug_heap.obj
 0002:00014744       ??_C@_0CB@EAAIGELO@Bad?5memory?5block?5found?5at?50x?$CFp?4?6@ 004d9744     libucrtd:debug_heap.obj
 0002:0001476c       ??_C@_1CE@PDIENACM@?$AA_?$AAC?$AAr?$AAt?$AAM?$AAe?$AAm?$AAD?$AAi?$AAf?$AAf?$AAe?$AAr?$AAe?$AAn?$AAc?$AAe?$AA?$AA@ 004d976c     libucrtd:debug_heap.obj
 0002:00014798       ??_C@_1CK@FFKLBHMD@?$AAo?$AAl?$AAd?$AA_?$AAs?$AAt?$AAa?$AAt?$AAe?$AA?5?$AA?$CB?$AA?$DN?$AA?5?$AAn?$AAu?$AAl?$AAl?$AAp?$AAt?$AAr?$AA?$AA@ 004d9798     libucrtd:debug_heap.obj
 0002:000147cc       ??_C@_1CK@NJPPHDJP@?$AAn?$AAe?$AAw?$AA_?$AAs?$AAt?$AAa?$AAt?$AAe?$AA?5?$AA?$CB?$AA?$DN?$AA?5?$AAn?$AAu?$AAl?$AAl?$AAp?$AAt?$AAr?$AA?$AA@ 004d97cc     libucrtd:debug_heap.obj
 0002:00014800       ??_C@_05MKKEDADM@?$CF?42X?5?$AA@ 004d9800     libucrtd:debug_heap.obj
 0002:00014808       ??_C@_1CC@DIJAHFFJ@?$AAp?$AAr?$AAi?$AAn?$AAt?$AA_?$AAb?$AAl?$AAo?$AAc?$AAk?$AA_?$AAd?$AAa?$AAt?$AAa?$AA?$AA@ 004d9808     libucrtd:debug_heap.obj
 0002:00014830       ??_C@_1BI@KALLJECN@?$AA?$CI?$AA?$CK?$AA_?$AAe?$AAr?$AAr?$AAn?$AAo?$AA?$CI?$AA?$CJ?$AA?$CJ?$AA?$AA@ 004d9830     libucrtd:debug_heap.obj
 0002:0001484c       ??_C@_0BA@HJBKCELP@?5Data?3?5?$DM?$CFs?$DO?5?$CFs?6?$AA@ 004d984c     libucrtd:debug_heap.obj
 0002:00014860       ??_C@_0BE@KCIPKCIA@Dumping?5objects?5?9?$DO?6?$AA@ 004d9860     libucrtd:debug_heap.obj
 0002:00014878       ??_C@_0BE@OIEFNFL@?$CDFile?5Error?$CD?$CI?$CFd?$CJ?5?3?5?$AA@ 004d9878     libucrtd:debug_heap.obj
 0002:00014890       ??_C@_0L@JMEFFCCJ@?$CFhs?$CI?$CFd?$CJ?5?3?5?$AA@ 004d9890     libucrtd:debug_heap.obj
 0002:000148a0       ??_C@_06PKLGBFGM@?$HL?$CFld?$HN?5?$AA@ 004d98a0     libucrtd:debug_heap.obj
 0002:000148a8       ??_C@_0DD@GHNAAKBB@client?5block?5at?50x?$CFp?0?5subtype?5?$CFx@ 004d98a8     libucrtd:debug_heap.obj
 0002:000148e8       ??_C@_0CH@FAGDDGPN@normal?5block?5at?50x?$CFp?0?5?$CFIu?5bytes?5@ 004d98e8     libucrtd:debug_heap.obj
 0002:00014918       ??_C@_0DA@MDLBNIBM@crt?5block?5at?50x?$CFp?0?5subtype?5?$CFx?0?5?$CF@ 004d9918     libucrtd:debug_heap.obj
 0002:00014954       ??_C@_0BH@GFGKJDCO@Object?5dump?5complete?4?6?$AA@ 004d9954     libucrtd:debug_heap.obj
 0002:00014970       ??_C@_0BI@JBFPOEJA@Detected?5memory?5leaks?$CB?6?$AA@ 004d9970     libucrtd:debug_heap.obj
 0002:0001498c       ??_C@_1CM@MPNIBKGK@?$AA_?$AAC?$AAr?$AAt?$AAM?$AAe?$AAm?$AAD?$AAu?$AAm?$AAp?$AAS?$AAt?$AAa?$AAt?$AAi?$AAs?$AAt?$AAi?$AAc?$AAs?$AA?$AA@ 004d998c     libucrtd:debug_heap.obj
 0002:000149c0       ??_C@_0BO@DACNIABB@?$CFId?5bytes?5in?5?$CFId?5?$CFhs?5Blocks?4?6?$AA@ 004d99c0     libucrtd:debug_heap.obj
 0002:000149e4       ??_C@_0CB@BLHDAFNE@Largest?5number?5used?3?5?$CFId?5bytes?4?6@ 004d99e4     libucrtd:debug_heap.obj
 0002:00014a0c       ??_C@_0BP@DEDHGGGI@Total?5allocations?3?5?$CFId?5bytes?4?6?$AA@ 004d9a0c     libucrtd:debug_heap.obj
 0002:00014a34       ??_C@_1CM@JKMDHENJ@?$AAI?$AAS?$AA_?$AA2?$AA_?$AAP?$AAO?$AAW?$AA_?$AAN?$AA?$CI?$AAa?$AAl?$AAi?$AAg?$AAn?$AAm?$AAe?$AAn?$AAt?$AA?$CJ?$AA?$AA@ 004d9a34     libucrtd:debug_heap.obj
 0002:00014a68       ??_C@_1DG@DONCJBBJ@?$AA_?$AAa?$AAl?$AAi?$AAg?$AAn?$AAe?$AAd?$AA_?$AAo?$AAf?$AAf?$AAs?$AAe?$AAt?$AA_?$AAm?$AAa?$AAl?$AAl?$AAo?$AAc?$AA_?$AAd?$AAb?$AAg?$AA?$AA@ 004d9a68     libucrtd:debug_heap.obj
 0002:00014aa8       ??_C@_1DK@LFLKFPDA@?$AAo?$AAf?$AAf?$AAs?$AAe?$AAt?$AA?5?$AA?$DN?$AA?$DN?$AA?5?$AA0?$AA?5?$AA?$HM?$AA?$HM?$AA?5?$AAo?$AAf?$AAf?$AAs?$AAe?$AAt?$AA?5?$AA?$DM?$AA?5?$AAs?$AAi?$AAz?$AAe?$AA?$AA@ 004d9aa8     libucrtd:debug_heap.obj
 0002:00014af0       ??_C@_0EI@NDNJMAJK@The?5block?5at?50x?$CFp?5was?5not?5alloca@ 004d9af0     libucrtd:debug_heap.obj
 0002:00014b48       ??_C@_0DL@PGHMMKNE@Damage?5before?50x?$CFp?5which?5was?5all@ 004d9b48     libucrtd:debug_heap.obj
 0002:00014b90       ??_C@_1DI@NINIKFFK@?$AA_?$AAa?$AAl?$AAi?$AAg?$AAn?$AAe?$AAd?$AA_?$AAo?$AAf?$AAf?$AAs?$AAe?$AAt?$AA_?$AAr?$AAe?$AAa?$AAl?$AAl?$AAo?$AAc?$AA_?$AAd?$AAb?$AAg?$AA?$AA@ 004d9b90     libucrtd:debug_heap.obj
 0002:00014bd4       ??_C@_1CG@CEGMHIMN@?$AA_?$AAa?$AAl?$AAi?$AAg?$AAn?$AAe?$AAd?$AA_?$AAm?$AAs?$AAi?$AAz?$AAe?$AA_?$AAd?$AAb?$AAg?$AA?$AA@ 004d9bd4     libucrtd:debug_heap.obj
 0002:00014c08       ??_C@_0EF@PGELACII@The?5block?5at?50x?$CFp?5was?5not?5alloca@ 004d9c08     libucrtd:debug_heap.obj
 0002:00014c60       ??_C@_1GI@BBAEIKL@?$AA?$CI?$AA?$CI?$AAd?$AAe?$AAs?$AAt?$AAi?$AAn?$AAa?$AAt?$AAi?$AAo?$AAn?$AA?$CJ?$AA?$CJ?$AA?5?$AA?$CB?$AA?$DN?$AA?5?$AAN?$AAU?$AAL?$AAL?$AA?5?$AA?$CG?$AA?$CG?$AA?5?$AA?$CI?$AA?$CI?$AAs?$AAi?$AAz@ 004d9c60     libucrtd:strcpy_s.obj
 0002:00014ce0       ??_C@_1HI@PBJPCEBC@?$AAm?$AAi?$AAn?$AAk?$AAe?$AAr?$AAn?$AAe?$AAl?$AA?2?$AAc?$AAr?$AAt?$AAs?$AA?2?$AAu?$AAc?$AAr?$AAt?$AA?2?$AAi?$AAn?$AAc?$AA?2?$AAc?$AAo?$AAr?$AAe?$AAc?$AAr?$AAt?$AA_@ 004d9ce0     libucrtd:strcpy_s.obj
 0002:00014d70       ??_C@_1CA@FHIAGDFH@?$AAc?$AAo?$AAm?$AAm?$AAo?$AAn?$AA_?$AAt?$AAc?$AAs?$AAc?$AAp?$AAy?$AA_?$AAs?$AA?$AA@ 004d9d70     libucrtd:strcpy_s.obj
 0002:00014d98       ??_C@_1CK@EIOKGPJL@?$AA?$CI?$AA?$CI?$AA?$CI?$AAs?$AAo?$AAu?$AAr?$AAc?$AAe?$AA?$CJ?$AA?$CJ?$AA?$CJ?$AA?5?$AA?$CB?$AA?$DN?$AA?5?$AAN?$AAU?$AAL?$AAL?$AA?$AA@ 004d9d98     libucrtd:strcpy_s.obj
 0002:00014dcc       ??_C@_1CI@HCPHDDLE@?$AAB?$AAu?$AAf?$AAf?$AAe?$AAr?$AA?5?$AAi?$AAs?$AA?5?$AAt?$AAo?$AAo?$AA?5?$AAs?$AAm?$AAa?$AAl?$AAl?$AA?$AA@ 004d9dcc     libucrtd:strcpy_s.obj
 0002:00014dfc       ??_C@_1DM@MADKGDLO@?$AA?$CI?$AAL?$AA?$CC?$AAB?$AAu?$AAf?$AAf?$AAe?$AAr?$AA?5?$AAi?$AAs?$AA?5?$AAt?$AAo?$AAo?$AA?5?$AAs?$AAm?$AAa?$AAl?$AAl?$AA?$CC?$AA?5?$AA?$CG?$AA?$CG?$AA?5?$AA0?$AA?$CJ?$AA?$AA@ 004d9dfc     libucrtd:strcpy_s.obj
 0002:00014e54       ??_C@_1BA@GLMCNLEM@?$AAW?$AAa?$AAr?$AAn?$AAi?$AAn?$AAg?$AA?$AA@ 004d9e54     libucrtd:dbgrpt.obj
 0002:00014e68       ??_C@_1M@ILHOPKA@?$AAE?$AAr?$AAr?$AAo?$AAr?$AA?$AA@ 004d9e68     libucrtd:dbgrpt.obj
 0002:00014e78       ??_C@_1CC@CGHMNGDG@?$AAA?$AAs?$AAs?$AAe?$AAr?$AAt?$AAi?$AAo?$AAn?$AA?5?$AAF?$AAa?$AAi?$AAl?$AAe?$AAd?$AA?$AA@ 004d9e78     libucrtd:dbgrpt.obj
 0002:00014ea8       ??_C@_1OG@PMPPFHAF@?$AA?6?$AA?6?$AAF?$AAo?$AAr?$AA?5?$AAi?$AAn?$AAf?$AAo?$AAr?$AAm?$AAa?$AAt?$AAi?$AAo?$AAn?$AA?5?$AAo?$AAn?$AA?5?$AAh?$AAo?$AAw?$AA?5?$AAy?$AAo?$AAu?$AAr?$AA?5?$AAp?$AAr@ 004d9ea8     libucrtd:dbgrpt.obj
 0002:00014fc0       ??_C@_1MG@LJLILFFD@?$AAD?$AAe?$AAb?$AAu?$AAg?$AA?5?$AA?$CF?$AAl?$AAs?$AA?$CB?$AA?6?$AA?6?$AAP?$AAr?$AAo?$AAg?$AAr?$AAa?$AAm?$AA?3?$AA?5?$AA?$CF?$AAh?$AAs?$AA?$CF?$AAl?$AAs?$AA?$CF?$AAl?$AAs?$AA?$CF?$AAh@ 004d9fc0     libucrtd:dbgrpt.obj
 0002:000150b0       ??_C@_1MG@OODCADGL@?$AAD?$AAe?$AAb?$AAu?$AAg?$AA?5?$AA?$CF?$AAl?$AAs?$AA?$CB?$AA?6?$AA?6?$AAP?$AAr?$AAo?$AAg?$AAr?$AAa?$AAm?$AA?3?$AA?5?$AA?$CF?$AAl?$AAs?$AA?$CF?$AAl?$AAs?$AA?$CF?$AAl?$AAs?$AA?$CF?$AAl@ 004da0b0     libucrtd:dbgrpt.obj
 0002:000151a0       ??_C@_1HI@OFEHGPPC@?$AAm?$AAo?$AAd?$AAe?$AA?5?$AA?$DN?$AA?$DN?$AA?5?$AA_?$AAC?$AAR?$AAT?$AA_?$AAR?$AAP?$AAT?$AAH?$AAO?$AAO?$AAK?$AA_?$AAI?$AAN?$AAS?$AAT?$AAA?$AAL?$AAL?$AA?5?$AA?$HM?$AA?$HM?$AA?5@ 004da1a0     libucrtd:dbgrpt.obj
 0002:00015230       ??_C@_1FO@GMJDLAJD@?$AAm?$AAi?$AAn?$AAk?$AAe?$AAr?$AAn?$AAe?$AAl?$AA?2?$AAc?$AAr?$AAt?$AAs?$AA?2?$AAu?$AAc?$AAr?$AAt?$AA?2?$AAs?$AAr?$AAc?$AA?2?$AAa?$AAp?$AAp?$AAc?$AAr?$AAt?$AA?2?$AAm@ 004da230     libucrtd:dbgrpt.obj
 0002:000152a0       ??_C@_1CO@FFNKOJOG@?$AAc?$AAo?$AAm?$AAm?$AAo?$AAn?$AA_?$AAs?$AAe?$AAt?$AA_?$AAr?$AAe?$AAp?$AAo?$AAr?$AAt?$AA_?$AAh?$AAo?$AAo?$AAk?$AA?$AA@ 004da2a0     libucrtd:dbgrpt.obj
 0002:000152d8       ??_C@_1CI@ONEHFNHD@?$AAn?$AAe?$AAw?$AA_?$AAh?$AAo?$AAo?$AAk?$AA?5?$AA?$CB?$AA?$DN?$AA?5?$AAn?$AAu?$AAl?$AAl?$AAp?$AAt?$AAr?$AA?$AA@ 004da2d8     libucrtd:dbgrpt.obj
 0002:00015308       ??_C@_1CM@EHMOGBJJ@?$AAc?$AAo?$AAm?$AAm?$AAo?$AAn?$AA_?$AAm?$AAe?$AAs?$AAs?$AAa?$AAg?$AAe?$AA_?$AAw?$AAi?$AAn?$AAd?$AAo?$AAw?$AA?$AA@ 004da308     libucrtd:dbgrpt.obj
 0002:00015340       ??_C@_1BA@GLLGCPCK@?$AA?6?$AAL?$AAi?$AAn?$AAe?$AA?3?$AA?5?$AA?$AA@ 004da340     libucrtd:dbgrpt.obj
 0002:00015354       ??_C@_1BA@LNHECFIM@?$AA?6?$AAF?$AAi?$AAl?$AAe?$AA?3?$AA?5?$AA?$AA@ 004da354     libucrtd:dbgrpt.obj
 0002:00015368       ??_C@_1BE@CGCJKGHI@?$AA?6?$AAM?$AAo?$AAd?$AAu?$AAl?$AAe?$AA?3?$AA?5?$AA?$AA@ 004da368     libucrtd:dbgrpt.obj
 0002:00015380       ??_C@_1JM@IBOIJEOO@?$AAw?$AAc?$AAs?$AAc?$AAp?$AAy?$AA_?$AAs?$AA?$CI?$AAm?$AAe?$AAs?$AAs?$AAa?$AAg?$AAe?$AA_?$AAb?$AAu?$AAf?$AAf?$AAe?$AAr?$AA?0?$AA?5?$AA4?$AA0?$AA9?$AA6?$AA?0?$AA?5?$AAL@ 004da380     libucrtd:dbgrpt.obj
 0002:00015440       ??_C@_1FG@BBOLDHGF@?$AA_?$AAC?$AAr?$AAt?$AAD?$AAb?$AAg?$AAR?$AAe?$AAp?$AAo?$AAr?$AAt?$AA?3?$AA?5?$AAS?$AAt?$AAr?$AAi?$AAn?$AAg?$AA?5?$AAt?$AAo?$AAo?$AA?5?$AAl?$AAo?$AAn?$AAg?$AA?5?$AAo@ 004da440     libucrtd:dbgrpt.obj
 0002:000154b0       ??_C@_1FK@BNNDOGMN@?$AA?$CI?$AA?$CC?$AAT?$AAh?$AAe?$AA?5?$AAh?$AAo?$AAo?$AAk?$AA?5?$AAf?$AAu?$AAn?$AAc?$AAt?$AAi?$AAo?$AAn?$AA?5?$AAi?$AAs?$AA?5?$AAn?$AAo?$AAt?$AA?5?$AAi?$AAn?$AA?5?$AAt?$AAh@ 004da4b0     libucrtd:dbgrpt.obj
 0002:0001551c       ??_C@_0CP@HDJNPEFB@minkernel?2crts?2ucrt?2src?2appcrt?2m@ 004da51c     libucrtd:dbgrpt.obj
 0002:00015554       ??_C@_1DA@LLLMNMKI@?$AAa?$AAb?$AAo?$AAr?$AAt?$AA?$CI?$AA?$CJ?$AA?5?$AAh?$AAa?$AAs?$AA?5?$AAb?$AAe?$AAe?$AAn?$AA?5?$AAc?$AAa?$AAl?$AAl?$AAe?$AAd?$AA?$AA@ 004da554     libucrtd:abort.obj
 0002:00015590       __Fenv0                    004da590     libucrtd:atox.obj
 0002:000155a0       ??_C@_1GE@DPGDJKLM@?$AAm?$AAi?$AAn?$AAk?$AAe?$AAr?$AAn?$AAe?$AAl?$AA?2?$AAc?$AAr?$AAt?$AAs?$AA?2?$AAu?$AAc?$AAr?$AAt?$AA?2?$AAi?$AAn?$AAc?$AA?2?$AAc?$AAo?$AAr?$AAe?$AAc?$AAr?$AAt?$AA_@ 004da5a0     libucrtd:atox.obj
 0002:00015618       ??_C@_1EO@MLJCKPIB@?$AAb?$AAa?$AAs?$AAe?$AA?5?$AA?$DN?$AA?$DN?$AA?5?$AA0?$AA?5?$AA?$HM?$AA?$HM?$AA?5?$AA?$CI?$AA2?$AA?5?$AA?$DM?$AA?$DN?$AA?5?$AAb?$AAa?$AAs?$AAe?$AA?5?$AA?$CG?$AA?$CG?$AA?5?$AAb?$AAa?$AAs?$AAe?$AA?5@ 004da618     libucrtd:atox.obj
 0002:00015678       ??_C@_1DI@BANODKFL@?$AA_?$AA_?$AAc?$AAr?$AAt?$AA_?$AAs?$AAt?$AAr?$AAt?$AAo?$AAx?$AA?3?$AA?3?$AAp?$AAa?$AAr?$AAs?$AAe?$AA_?$AAi?$AAn?$AAt?$AAe?$AAg?$AAe?$AAr?$AA?$AA@ 004da678     libucrtd:atox.obj
 0002:000156bc       ??_C@_1BM@PNEBBBDO@?$AA_?$AAp?$AA?5?$AA?$CB?$AA?$DN?$AA?5?$AAn?$AAu?$AAl?$AAl?$AAp?$AAt?$AAr?$AA?$AA@ 004da6bc     libucrtd:atox.obj
 0002:000156e0       ??_C@_1HA@MKKIHBHP@?$AA_?$AA_?$AAc?$AAr?$AAt?$AA_?$AAs?$AAt?$AAr?$AAt?$AAo?$AAx?$AA?3?$AA?3?$AAc?$AA_?$AAs?$AAt?$AAr?$AAi?$AAn?$AAg?$AA_?$AAc?$AAh?$AAa?$AAr?$AAa?$AAc?$AAt?$AAe?$AAr@ 004da6e0     libucrtd:atox.obj
 0002:00015768       ??_C@_1CM@GJENOOEJ@?$AAc?$AA?5?$AA?$DN?$AA?$DN?$AA?5?$AA?8?$AA?2?$AA0?$AA?8?$AA?5?$AA?$HM?$AA?$HM?$AA?5?$AA?$CK?$AA_?$AAp?$AA?5?$AA?$DN?$AA?$DN?$AA?5?$AAc?$AA?$AA@ 004da768     libucrtd:atox.obj
 0002:000157a0       ??_C@_1GK@MNHIDABG@?$AA_?$AA_?$AAc?$AAr?$AAt?$AA_?$AAs?$AAt?$AAr?$AAt?$AAo?$AAx?$AA?3?$AA?3?$AAc?$AA_?$AAs?$AAt?$AAr?$AAi?$AAn?$AAg?$AA_?$AAc?$AAh?$AAa?$AAr?$AAa?$AAc?$AAt?$AAe?$AAr@ 004da7a0     libucrtd:atox.obj
 0002:00015820       ??_C@_1HG@FCDBLOEG@?$AA_?$AA_?$AAc?$AAr?$AAt?$AA_?$AAs?$AAt?$AAr?$AAt?$AAo?$AAx?$AA?3?$AA?3?$AAc?$AA_?$AAs?$AAt?$AAr?$AAi?$AAn?$AAg?$AA_?$AAc?$AAh?$AAa?$AAr?$AAa?$AAc?$AAt?$AAe?$AAr@ 004da820     libucrtd:atox.obj
 0002:000158b0       ??_C@_1HA@CONLANFI@?$AA_?$AA_?$AAc?$AAr?$AAt?$AA_?$AAs?$AAt?$AAr?$AAt?$AAo?$AAx?$AA?3?$AA?3?$AAc?$AA_?$AAs?$AAt?$AAr?$AAi?$AAn?$AAg?$AA_?$AAc?$AAh?$AAa?$AAr?$AAa?$AAc?$AAt?$AAe?$AAr@ 004da8b0     libucrtd:atox.obj
 0002:00015ae8       ??_C@_1FM@MJJGEFKM@?$AAm?$AAi?$AAn?$AAk?$AAe?$AAr?$AAn?$AAe?$AAl?$AA?2?$AAc?$AAr?$AAt?$AAs?$AA?2?$AAu?$AAc?$AAr?$AAt?$AA?2?$AAs?$AAr?$AAc?$AA?2?$AAa?$AAp?$AAp?$AAc?$AAr?$AAt?$AA?2?$AAm@ 004daae8     libucrtd:errno.obj
 0002:00015b58       ??_C@_1BG@KCMPBBDK@?$AA_?$AAg?$AAe?$AAt?$AA_?$AAe?$AAr?$AAr?$AAn?$AAo?$AA?$AA@ 004dab58     libucrtd:errno.obj
 0002:00015b74       ??_C@_1BM@INIPHHDD@?$AA_?$AAg?$AAe?$AAt?$AA_?$AAd?$AAo?$AAs?$AAe?$AAr?$AAr?$AAn?$AAo?$AA?$AA@ 004dab74     libucrtd:errno.obj
 0002:00015b98       ??_C@_1CE@MCCHPLBM@?$AAb?$AAu?$AAf?$AAf?$AAe?$AAr?$AA?5?$AA?$CB?$AA?$DN?$AA?5?$AAn?$AAu?$AAl?$AAl?$AAp?$AAt?$AAr?$AA?$AA@ 004dab98     libucrtd:xtoa.obj
 0002:00015bc8       ??_C@_1GA@HBEFGMHK@?$AAm?$AAi?$AAn?$AAk?$AAe?$AAr?$AAn?$AAe?$AAl?$AA?2?$AAc?$AAr?$AAt?$AAs?$AA?2?$AAu?$AAc?$AAr?$AAt?$AA?2?$AAs?$AAr?$AAc?$AA?2?$AAa?$AAp?$AAp?$AAc?$AAr?$AAt?$AA?2?$AAc@ 004dabc8     libucrtd:xtoa.obj
 0002:00015c3c       ??_C@_1BM@HMPEMLNP@?$AAc?$AAo?$AAm?$AAm?$AAo?$AAn?$AA_?$AAx?$AAt?$AAo?$AAx?$AA_?$AAs?$AA?$AA@ 004dac3c     libucrtd:xtoa.obj
 0002:00015c60       ??_C@_1CC@ONIJBMJF@?$AAb?$AAu?$AAf?$AAf?$AAe?$AAr?$AA_?$AAc?$AAo?$AAu?$AAn?$AAt?$AA?5?$AA?$DO?$AA?5?$AA0?$AA?$AA@ 004dac60     libucrtd:xtoa.obj
 0002:00015c88       ??_C@_1HA@JFIOFNKD@?$AAb?$AAu?$AAf?$AAf?$AAe?$AAr?$AA_?$AAc?$AAo?$AAu?$AAn?$AAt?$AA?5?$AA?$DO?$AA?5?$AAs?$AAt?$AAa?$AAt?$AAi?$AAc?$AA_?$AAc?$AAa?$AAs?$AAt?$AA?$DM?$AAs?$AAi?$AAz?$AAe?$AA_@ 004dac88     libucrtd:xtoa.obj
 0002:00015d10       ??_C@_1DE@PCJGDBBD@?$AA2?$AA?5?$AA?$DM?$AA?$DN?$AA?5?$AAr?$AAa?$AAd?$AAi?$AAx?$AA?5?$AA?$CG?$AA?$CG?$AA?5?$AAr?$AAa?$AAd?$AAi?$AAx?$AA?5?$AA?$DM?$AA?$DN?$AA?5?$AA3?$AA6?$AA?$AA@ 004dad10     libucrtd:xtoa.obj
 0002:00015d50       ??_C@_1CM@LONILNIJ@?$AAl?$AAe?$AAn?$AAg?$AAt?$AAh?$AA?5?$AA?$DM?$AA?5?$AAb?$AAu?$AAf?$AAf?$AAe?$AAr?$AA_?$AAc?$AAo?$AAu?$AAn?$AAt?$AA?$AA@ 004dad50     libucrtd:xtoa.obj
 0002:00015d84       ??_C@_1BI@OLPLFKOE@?$AAc?$AAo?$AAm?$AAm?$AAo?$AAn?$AA_?$AAx?$AAt?$AAo?$AAx?$AA?$AA@ 004dad84     libucrtd:xtoa.obj
 0002:00015da0       ??_C@_1DE@BCNCAIK@?$AA?$CI?$AA?$CC?$AAI?$AAn?$AAv?$AAa?$AAl?$AAi?$AAd?$AA?5?$AAe?$AAr?$AAr?$AAo?$AAr?$AA_?$AAm?$AAo?$AAd?$AAe?$AA?$CC?$AA?0?$AA?5?$AA0?$AA?$CJ?$AA?$AA@ 004dada0     libucrtd:set_error_mode.obj
 0002:00015de0       ??_C@_1GO@EBFPMMIJ@?$AAm?$AAi?$AAn?$AAk?$AAe?$AAr?$AAn?$AAe?$AAl?$AA?2?$AAc?$AAr?$AAt?$AAs?$AA?2?$AAu?$AAc?$AAr?$AAt?$AA?2?$AAs?$AAr?$AAc?$AA?2?$AAa?$AAp?$AAp?$AAc?$AAr?$AAt?$AA?2?$AAm@ 004dade0     libucrtd:set_error_mode.obj
 0002:00015e64       ??_C@_1CA@LFDHAMEM@?$AA_?$AAs?$AAe?$AAt?$AA_?$AAe?$AAr?$AAr?$AAo?$AAr?$AA_?$AAm?$AAo?$AAd?$AAe?$AA?$AA@ 004dae64     libucrtd:set_error_mode.obj
 0002:00015e8c       ??_C@_1CA@EOJJMFA@?$AAc?$AAo?$AAm?$AAm?$AAo?$AAn?$AA_?$AAt?$AAc?$AAs?$AAc?$AAa?$AAt?$AA_?$AAs?$AA?$AA@ 004dae8c     libucrtd:wcscat_s.obj
 0002:00015eb4       ??_C@_1DM@FHLMIEG@?$AAS?$AAt?$AAr?$AAi?$AAn?$AAg?$AA?5?$AAi?$AAs?$AA?5?$AAn?$AAo?$AAt?$AA?5?$AAn?$AAu?$AAl?$AAl?$AA?5?$AAt?$AAe?$AAr?$AAm?$AAi?$AAn?$AAa?$AAt?$AAe?$AAd?$AA?$AA@ 004daeb4     libucrtd:wcscat_s.obj
 0002:00015f00       ??_C@_1FA@MJKDNFFB@?$AA?$CI?$AAL?$AA?$CC?$AAS?$AAt?$AAr?$AAi?$AAn?$AAg?$AA?5?$AAi?$AAs?$AA?5?$AAn?$AAo?$AAt?$AA?5?$AAn?$AAu?$AAl?$AAl?$AA?5?$AAt?$AAe?$AAr?$AAm?$AAi?$AAn?$AAa?$AAt?$AAe?$AAd@ 004daf00     libucrtd:wcscat_s.obj
 0002:00015f60       ??_C@_1CC@HELMJGIF@?$AAc?$AAo?$AAm?$AAm?$AAo?$AAn?$AA_?$AAt?$AAc?$AAs?$AAn?$AAc?$AAa?$AAt?$AA_?$AAs?$AA?$AA@ 004daf60     libucrtd:wcsncat_s.obj
 0002:00015f88       ??_C@_1GC@NAMEPLDD@?$AAm?$AAi?$AAn?$AAk?$AAe?$AAr?$AAn?$AAe?$AAl?$AA?2?$AAc?$AAr?$AAt?$AAs?$AA?2?$AAu?$AAc?$AAr?$AAt?$AA?2?$AAs?$AAr?$AAc?$AA?2?$AAa?$AAp?$AAp?$AAc?$AAr?$AAt?$AA?2?$AAs@ 004daf88     libucrtd:setvbuf.obj
 0002:00016000       ??_C@_1BA@OGODIODK@?$AAs?$AAe?$AAt?$AAv?$AAb?$AAu?$AAf?$AA?$AA@ 004db000     libucrtd:setvbuf.obj
 0002:00016018       ??_C@_1GG@CBGCKJPC@?$AAt?$AAy?$AAp?$AAe?$AA?5?$AA?$DN?$AA?$DN?$AA?5?$AA_?$AAI?$AAO?$AAN?$AAB?$AAF?$AA?5?$AA?$HM?$AA?$HM?$AA?5?$AAt?$AAy?$AAp?$AAe?$AA?5?$AA?$DN?$AA?$DN?$AA?5?$AA_?$AAI?$AAO?$AAF?$AAB?$AAF@ 004db018     libucrtd:setvbuf.obj
 0002:00016098       ??_C@_1HK@PBPJKDDM@?$AA2?$AA?5?$AA?$DM?$AA?$DN?$AA?5?$AAb?$AAu?$AAf?$AAf?$AAe?$AAr?$AA_?$AAs?$AAi?$AAz?$AAe?$AA_?$AAi?$AAn?$AA_?$AAb?$AAy?$AAt?$AAe?$AAs?$AA?5?$AA?$CG?$AA?$CG?$AA?5?$AAb?$AAu?$AAf@ 004db098     libucrtd:setvbuf.obj
 0002:0001612c       ??_C@_0DB@BJFCCEBD@minkernel?2crts?2ucrt?2src?2appcrt?2s@ 004db12c     libucrtd:setvbuf.obj
 0002:00016168       ??_C@_0CP@JIIONAG@minkernel?2crts?2ucrt?2src?2appcrt?2m@ 004db168     libucrtd:signal.obj
 0002:000161a0       ??_C@_1DA@NBILLKNO@?$AAl?$AAo?$AAc?$AAa?$AAl?$AA_?$AAa?$AAc?$AAt?$AAi?$AAo?$AAn?$AA?5?$AA?$CB?$AA?$DN?$AA?5?$AAn?$AAu?$AAl?$AAl?$AAp?$AAt?$AAr?$AA?$AA@ 004db1a0     libucrtd:signal.obj
 0002:000161e0       ??_C@_1FO@CCGDPEKE@?$AAm?$AAi?$AAn?$AAk?$AAe?$AAr?$AAn?$AAe?$AAl?$AA?2?$AAc?$AAr?$AAt?$AAs?$AA?2?$AAu?$AAc?$AAr?$AAt?$AA?2?$AAs?$AAr?$AAc?$AA?2?$AAa?$AAp?$AAp?$AAc?$AAr?$AAt?$AA?2?$AAm@ 004db1e0     libucrtd:signal.obj
 0002:00016250       ??_C@_1M@DMJEIKHL@?$AAr?$AAa?$AAi?$AAs?$AAe?$AA?$AA@ 004db250     libucrtd:signal.obj
 0002:00016260       ??_C@_1DO@MLNEDKGB@?$AA?$CI?$AA?$CC?$AAI?$AAn?$AAv?$AAa?$AAl?$AAi?$AAd?$AA?5?$AAs?$AAi?$AAg?$AAn?$AAa?$AAl?$AA?5?$AAo?$AAr?$AA?5?$AAe?$AAr?$AAr?$AAo?$AAr?$AA?$CC?$AA?0?$AA?5?$AA0?$AA?$CJ?$AA?$AA@ 004db260     libucrtd:signal.obj
 0002:000162b0       ??_C@_1BBC@DECGKMGJ@?$AA_?$AAl?$AAo?$AAc?$AA_?$AAu?$AAp?$AAd?$AAa?$AAt?$AAe?$AA?4?$AAG?$AAe?$AAt?$AAL?$AAo?$AAc?$AAa?$AAl?$AAe?$AAT?$AA?$CI?$AA?$CJ?$AA?9?$AA?$DO?$AAl?$AAo?$AAc?$AAi?$AAn?$AAf@ 004db2b0     libucrtd:mbtowc.obj
 0002:000163f8       ??_C@_1GE@CGIHMDEJ@?$AAm?$AAi?$AAn?$AAk?$AAe?$AAr?$AAn?$AAe?$AAl?$AA?2?$AAc?$AAr?$AAt?$AAs?$AA?2?$AAu?$AAc?$AAr?$AAt?$AA?2?$AAs?$AAr?$AAc?$AA?2?$AAa?$AAp?$AAp?$AAc?$AAr?$AAt?$AA?2?$AAc@ 004db3f8     libucrtd:mbtowc.obj
 0002:00016470       ??_C@_1DK@NBNOAGKB@?$AAd?$AAe?$AAs?$AAt?$AAi?$AAn?$AAa?$AAt?$AAi?$AAo?$AAn?$AA_?$AAc?$AAo?$AAu?$AAn?$AAt?$AA?5?$AA?$DM?$AA?$DN?$AA?5?$AAI?$AAN?$AAT?$AA_?$AAM?$AAA?$AAX?$AA?$AA@ 004db470     libucrtd:wctomb.obj
 0002:000164b8       ??_C@_1GE@FCCEPHFG@?$AAm?$AAi?$AAn?$AAk?$AAe?$AAr?$AAn?$AAe?$AAl?$AA?2?$AAc?$AAr?$AAt?$AAs?$AA?2?$AAu?$AAc?$AAr?$AAt?$AA?2?$AAs?$AAr?$AAc?$AA?2?$AAa?$AAp?$AAp?$AAc?$AAr?$AAt?$AA?2?$AAc@ 004db4b8     libucrtd:wctomb.obj
 0002:00016530       ??_C@_1BI@IEADNOHF@?$AA_?$AAw?$AAc?$AAt?$AAo?$AAm?$AAb?$AA_?$AAs?$AA_?$AAl?$AA?$AA@ 004db530     libucrtd:wctomb.obj
 0002:0001654c       ??_C@_1CM@ENFEGCNE@?$AAd?$AAe?$AAs?$AAt?$AAi?$AAn?$AAa?$AAt?$AAi?$AAo?$AAn?$AA_?$AAc?$AAo?$AAu?$AAn?$AAt?$AA?5?$AA?$DO?$AA?5?$AA0?$AA?$AA@ 004db54c     libucrtd:wctomb.obj
 0002:00016580       ??_C@_0DM@DKIFNNOL@minkernel?2crts?2ucrt?2src?2appcrt?2i@ 004db580     libucrtd:per_thread_data.obj
 0002:000165c8       ??_C@_03OEIAHPBN@INF?$AA@  004db5c8     libucrtd:cvt.obj
 0002:000165cc       ??_C@_03OJHLLCGB@inf?$AA@  004db5cc     libucrtd:cvt.obj
 0002:000165d0       ??_C@_03LKNCIKJB@NAN?$AA@  004db5d0     libucrtd:cvt.obj
 0002:000165d4       ??_C@_03LHCJEHON@nan?$AA@  004db5d4     libucrtd:cvt.obj
 0002:000165d8       ??_C@_09OFJJIMPC@NAN?$CISNAN?$CJ?$AA@ 004db5d8     libucrtd:cvt.obj
 0002:000165e4       ??_C@_09IPFBKMDL@nan?$CIsnan?$CJ?$AA@ 004db5e4     libucrtd:cvt.obj
 0002:000165f0       ??_C@_08IKHNHAJ@NAN?$CIIND?$CJ?$AA@ 004db5f0     libucrtd:cvt.obj
 0002:000165fc       ??_C@_08OFCDMILK@nan?$CIind?$CJ?$AA@ 004db5fc     libucrtd:cvt.obj
 0002:00016608       ??_C@_1FO@GKAKAPLI@?$AAm?$AAi?$AAn?$AAk?$AAe?$AAr?$AAn?$AAe?$AAl?$AA?2?$AAc?$AAr?$AAt?$AAs?$AA?2?$AAu?$AAc?$AAr?$AAt?$AA?2?$AAs?$AAr?$AAc?$AA?2?$AAa?$AAp?$AAp?$AAc?$AAr?$AAt?$AA?2?$AAc@ 004db608     libucrtd:cvt.obj
 0002:00016678       ??_C@_1DE@EHGIGIDK@?$AAf?$AAp?$AA_?$AAf?$AAo?$AAr?$AAm?$AAa?$AAt?$AA_?$AAn?$AAa?$AAn?$AA_?$AAo?$AAr?$AA_?$AAi?$AAn?$AAf?$AAi?$AAn?$AAi?$AAt?$AAy?$AA?$AA@ 004db678     libucrtd:cvt.obj
 0002:000166b8       ??_C@_1LI@PCMLJPCO@?$AAs?$AAt?$AAr?$AAc?$AAp?$AAy?$AA_?$AAs?$AA?$CI?$AA?5?$AAr?$AAe?$AAs?$AAu?$AAl?$AAt?$AA_?$AAb?$AAu?$AAf?$AAf?$AAe?$AAr?$AA?0?$AA?5?$AAr?$AAe?$AAs?$AAu?$AAl?$AAt?$AA_@ 004db6b8     libucrtd:cvt.obj
 0002:00016798       ??_C@_1KO@LJHOFBCD@?$AAr?$AAe?$AAs?$AAu?$AAl?$AAt?$AA_?$AAb?$AAu?$AAf?$AAf?$AAe?$AAr?$AA_?$AAc?$AAo?$AAu?$AAn?$AAt?$AA?5?$AA?$DO?$AA?5?$AAs?$AAt?$AAa?$AAt?$AAi?$AAc?$AA_?$AAc?$AAa?$AAs@ 004db798     libucrtd:cvt.obj
 0002:00016868       ??_C@_1CK@BOLHOMFO@?$AAf?$AAp?$AA_?$AAf?$AAo?$AAr?$AAm?$AAa?$AAt?$AA_?$AAe?$AA_?$AAi?$AAn?$AAt?$AAe?$AAr?$AAn?$AAa?$AAl?$AA?$AA@ 004db868     libucrtd:cvt.obj
 0002:000168a0       ??_C@_1BBA@FHDJNBGM@?$AAs?$AAt?$AAr?$AAc?$AAp?$AAy?$AA_?$AAs?$AA?$CI?$AA?5?$AAp?$AA?0?$AA?5?$AAr?$AAe?$AAs?$AAu?$AAl?$AAt?$AA_?$AAb?$AAu?$AAf?$AAf?$AAe?$AAr?$AA_?$AAc?$AAo?$AAu?$AAn?$AAt@ 004db8a0     libucrtd:cvt.obj
 0002:000169e8       ??_C@_05KLBDPFGC@e?$CL000?$AA@ 004db9e8     libucrtd:cvt.obj
 0002:000169f0       ??_C@_1IC@FILKPBAB@?$AAr?$AAe?$AAs?$AAu?$AAl?$AAt?$AA_?$AAb?$AAu?$AAf?$AAf?$AAe?$AAr?$AA_?$AAc?$AAo?$AAu?$AAn?$AAt?$AA?5?$AA?$DO?$AA?5?$AAs?$AAt?$AAa?$AAt?$AAi?$AAc?$AA_?$AAc?$AAa?$AAs@ 004db9f0     libucrtd:cvt.obj
 0002:00016a8c       ??_C@_1BI@PNBDLNBB@?$AAf?$AAp?$AA_?$AAf?$AAo?$AAr?$AAm?$AAa?$AAt?$AA_?$AAa?$AA?$AA@ 004dba8c     libucrtd:cvt.obj
 0002:00016aa8       ??_C@_1DC@MGKAFPFD@?$AAr?$AAe?$AAs?$AAu?$AAl?$AAt?$AA_?$AAb?$AAu?$AAf?$AAf?$AAe?$AAr?$AA?5?$AA?$CB?$AA?$DN?$AA?5?$AAn?$AAu?$AAl?$AAl?$AAp?$AAt?$AAr?$AA?$AA@ 004dbaa8     libucrtd:cvt.obj
 0002:00016ae4       ??_C@_1CC@LDAHJAKK@?$AA_?$AA_?$AAa?$AAc?$AAr?$AAt?$AA_?$AAf?$AAp?$AA_?$AAf?$AAo?$AAr?$AAm?$AAa?$AAt?$AA?$AA@ 004dbae4     libucrtd:cvt.obj
 0002:00016b0c       ??_C@_1DA@NMLJJOCO@?$AAr?$AAe?$AAs?$AAu?$AAl?$AAt?$AA_?$AAb?$AAu?$AAf?$AAf?$AAe?$AAr?$AA_?$AAc?$AAo?$AAu?$AAn?$AAt?$AA?5?$AA?$DO?$AA?5?$AA0?$AA?$AA@ 004dbb0c     libucrtd:cvt.obj
 0002:00016b48       ??_C@_1DE@MNOPBCOK@?$AAs?$AAc?$AAr?$AAa?$AAt?$AAc?$AAh?$AA_?$AAb?$AAu?$AAf?$AAf?$AAe?$AAr?$AA?5?$AA?$CB?$AA?$DN?$AA?5?$AAn?$AAu?$AAl?$AAl?$AAp?$AAt?$AAr?$AA?$AA@ 004dbb48     libucrtd:cvt.obj
 0002:00016b88       ??_C@_1DC@CKBKNFKH@?$AAs?$AAc?$AAr?$AAa?$AAt?$AAc?$AAh?$AA_?$AAb?$AAu?$AAf?$AAf?$AAe?$AAr?$AA_?$AAc?$AAo?$AAu?$AAn?$AAt?$AA?5?$AA?$DO?$AA?5?$AA0?$AA?$AA@ 004dbb88     libucrtd:cvt.obj
 0002:00016bc8       ??_C@_1EI@JAHBOGIM@?$AA?$CI?$AA?$CC?$AAU?$AAn?$AAs?$AAu?$AAp?$AAp?$AAo?$AAr?$AAt?$AAe?$AAd?$AA?5?$AAf?$AAo?$AAr?$AAm?$AAa?$AAt?$AA?5?$AAs?$AAp?$AAe?$AAc?$AAi?$AAf?$AAi?$AAe?$AAr?$AA?$CC?$AA?0@ 004dbbc8     libucrtd:cvt.obj
 0002:00016c20       ??_C@_1GA@OJHMFOOJ@?$AAm?$AAi?$AAn?$AAk?$AAe?$AAr?$AAn?$AAe?$AAl?$AA?2?$AAc?$AAr?$AAt?$AAs?$AA?2?$AAu?$AAc?$AAr?$AAt?$AA?2?$AAs?$AAr?$AAc?$AA?2?$AAa?$AAp?$AAp?$AAc?$AAr?$AAt?$AA?2?$AAs@ 004dbc20     libucrtd:fputwc.obj
 0002:00016c94       ??_C@_1O@HJNPHHHB@?$AAf?$AAp?$AAu?$AAt?$AAw?$AAc?$AA?$AA@ 004dbc94     libucrtd:fputwc.obj
 0002:00016ca8       ??_C@_1GA@KCAHHNGP@?$AAm?$AAi?$AAn?$AAk?$AAe?$AAr?$AAn?$AAe?$AAl?$AA?2?$AAc?$AAr?$AAt?$AAs?$AA?2?$AAu?$AAc?$AAr?$AAt?$AA?2?$AAs?$AAr?$AAc?$AA?2?$AAa?$AAp?$AAp?$AAc?$AAr?$AAt?$AA?2?$AAs@ 004dbca8     libucrtd:fileno.obj
 0002:00016d1c       ??_C@_1BA@JGHIEKKM@?$AA_?$AAf?$AAi?$AAl?$AAe?$AAn?$AAo?$AA?$AA@ 004dbd1c     libucrtd:fileno.obj
 0002:00016d30       ??_C@_1FO@FNOAOMLP@?$AAm?$AAi?$AAn?$AAk?$AAe?$AAr?$AAn?$AAe?$AAl?$AA?2?$AAc?$AAr?$AAt?$AAs?$AA?2?$AAu?$AAc?$AAr?$AAt?$AA?2?$AAs?$AAr?$AAc?$AA?2?$AAa?$AAp?$AAp?$AAc?$AAr?$AAt?$AA?2?$AAs@ 004dbd30     libucrtd:fputc.obj
 0002:00016da0       ??_C@_1M@OIJMPNCO@?$AAf?$AAp?$AAu?$AAt?$AAc?$AA?$AA@ 004dbda0     libucrtd:fputc.obj
 0002:00016db0       ??_C@_1GC@GBMDABED@?$AAm?$AAi?$AAn?$AAk?$AAe?$AAr?$AAn?$AAe?$AAl?$AA?2?$AAc?$AAr?$AAt?$AAs?$AA?2?$AAu?$AAc?$AAr?$AAt?$AA?2?$AAs?$AAr?$AAc?$AA?2?$AAa?$AAp?$AAp?$AAc?$AAr?$AAt?$AA?2?$AAs@ 004dbdb0     libucrtd:_sftbuf.obj
 0002:00016e28       ??_C@_0DB@EPIHMFLB@minkernel?2crts?2ucrt?2src?2appcrt?2s@ 004dbe28     libucrtd:_sftbuf.obj
 0002:00016e64       ??_C@_03KOEHGMDN@Sun?$AA@  004dbe64     libucrtd:nlsdata.obj
 0002:00016e68       ??_C@_03PDAGKDH@Mon?$AA@   004dbe68     libucrtd:nlsdata.obj
 0002:00016e6c       ??_C@_03NAGEINEP@Tue?$AA@  004dbe6c     libucrtd:nlsdata.obj
 0002:00016e70       ??_C@_03MHOMLAJA@Wed?$AA@  004dbe70     libucrtd:nlsdata.obj
 0002:00016e74       ??_C@_03IOFIKPDN@Thu?$AA@  004dbe74     libucrtd:nlsdata.obj
 0002:00016e78       ??_C@_03IDIOELNC@Fri?$AA@  004dbe78     libucrtd:nlsdata.obj
 0002:00016e7c       ??_C@_03FEFJNEK@Sat?$AA@   004dbe7c     libucrtd:nlsdata.obj
 0002:00016e80       ??_C@_06OOPIFAJ@Sunday?$AA@ 004dbe80     libucrtd:nlsdata.obj
 0002:00016e88       ??_C@_06JLEDEDGH@Monday?$AA@ 004dbe88     libucrtd:nlsdata.obj
 0002:00016e90       ??_C@_07BAAGCFCM@Tuesday?$AA@ 004dbe90     libucrtd:nlsdata.obj
 0002:00016e9c       ??_C@_09DLIGFAKA@Wednesday?$AA@ 004dbe9c     libucrtd:nlsdata.obj
 0002:00016ea8       ??_C@_08HACCIKIA@Thursday?$AA@ 004dbea8     libucrtd:nlsdata.obj
 0002:00016eb4       ??_C@_06JECMNKMI@Friday?$AA@ 004dbeb4     libucrtd:nlsdata.obj
 0002:00016ebc       ??_C@_08INBOOONO@Saturday?$AA@ 004dbebc     libucrtd:nlsdata.obj
 0002:00016ec8       ??_C@_03JIHJHPIE@Jan?$AA@  004dbec8     libucrtd:nlsdata.obj
 0002:00016ecc       ??_C@_03HJBDCHOM@Feb?$AA@  004dbecc     libucrtd:nlsdata.obj
 0002:00016ed0       ??_C@_03ODNJBKGA@Mar?$AA@  004dbed0     libucrtd:nlsdata.obj
 0002:00016ed4       ??_C@_03LEOLGMJP@Apr?$AA@  004dbed4     libucrtd:nlsdata.obj
 0002:00016ed8       ??_C@_03CNMDKL@May?$AA@    004dbed8     libucrtd:nlsdata.obj
 0002:00016edc       ??_C@_03IDFGHECI@Jun?$AA@  004dbedc     libucrtd:nlsdata.obj
 0002:00016ee0       ??_C@_03LBGABGKK@Jul?$AA@  004dbee0     libucrtd:nlsdata.obj
 0002:00016ee4       ??_C@_03IFJFEIGA@Aug?$AA@  004dbee4     libucrtd:nlsdata.obj
 0002:00016ee8       ??_C@_03GGCAPAJC@Sep?$AA@  004dbee8     libucrtd:nlsdata.obj
 0002:00016eec       ??_C@_03BMAOKBAD@Oct?$AA@  004dbeec     libucrtd:nlsdata.obj
 0002:00016ef0       ??_C@_03JPJOFNIA@Nov?$AA@  004dbef0     libucrtd:nlsdata.obj
 0002:00016ef4       ??_C@_03MKABNOCG@Dec?$AA@  004dbef4     libucrtd:nlsdata.obj
 0002:00016ef8       ??_C@_07CGJPFGJA@January?$AA@ 004dbef8     libucrtd:nlsdata.obj
 0002:00016f04       ??_C@_08GNJGEPFN@February?$AA@ 004dbf04     libucrtd:nlsdata.obj
 0002:00016f10       ??_C@_05HPCKOFNC@March?$AA@ 004dbf10     libucrtd:nlsdata.obj
 0002:00016f18       ??_C@_05DMJDNLEJ@April?$AA@ 004dbf18     libucrtd:nlsdata.obj
 0002:00016f20       ??_C@_04CNLMGBGM@June?$AA@ 004dbf20     libucrtd:nlsdata.obj
 0002:00016f28       ??_C@_04MIEPOIFP@July?$AA@ 004dbf28     libucrtd:nlsdata.obj
 0002:00016f30       ??_C@_06LBBHFDDG@August?$AA@ 004dbf30     libucrtd:nlsdata.obj
 0002:00016f38       ??_C@_09BHHEALKD@September?$AA@ 004dbf38     libucrtd:nlsdata.obj
 0002:00016f44       ??_C@_07JJNFCEND@October?$AA@ 004dbf44     libucrtd:nlsdata.obj
 0002:00016f50       ??_C@_08HCHEGEOA@November?$AA@ 004dbf50     libucrtd:nlsdata.obj
 0002:00016f5c       ??_C@_08EDHMEBNP@December?$AA@ 004dbf5c     libucrtd:nlsdata.obj
 0002:00016f68       ??_C@_02DEDBPAFC@AM?$AA@   004dbf68     libucrtd:nlsdata.obj
 0002:00016f6c       ??_C@_02CJNFDJBF@PM?$AA@   004dbf6c     libucrtd:nlsdata.obj
 0002:00016f70       ??_C@_08BPBNCDIB@MM?1dd?1yy?$AA@ 004dbf70     libucrtd:nlsdata.obj
 0002:00016f7c       ??_C@_0BE@CKGJFCPC@dddd?0?5MMMM?5dd?0?5yyyy?$AA@ 004dbf7c     libucrtd:nlsdata.obj
 0002:00016f94       ??_C@_08JCCMCCIL@HH?3mm?3ss?$AA@ 004dbf94     libucrtd:nlsdata.obj
 0002:00016fa0       ??_C@_17MBGCMIPB@?$AAS?$AAu?$AAn?$AA?$AA@ 004dbfa0     libucrtd:nlsdata.obj
 0002:00016fac       ??_C@_17KBOMKBF@?$AAM?$AAo?$AAn?$AA?$AA@ 004dbfac     libucrtd:nlsdata.obj
 0002:00016fb8       ??_C@_17BMKGEGOJ@?$AAT?$AAu?$AAe?$AA?$AA@ 004dbfb8     libucrtd:nlsdata.obj
 0002:00016fc4       ??_C@_17CJEDCEPE@?$AAW?$AAe?$AAd?$AA?$AA@ 004dbfc4     libucrtd:nlsdata.obj
 0002:00016fd0       ??_C@_17PDPHAADD@?$AAT?$AAh?$AAu?$AA?$AA@ 004dbfd0     libucrtd:nlsdata.obj
 0002:00016fdc       ??_C@_17HFOLPPLP@?$AAF?$AAr?$AAi?$AA?$AA@ 004dbfdc     libucrtd:nlsdata.obj
 0002:00016fe8       ??_C@_17GGIBDPIH@?$AAS?$AAa?$AAt?$AA?$AA@ 004dbfe8     libucrtd:nlsdata.obj
 0002:00016ff4       ??_C@_1O@IHNHDHPB@?$AAS?$AAu?$AAn?$AAd?$AAa?$AAy?$AA?$AA@ 004dbff4     libucrtd:nlsdata.obj
 0002:00017004       ??_C@_1O@MMNBFLIA@?$AAM?$AAo?$AAn?$AAd?$AAa?$AAy?$AA?$AA@ 004dc004     libucrtd:nlsdata.obj
 0002:00017014       ??_C@_1BA@ENFBFFEK@?$AAT?$AAu?$AAe?$AAs?$AAd?$AAa?$AAy?$AA?$AA@ 004dc014     libucrtd:nlsdata.obj
 0002:00017028       ??_C@_1BE@EBOGMDOH@?$AAW?$AAe?$AAd?$AAn?$AAe?$AAs?$AAd?$AAa?$AAy?$AA?$AA@ 004dc028     libucrtd:nlsdata.obj
 0002:00017040       ??_C@_1BC@HHMNLIHE@?$AAT?$AAh?$AAu?$AAr?$AAs?$AAd?$AAa?$AAy?$AA?$AA@ 004dc040     libucrtd:nlsdata.obj
 0002:00017058       ??_C@_1O@PDICJHAG@?$AAF?$AAr?$AAi?$AAd?$AAa?$AAy?$AA?$AA@ 004dc058     libucrtd:nlsdata.obj
 0002:00017068       ??_C@_1BC@ENMNNPAJ@?$AAS?$AAa?$AAt?$AAu?$AAr?$AAd?$AAa?$AAy?$AA?$AA@ 004dc068     libucrtd:nlsdata.obj
 0002:00017080       ??_C@_17DKNBKCHM@?$AAJ?$AAa?$AAn?$AA?$AA@ 004dc080     libucrtd:nlsdata.obj
 0002:0001708c       ??_C@_17LMDJEKJN@?$AAF?$AAe?$AAb?$AA?$AA@ 004dc08c     libucrtd:nlsdata.obj
 0002:00017098       ??_C@_17CKNLEDEC@?$AAM?$AAa?$AAr?$AA?$AA@ 004dc098     libucrtd:nlsdata.obj
 0002:000170a4       ??_C@_17LFPOIHDD@?$AAA?$AAp?$AAr?$AA?$AA@ 004dc0a4     libucrtd:nlsdata.obj
 0002:000170b0       ??_C@_17PNNKMEED@?$AAM?$AAa?$AAy?$AA?$AA@ 004dc0b0     libucrtd:nlsdata.obj
 0002:000170bc       ??_C@_17KCJGOCPB@?$AAJ?$AAu?$AAn?$AA?$AA@ 004dc0bc     libucrtd:nlsdata.obj
 0002:000170c8       ??_C@_17IJPCKHK@?$AAJ?$AAu?$AAl?$AA?$AA@ 004dc0c8     libucrtd:nlsdata.obj
 0002:000170d4       ??_C@_17ICPELBCN@?$AAA?$AAu?$AAg?$AA?$AA@ 004dc0d4     libucrtd:nlsdata.obj
 0002:000170e0       ??_C@_17HCHCOKMG@?$AAS?$AAe?$AAp?$AA?$AA@ 004dc0e0     libucrtd:nlsdata.obj
 0002:000170ec       ??_C@_17FNLKOI@?$AAO?$AAc?$AAt?$AA?$AA@ 004dc0ec     libucrtd:nlsdata.obj
 0002:000170f8       ??_C@_17BBDMLCIG@?$AAN?$AAo?$AAv?$AA?$AA@ 004dc0f8     libucrtd:nlsdata.obj
 0002:00017104       ??_C@_17EGKACKIF@?$AAD?$AAe?$AAc?$AA?$AA@ 004dc104     libucrtd:nlsdata.obj
 0002:00017110       ??_C@_1BA@EFMEIEBA@?$AAJ?$AAa?$AAn?$AAu?$AAa?$AAr?$AAy?$AA?$AA@ 004dc110     libucrtd:nlsdata.obj
 0002:00017124       ??_C@_1BC@JGDDFFAM@?$AAF?$AAe?$AAb?$AAr?$AAu?$AAa?$AAr?$AAy?$AA?$AA@ 004dc124     libucrtd:nlsdata.obj
 0002:0001713c       ??_C@_1M@IKEENEDF@?$AAM?$AAa?$AAr?$AAc?$AAh?$AA?$AA@ 004dc13c     libucrtd:nlsdata.obj
 0002:0001714c       ??_C@_1M@GJNLMHFD@?$AAA?$AAp?$AAr?$AAi?$AAl?$AA?$AA@ 004dc14c     libucrtd:nlsdata.obj
 0002:0001715c       ??_C@_19EPFLPGAP@?$AAJ?$AAu?$AAn?$AAe?$AA?$AA@ 004dc15c     libucrtd:nlsdata.obj
 0002:00017168       ??_C@_19BIFMLPCD@?$AAJ?$AAu?$AAl?$AAy?$AA?$AA@ 004dc168     libucrtd:nlsdata.obj
 0002:00017174       ??_C@_1O@PAHLKOAC@?$AAA?$AAu?$AAg?$AAu?$AAs?$AAt?$AA?$AA@ 004dc174     libucrtd:nlsdata.obj
 0002:00017184       ??_C@_1BE@DKAAMBJL@?$AAS?$AAe?$AAp?$AAt?$AAe?$AAm?$AAb?$AAe?$AAr?$AA?$AA@ 004dc184     libucrtd:nlsdata.obj
 0002:0001719c       ??_C@_1BA@EPANDLNG@?$AAO?$AAc?$AAt?$AAo?$AAb?$AAe?$AAr?$AA?$AA@ 004dc19c     libucrtd:nlsdata.obj
 0002:000171b0       ??_C@_1BC@BGLIFPF@?$AAN?$AAo?$AAv?$AAe?$AAm?$AAb?$AAe?$AAr?$AA?$AA@ 004dc1b0     libucrtd:nlsdata.obj
 0002:000171c8       ??_C@_1BC@FEMKIFH@?$AAD?$AAe?$AAc?$AAe?$AAm?$AAb?$AAe?$AAr?$AA?$AA@ 004dc1c8     libucrtd:nlsdata.obj
 0002:000171e0       ??_C@_15ODEHAHHF@?$AAA?$AAM?$AA?$AA@ 004dc1e0     libucrtd:nlsdata.obj
 0002:000171e8       ??_C@_15CLMNNGEL@?$AAP?$AAM?$AA?$AA@ 004dc1e8     libucrtd:nlsdata.obj
 0002:000171f0       ??_C@_1BC@IEBCMHCM@?$AAM?$AAM?$AA?1?$AAd?$AAd?$AA?1?$AAy?$AAy?$AA?$AA@ 004dc1f0     libucrtd:nlsdata.obj
 0002:00017208       ??_C@_1CI@KNAKOEBC@?$AAd?$AAd?$AAd?$AAd?$AA?0?$AA?5?$AAM?$AAM?$AAM?$AAM?$AA?5?$AAd?$AAd?$AA?0?$AA?5?$AAy?$AAy?$AAy?$AAy?$AA?$AA@ 004dc208     libucrtd:nlsdata.obj
 0002:00017238       ??_C@_1BC@GDGBMEMK@?$AAH?$AAH?$AA?3?$AAm?$AAm?$AA?3?$AAs?$AAs?$AA?$AA@ 004dc238     libucrtd:nlsdata.obj
 0002:00017250       ??_C@_1M@BMHNFIME@?$AAe?$AAn?$AA?9?$AAU?$AAS?$AA?$AA@ 004dc250     libucrtd:nlsdata.obj
 0002:00017260       ___lc_time_c               004dc260     libucrtd:nlsdata.obj
 0002:00017470       ??_C@_1EG@CNNIPFIM@?$AAa?$AAp?$AAi?$AA?9?$AAm?$AAs?$AA?9?$AAw?$AAi?$AAn?$AA?9?$AAa?$AAp?$AAp?$AAm?$AAo?$AAd?$AAe?$AAl?$AA?9?$AAr?$AAu?$AAn?$AAt?$AAi?$AAm?$AAe?$AA?9?$AAl?$AA1?$AA?9?$AA1@ 004dc470     libucrtd:winapi_thunks.obj
 0002:000174c8       ??_C@_1EA@JGEFHKEI@?$AAa?$AAp?$AAi?$AA?9?$AAm?$AAs?$AA?9?$AAw?$AAi?$AAn?$AA?9?$AAc?$AAo?$AAr?$AAe?$AA?9?$AAd?$AAa?$AAt?$AAe?$AAt?$AAi?$AAm?$AAe?$AA?9?$AAl?$AA1?$AA?9?$AA1?$AA?9?$AA1?$AA?$AA@ 004dc4c8     libucrtd:winapi_thunks.obj
 0002:00017514       ??_C@_1DI@GCIAAENM@?$AAa?$AAp?$AAi?$AA?9?$AAm?$AAs?$AA?9?$AAw?$AAi?$AAn?$AA?9?$AAc?$AAo?$AAr?$AAe?$AA?9?$AAf?$AAi?$AAl?$AAe?$AA?9?$AAl?$AA2?$AA?9?$AA1?$AA?9?$AA1?$AA?$AA@ 004dc514     libucrtd:winapi_thunks.obj
 0002:00017558       ??_C@_1EI@MPIAOHOC@?$AAa?$AAp?$AAi?$AA?9?$AAm?$AAs?$AA?9?$AAw?$AAi?$AAn?$AA?9?$AAc?$AAo?$AAr?$AAe?$AA?9?$AAl?$AAo?$AAc?$AAa?$AAl?$AAi?$AAz?$AAa?$AAt?$AAi?$AAo?$AAn?$AA?9?$AAl?$AA1?$AA?9@ 004dc558     libucrtd:winapi_thunks.obj
 0002:000175b0       ??_C@_1FK@FPHCKFIE@?$AAa?$AAp?$AAi?$AA?9?$AAm?$AAs?$AA?9?$AAw?$AAi?$AAn?$AA?9?$AAc?$AAo?$AAr?$AAe?$AA?9?$AAl?$AAo?$AAc?$AAa?$AAl?$AAi?$AAz?$AAa?$AAt?$AAi?$AAo?$AAn?$AA?9?$AAo?$AAb?$AAs@ 004dc5b0     libucrtd:winapi_thunks.obj
 0002:00017620       ??_C@_1EM@DILCGIIO@?$AAa?$AAp?$AAi?$AA?9?$AAm?$AAs?$AA?9?$AAw?$AAi?$AAn?$AA?9?$AAc?$AAo?$AAr?$AAe?$AA?9?$AAp?$AAr?$AAo?$AAc?$AAe?$AAs?$AAs?$AAt?$AAh?$AAr?$AAe?$AAa?$AAd?$AAs?$AA?9?$AAl@ 004dc620     libucrtd:winapi_thunks.obj
 0002:0001767c       ??_C@_1DM@LNCGDDPN@?$AAa?$AAp?$AAi?$AA?9?$AAm?$AAs?$AA?9?$AAw?$AAi?$AAn?$AA?9?$AAc?$AAo?$AAr?$AAe?$AA?9?$AAs?$AAt?$AAr?$AAi?$AAn?$AAg?$AA?9?$AAl?$AA1?$AA?9?$AA1?$AA?9?$AA0?$AA?$AA@ 004dc67c     libucrtd:winapi_thunks.obj
 0002:000176c4       ??_C@_1DO@FPAPJEMD@?$AAa?$AAp?$AAi?$AA?9?$AAm?$AAs?$AA?9?$AAw?$AAi?$AAn?$AA?9?$AAc?$AAo?$AAr?$AAe?$AA?9?$AAs?$AAy?$AAs?$AAi?$AAn?$AAf?$AAo?$AA?9?$AAl?$AA1?$AA?9?$AA2?$AA?9?$AA1?$AA?$AA@ 004dc6c4     libucrtd:winapi_thunks.obj
 0002:00017710       ??_C@_1DK@NDHNAHIO@?$AAa?$AAp?$AAi?$AA?9?$AAm?$AAs?$AA?9?$AAw?$AAi?$AAn?$AA?9?$AAc?$AAo?$AAr?$AAe?$AA?9?$AAw?$AAi?$AAn?$AAr?$AAt?$AA?9?$AAl?$AA1?$AA?9?$AA1?$AA?9?$AA0?$AA?$AA@ 004dc710     libucrtd:winapi_thunks.obj
 0002:00017758       ??_C@_1DM@KGHDGBCM@?$AAa?$AAp?$AAi?$AA?9?$AAm?$AAs?$AA?9?$AAw?$AAi?$AAn?$AA?9?$AAc?$AAo?$AAr?$AAe?$AA?9?$AAx?$AAs?$AAt?$AAa?$AAt?$AAe?$AA?9?$AAl?$AA2?$AA?9?$AA1?$AA?9?$AA0?$AA?$AA@ 004dc758     libucrtd:winapi_thunks.obj
 0002:000177a0       ??_C@_1EO@IJIOEFOH@?$AAa?$AAp?$AAi?$AA?9?$AAm?$AAs?$AA?9?$AAw?$AAi?$AAn?$AA?9?$AAr?$AAt?$AAc?$AAo?$AAr?$AAe?$AA?9?$AAn?$AAt?$AAu?$AAs?$AAe?$AAr?$AA?9?$AAw?$AAi?$AAn?$AAd?$AAo?$AAw?$AA?9@ 004dc7a0     libucrtd:winapi_thunks.obj
 0002:00017800       ??_C@_1FG@HHGEKANL@?$AAa?$AAp?$AAi?$AA?9?$AAm?$AAs?$AA?9?$AAw?$AAi?$AAn?$AA?9?$AAs?$AAe?$AAc?$AAu?$AAr?$AAi?$AAt?$AAy?$AA?9?$AAs?$AAy?$AAs?$AAt?$AAe?$AAm?$AAf?$AAu?$AAn?$AAc?$AAt?$AAi@ 004dc800     libucrtd:winapi_thunks.obj
 0002:00017868       ??_C@_1FG@NCKKOLKO@?$AAe?$AAx?$AAt?$AA?9?$AAm?$AAs?$AA?9?$AAw?$AAi?$AAn?$AA?9?$AAk?$AAe?$AAr?$AAn?$AAe?$AAl?$AA3?$AA2?$AA?9?$AAp?$AAa?$AAc?$AAk?$AAa?$AAg?$AAe?$AA?9?$AAc?$AAu?$AAr?$AAr@ 004dc868     libucrtd:winapi_thunks.obj
 0002:000178d0       ??_C@_1EG@DBIOJECG@?$AAe?$AAx?$AAt?$AA?9?$AAm?$AAs?$AA?9?$AAw?$AAi?$AAn?$AA?9?$AAn?$AAt?$AAu?$AAs?$AAe?$AAr?$AA?9?$AAd?$AAi?$AAa?$AAl?$AAo?$AAg?$AAb?$AAo?$AAx?$AA?9?$AAl?$AA1?$AA?9?$AA1@ 004dc8d0     libucrtd:winapi_thunks.obj
 0002:00017928       ??_C@_1EO@FIHMJCLF@?$AAe?$AAx?$AAt?$AA?9?$AAm?$AAs?$AA?9?$AAw?$AAi?$AAn?$AA?9?$AAn?$AAt?$AAu?$AAs?$AAe?$AAr?$AA?9?$AAw?$AAi?$AAn?$AAd?$AAo?$AAw?$AAs?$AAt?$AAa?$AAt?$AAi?$AAo?$AAn?$AA?9@ 004dc928     libucrtd:winapi_thunks.obj
 0002:00017988       ??_C@_1O@BCCLBEOE@?$AAu?$AAs?$AAe?$AAr?$AA3?$AA2?$AA?$AA@ 004dc988     libucrtd:winapi_thunks.obj
 0002:00017998       ??_C@_1HE@OILMBOBA@?$AAm?$AAi?$AAn?$AAk?$AAe?$AAr?$AAn?$AAe?$AAl?$AA?2?$AAc?$AAr?$AAt?$AAs?$AA?2?$AAu?$AAc?$AAr?$AAt?$AA?2?$AAs?$AAr?$AAc?$AA?2?$AAa?$AAp?$AAp?$AAc?$AAr?$AAt?$AA?2?$AAi@ 004dc998     libucrtd:winapi_thunks.obj
 0002:00017a28       ??_C@_0BA@FHFNEAED@AreFileApisANSI?$AA@ 004dca28     libucrtd:winapi_thunks.obj
 0002:00017a48       ??_C@_0BA@IHGNDAEB@CompareStringEx?$AA@ 004dca48     libucrtd:winapi_thunks.obj
 0002:00017a68       ??_C@_0BE@LJANKFHF@EnumSystemLocalesEx?$AA@ 004dca68     libucrtd:winapi_thunks.obj
 0002:00017abc       ??_C@_0BA@HNOPNCHB@GetActiveWindow?$AA@ 004dcabc     libucrtd:winapi_thunks.obj
 0002:00017adc       ??_C@_0BE@JOGNEJCI@GetCurrentPackageId?$AA@ 004dcadc     libucrtd:winapi_thunks.obj
 0002:00017b00       ??_C@_0BA@EPCJIIPD@GetDateFormatEx?$AA@ 004dcb00     libucrtd:winapi_thunks.obj
 0002:00017b20       ??_C@_0BJ@DIBIJBHA@GetEnabledXStateFeatures?$AA@ 004dcb20     libucrtd:winapi_thunks.obj
 0002:00017b4c       ??_C@_0BN@NEEHBBPO@GetFileInformationByHandleEx?$AA@ 004dcb4c     libucrtd:winapi_thunks.obj
 0002:00017b7c       ??_C@_0BD@HHGDFDBJ@GetLastActivePopup?$AA@ 004dcb7c     libucrtd:winapi_thunks.obj
 0002:00017ba0       ??_C@_0BA@ONOKGCMP@GetLocaleInfoEx?$AA@ 004dcba0     libucrtd:winapi_thunks.obj
 0002:00017bc0       ??_C@_0BI@DFKBFLJE@GetProcessWindowStation?$AA@ 004dcbc0     libucrtd:winapi_thunks.obj
 0002:00017be0       ??_C@_0BP@FPNJPEJC@GetSystemTimePreciseAsFileTime?$AA@ 004dcbe0     libucrtd:winapi_thunks.obj
 0002:00017c14       ??_C@_0BA@CIJJKCJJ@GetTimeFormatEx?$AA@ 004dcc14     libucrtd:winapi_thunks.obj
 0002:00017c34       ??_C@_0BJ@PBCCBIPI@GetUserDefaultLocaleName?$AA@ 004dcc34     libucrtd:winapi_thunks.obj
 0002:00017c60       ??_C@_0BK@DEKFELLI@GetUserObjectInformationW?$AA@ 004dcc60     libucrtd:winapi_thunks.obj
 0002:00017c8c       ??_C@_0BG@IKLDMBLM@GetXStateFeaturesMask?$AA@ 004dcc8c     libucrtd:winapi_thunks.obj
 0002:00017cc0       ??_C@_0BC@CELBKLLA@IsValidLocaleName?$AA@ 004dccc0     libucrtd:winapi_thunks.obj
 0002:00017ce4       ??_C@_0O@KKBNKAPF@LCMapStringEx?$AA@ 004dcce4     libucrtd:winapi_thunks.obj
 0002:00017d00       ??_C@_0BB@CDHDDLLP@LCIDToLocaleName?$AA@ 004dcd00     libucrtd:winapi_thunks.obj
 0002:00017d20       ??_C@_0BB@HBDEELFH@LocaleNameToLCID?$AA@ 004dcd20     libucrtd:winapi_thunks.obj
 0002:00017d40       ??_C@_0BE@KINNKFDA@LocateXStateFeature?$AA@ 004dcd40     libucrtd:winapi_thunks.obj
 0002:00017d64       ??_C@_0M@CHKKJDAI@MessageBoxA?$AA@ 004dcd64     libucrtd:winapi_thunks.obj
 0002:00017d80       ??_C@_0M@DLDCCGNP@MessageBoxW?$AA@ 004dcd80     libucrtd:winapi_thunks.obj
 0002:00017d94       ??_C@_0N@PPOMPGGK@RoInitialize?$AA@ 004dcd94     libucrtd:winapi_thunks.obj
 0002:00017da8       ??_C@_0P@LLFHBIJD@RoUninitialize?$AA@ 004dcda8     libucrtd:winapi_thunks.obj
 0002:00017dc8       ??_C@_0BI@BKLFFAPO@SetThreadStackGuarantee?$AA@ 004dcdc8     libucrtd:winapi_thunks.obj
 0002:00017df0       ??_C@_0BC@JEAENNKH@SystemFunction036?$AA@ 004dcdf0     libucrtd:winapi_thunks.obj
 0002:00017e08       ??_C@_1DC@JKJAOJNC@?$AAc?$AAa?$AAc?$AAh?$AAe?$AAd?$AA_?$AAs?$AAt?$AAa?$AAt?$AAe?$AA?5?$AA?$DN?$AA?$DN?$AA?5?$AAp?$AAa?$AAc?$AAk?$AAa?$AAg?$AAe?$AAd?$AA?$AA@ 004dce08     libucrtd:winapi_thunks.obj
 0002:00017e44       ??_C@_1DK@JOPMHFDB@?$AAc?$AAa?$AAc?$AAh?$AAe?$AAd?$AA_?$AAs?$AAt?$AAa?$AAt?$AAe?$AA?5?$AA?$DN?$AA?$DN?$AA?5?$AAn?$AAo?$AAt?$AA_?$AAp?$AAa?$AAc?$AAk?$AAa?$AAg?$AAe?$AAd?$AA?$AA@ 004dce44     libucrtd:winapi_thunks.obj
 0002:00017e90       ??_C@_1GE@GPOPIOIG@?$AAm?$AAi?$AAn?$AAk?$AAe?$AAr?$AAn?$AAe?$AAl?$AA?2?$AAc?$AAr?$AAt?$AAs?$AA?2?$AAu?$AAc?$AAr?$AAt?$AA?2?$AAs?$AAr?$AAc?$AA?2?$AAa?$AAp?$AAp?$AAc?$AAr?$AAt?$AA?2?$AAs@ 004dce90     libucrtd:_freebuf.obj
 0002:00017f08       ??_C@_1GA@MGFNAPEH@?$AAm?$AAi?$AAn?$AAk?$AAe?$AAr?$AAn?$AAe?$AAl?$AA?2?$AAc?$AAr?$AAt?$AAs?$AA?2?$AAu?$AAc?$AAr?$AAt?$AA?2?$AAs?$AAr?$AAc?$AA?2?$AAa?$AAp?$AAp?$AAc?$AAr?$AAt?$AA?2?$AAs@ 004dcf08     libucrtd:fgetwc.obj
 0002:00017f7c       ??_C@_1O@CGPBPCOK@?$AAf?$AAg?$AAe?$AAt?$AAw?$AAc?$AA?$AA@ 004dcf7c     libucrtd:fgetwc.obj
 0002:00017f90       ??_C@_1FO@HEEKIEFN@?$AAm?$AAi?$AAn?$AAk?$AAe?$AAr?$AAn?$AAe?$AAl?$AA?2?$AAc?$AAr?$AAt?$AAs?$AA?2?$AAu?$AAc?$AAr?$AAt?$AA?2?$AAs?$AAr?$AAc?$AA?2?$AAa?$AAp?$AAp?$AAc?$AAr?$AAt?$AA?2?$AAs@ 004dcf90     libucrtd:fgetc.obj
 0002:00018000       ??_C@_1BM@ODJEACKA@?$AA_?$AAf?$AAg?$AAe?$AAt?$AAc?$AA_?$AAn?$AAo?$AAl?$AAo?$AAc?$AAk?$AA?$AA@ 004dd000     libucrtd:fgetc.obj
 0002:00018024       ??_C@_1M@FBFFFGJE@?$AAf?$AAg?$AAe?$AAt?$AAc?$AA?$AA@ 004dd024     libucrtd:fgetc.obj
 0002:00018038       ??_C@_1GA@DKNOMDCL@?$AAm?$AAi?$AAn?$AAk?$AAe?$AAr?$AAn?$AAe?$AAl?$AA?2?$AAc?$AAr?$AAt?$AAs?$AA?2?$AAu?$AAc?$AAr?$AAt?$AA?2?$AAs?$AAr?$AAc?$AA?2?$AAa?$AAp?$AAp?$AAc?$AAr?$AAt?$AA?2?$AAs@ 004dd038     libucrtd:fclose.obj
 0002:000180ac       ??_C@_1O@EGMJNCOI@?$AAf?$AAc?$AAl?$AAo?$AAs?$AAe?$AA?$AA@ 004dd0ac     libucrtd:fclose.obj
 0002:000180bc       ??_C@_1BO@JINCABEC@?$AA_?$AAf?$AAc?$AAl?$AAo?$AAs?$AAe?$AA_?$AAn?$AAo?$AAl?$AAo?$AAc?$AAk?$AA?$AA@ 004dd0bc     libucrtd:fclose.obj
 0002:000180e0       ??_C@_1CK@LLOEFJJG@?$AAf?$AAi?$AAl?$AAe?$AA_?$AAn?$AAa?$AAm?$AAe?$AA?5?$AA?$CB?$AA?$DN?$AA?5?$AAn?$AAu?$AAl?$AAl?$AAp?$AAt?$AAr?$AA?$AA@ 004dd0e0     libucrtd:openfile.obj
 0002:00018118       ??_C@_1GE@HEEFEAFI@?$AAm?$AAi?$AAn?$AAk?$AAe?$AAr?$AAn?$AAe?$AAl?$AA?2?$AAc?$AAr?$AAt?$AAs?$AA?2?$AAu?$AAc?$AAr?$AAt?$AA?2?$AAs?$AAr?$AAc?$AA?2?$AAa?$AAp?$AAp?$AAc?$AAr?$AAt?$AA?2?$AAs@ 004dd118     libucrtd:openfile.obj
 0002:00018190       ??_C@_1DM@FOFGGBBM@?$AA?$CI?$AA?$CC?$AAI?$AAn?$AAv?$AAa?$AAl?$AAi?$AAd?$AA?5?$AAf?$AAi?$AAl?$AAe?$AA?5?$AAo?$AAp?$AAe?$AAn?$AA?5?$AAm?$AAo?$AAd?$AAe?$AA?$CC?$AA?0?$AA?5?$AA0?$AA?$CJ?$AA?$AA@ 004dd190     libucrtd:openfile.obj
 0002:000181d8       ??_C@_1DA@KPIHAHGC@?$AA_?$AA_?$AAa?$AAc?$AAr?$AAt?$AA_?$AAs?$AAt?$AAd?$AAi?$AAo?$AA_?$AAp?$AAa?$AAr?$AAs?$AAe?$AA_?$AAm?$AAo?$AAd?$AAe?$AA?$AA@ 004dd1d8     libucrtd:openfile.obj
 0002:00018214       ??_C@_1BI@PDNFEGCG@?$AA?$CK?$AAi?$AAt?$AA?5?$AA?$DN?$AA?$DN?$AA?5?$AA?8?$AA?2?$AA0?$AA?8?$AA?$AA@ 004dd214     libucrtd:openfile.obj
 0002:00018230       ?ccs@?BL@???$__acrt_stdio_parse_mode@D@@YA?AU__acrt_stdio_stream_mode@@QBD@Z@4QBDB 004dd230     libucrtd:openfile.obj
 0002:00018234       ?utf8_encoding@?BL@???$__acrt_stdio_parse_mode@D@@YA?AU__acrt_stdio_stream_mode@@QBD@Z@4QBDB 004dd234     libucrtd:openfile.obj
 0002:0001823c       ?utf16_encoding@?BL@???$__acrt_stdio_parse_mode@D@@YA?AU__acrt_stdio_stream_mode@@QBD@Z@4QBDB 004dd23c     libucrtd:openfile.obj
 0002:00018248       ?unicode_encoding@?BL@???$__acrt_stdio_parse_mode@D@@YA?AU__acrt_stdio_stream_mode@@QBD@Z@4QBDB 004dd248     libucrtd:openfile.obj
 0002:00018250       ?ccs@?BL@???$__acrt_stdio_parse_mode@_W@@YA?AU__acrt_stdio_stream_mode@@QB_W@Z@4QB_WB 004dd250     libucrtd:openfile.obj
 0002:00018258       ?utf8_encoding@?BL@???$__acrt_stdio_parse_mode@_W@@YA?AU__acrt_stdio_stream_mode@@QB_W@Z@4QB_WB 004dd258     libucrtd:openfile.obj
 0002:00018264       ?utf16_encoding@?BL@???$__acrt_stdio_parse_mode@_W@@YA?AU__acrt_stdio_stream_mode@@QB_W@Z@4QB_WB 004dd264     libucrtd:openfile.obj
 0002:00018278       ?unicode_encoding@?BL@???$__acrt_stdio_parse_mode@_W@@YA?AU__acrt_stdio_stream_mode@@QB_W@Z@4QB_WB 004dd278     libucrtd:openfile.obj
 0002:00018288       ??_C@_1GA@JFCHAOOC@?$AAm?$AAi?$AAn?$AAk?$AAe?$AAr?$AAn?$AAe?$AAl?$AA?2?$AAc?$AAr?$AAt?$AAs?$AA?2?$AAu?$AAc?$AAr?$AAt?$AA?2?$AAs?$AAr?$AAc?$AA?2?$AAa?$AAp?$AAp?$AAc?$AAr?$AAt?$AA?2?$AAs@ 004dd288     libucrtd:fwrite.obj
 0002:000182fc       ??_C@_1O@KLNKIMAP@?$AAf?$AAw?$AAr?$AAi?$AAt?$AAe?$AA?$AA@ 004dd2fc     libucrtd:fwrite.obj
 0002:0001830c       ??_C@_1BO@JGPKCBCE@?$AA_?$AAf?$AAw?$AAr?$AAi?$AAt?$AAe?$AA_?$AAn?$AAo?$AAl?$AAo?$AAc?$AAk?$AA?$AA@ 004dd30c     libucrtd:fwrite.obj
 0002:00018330       ??_C@_1FG@KLKDPCLL@?$AAe?$AAl?$AAe?$AAm?$AAe?$AAn?$AAt?$AA_?$AAc?$AAo?$AAu?$AAn?$AAt?$AA?5?$AA?$DM?$AA?$DN?$AA?5?$AA?$CI?$AAS?$AAI?$AAZ?$AAE?$AA_?$AAM?$AAA?$AAX?$AA?5?$AA?1?$AA?5?$AAe?$AAl?$AAe@ 004dd330     libucrtd:fwrite.obj
 0002:00018398       ??_C@_1LG@DCNDJCHK@?$AA?$CI?$AA?$CC?$AAI?$AAn?$AAc?$AAo?$AAn?$AAs?$AAi?$AAs?$AAt?$AAe?$AAn?$AAt?$AA?5?$AAS?$AAt?$AAr?$AAe?$AAa?$AAm?$AA?5?$AAC?$AAo?$AAu?$AAn?$AAt?$AA?4?$AA?5?$AAF?$AAl?$AAu@ 004dd398     libucrtd:fwrite.obj
 0002:00018474       ??_C@_1CI@JELMFMDH@?$AAc?$AA?5?$AA?$DO?$AA?$DN?$AA?5?$AA?9?$AA1?$AA?5?$AA?$CG?$AA?$CG?$AA?5?$AAc?$AA?5?$AA?$DM?$AA?$DN?$AA?5?$AA2?$AA5?$AA5?$AA?$AA@ 004dd474     libucrtd:isctype.obj
 0002:000184a8       ??_C@_1GG@KPBGDFHJ@?$AAm?$AAi?$AAn?$AAk?$AAe?$AAr?$AAn?$AAe?$AAl?$AA?2?$AAc?$AAr?$AAt?$AAs?$AA?2?$AAu?$AAc?$AAr?$AAt?$AA?2?$AAs?$AAr?$AAc?$AA?2?$AAa?$AAp?$AAp?$AAc?$AAr?$AAt?$AA?2?$AAc@ 004dd4a8     libucrtd:isctype.obj
 0002:00018528       ??_C@_1FE@KNPCCODH@?$AA?$CI?$AA?$CC?$AAC?$AAo?$AAr?$AAr?$AAu?$AAp?$AAt?$AAe?$AAd?$AA?5?$AAp?$AAo?$AAi?$AAn?$AAt?$AAe?$AAr?$AA?5?$AAp?$AAa?$AAs?$AAs?$AAe?$AAd?$AA?5?$AAt?$AAo?$AA?5?$AA_?$AAf@ 004dd528     libucrtd:lcmapstringa.obj
 0002:00018590       ??_C@_1HG@NGPLHMCI@?$AAm?$AAi?$AAn?$AAk?$AAe?$AAr?$AAn?$AAe?$AAl?$AA?2?$AAc?$AAr?$AAt?$AAs?$AA?2?$AAu?$AAc?$AAr?$AAt?$AA?2?$AAd?$AAe?$AAv?$AAd?$AAi?$AAv?$AA?2?$AAv?$AAc?$AAr?$AAu?$AAn@ 004dd590     libucrtd:lcmapstringa.obj
 0002:00018620       ??_C@_0DH@IKPCBLP@minkernel?2crts?2ucrt?2src?2appcrt?2l@ 004dd620     libucrtd:lcmapstringa.obj
 0002:000186b0       __indefinite               004dd6b0     libucrtd:87disp.obj
 0002:000186ba       __piby2                    004dd6ba     libucrtd:87disp.obj
 0002:000186c4       __piby4                    004dd6c4     libucrtd:87disp.obj
 0002:000186fc       ??_C@_1CC@CHNFGJIC@?$AAc?$AAo?$AAm?$AAm?$AAo?$AAn?$AA_?$AAt?$AAc?$AAs?$AAn?$AAc?$AAp?$AAy?$AA_?$AAs?$AA?$AA@ 004dd6fc     libucrtd:wcsncpy_s.obj
 0002:00018728       ??_C@_1HE@CEMHPOHH@?$AAm?$AAi?$AAn?$AAk?$AAe?$AAr?$AAn?$AAe?$AAl?$AA?2?$AAc?$AAr?$AAt?$AAs?$AA?2?$AAu?$AAc?$AAr?$AAt?$AA?2?$AAs?$AAr?$AAc?$AA?2?$AAa?$AAp?$AAp?$AAc?$AAr?$AAt?$AA?2?$AAs@ 004dd728     libucrtd:argv_wildcards.obj
 0002:000187b4       ??_C@_1DK@IBFFOJGB@?$AAc?$AAo?$AAm?$AAm?$AAo?$AAn?$AA_?$AAe?$AAx?$AAp?$AAa?$AAn?$AAd?$AA_?$AAa?$AAr?$AAg?$AAv?$AA_?$AAw?$AAi?$AAl?$AAd?$AAc?$AAa?$AAr?$AAd?$AAs?$AA?$AA@ 004dd7b4     libucrtd:argv_wildcards.obj
 0002:00018800       ??_C@_1MC@FLPKOFON@?$AAt?$AAr?$AAa?$AAi?$AAt?$AAs?$AA?3?$AA?3?$AAt?$AAc?$AAs?$AAn?$AAc?$AAp?$AAy?$AA_?$AAs?$AA?$CI?$AA?5?$AAc?$AAh?$AAa?$AAr?$AAa?$AAc?$AAt?$AAe?$AAr?$AA_?$AAi?$AAt?$AA?0@ 004dd800     libucrtd:argv_wildcards.obj
 0002:000188e8       ??_C@_0DK@FPFMIIJB@minkernel?2crts?2ucrt?2src?2appcrt?2s@ 004dd8e8     libucrtd:argv_wildcards.obj
 0002:00018930       ??_C@_1EA@KOCCBLAD@?$AAc?$AAo?$AAp?$AAy?$AA_?$AAa?$AAn?$AAd?$AA_?$AAa?$AAd?$AAd?$AA_?$AAa?$AAr?$AAg?$AAu?$AAm?$AAe?$AAn?$AAt?$AA_?$AAt?$AAo?$AA_?$AAb?$AAu?$AAf?$AAf?$AAe?$AAr?$AA?$AA@ 004dd930     libucrtd:argv_wildcards.obj
 0002:00018980       ??_C@_1KM@GDJIGAGL@?$AAt?$AAr?$AAa?$AAi?$AAt?$AAs?$AA?3?$AA?3?$AAt?$AAc?$AAs?$AAn?$AAc?$AAp?$AAy?$AA_?$AAs?$AA?$CI?$AAa?$AAr?$AAg?$AAu?$AAm?$AAe?$AAn?$AAt?$AA_?$AAb?$AAu?$AAf?$AAf?$AAe@ 004dd980     libucrtd:argv_wildcards.obj
 0002:00018a50       ??_C@_1PI@FGFLAGCC@?$AAt?$AAr?$AAa?$AAi?$AAt?$AAs?$AA?3?$AA?3?$AAt?$AAc?$AAs?$AAn?$AAc?$AAp?$AAy?$AA_?$AAs?$AA?$CI?$AA?5?$AAa?$AAr?$AAg?$AAu?$AAm?$AAe?$AAn?$AAt?$AA_?$AAb?$AAu?$AAf?$AAf@ 004dda50     libucrtd:argv_wildcards.obj
 0002:00018b90       ??_C@_1M@HPNHIDJI@?$AAj?$AAa?$AA?9?$AAJ?$AAP?$AA?$AA@ 004ddb90     libucrtd:mbctype.obj
 0002:00018ba0       ??_C@_1M@BIBDDEMK@?$AAz?$AAh?$AA?9?$AAC?$AAN?$AA?$AA@ 004ddba0     libucrtd:mbctype.obj
 0002:00018bb0       ??_C@_1M@JLOOOEGK@?$AAk?$AAo?$AA?9?$AAK?$AAR?$AA?$AA@ 004ddbb0     libucrtd:mbctype.obj
 0002:00018bc0       ??_C@_1M@CLNBBOPM@?$AAz?$AAh?$AA?9?$AAT?$AAW?$AA?$AA@ 004ddbc0     libucrtd:mbctype.obj
 0002:00018bd0       ??_C@_0DE@HGDKNBFD@minkernel?2crts?2ucrt?2src?2appcrt?2m@ 004ddbd0     libucrtd:mbctype.obj
 0002:00018c10       ??_C@_0ED@BLPEHJAI@minkernel?2crts?2ucrt?2src?2desktopc@ 004ddc10     libucrtd:get_environment_from_os.obj
 0002:00018c60       ??_C@_1DO@PANKIJNP@?$AAe?$AAq?$AAu?$AAa?$AAl?$AA_?$AAs?$AAi?$AAg?$AAn?$AA?5?$AA?9?$AA?5?$AAo?$AAp?$AAt?$AAi?$AAo?$AAn?$AA?5?$AA?$DM?$AA?5?$AA_?$AAM?$AAA?$AAX?$AA_?$AAE?$AAN?$AAV?$AA?$AA@ 004ddc60     libucrtd:setenv.obj
 0002:00018cb0       ??_C@_1GE@MMOHBENP@?$AAm?$AAi?$AAn?$AAk?$AAe?$AAr?$AAn?$AAe?$AAl?$AA?2?$AAc?$AAr?$AAt?$AAs?$AA?2?$AAu?$AAc?$AAr?$AAt?$AA?2?$AAs?$AAr?$AAc?$AA?2?$AAd?$AAe?$AAs?$AAk?$AAt?$AAo?$AAp?$AAc@ 004ddcb0     libucrtd:setenv.obj
 0002:00018d28       ??_C@_1GK@KBABANDM@?$AAt?$AAr?$AAa?$AAi?$AAt?$AAs?$AA?3?$AA?3?$AAt?$AAc?$AAs?$AAn?$AAl?$AAe?$AAn?$AA?$CI?$AAe?$AAq?$AAu?$AAa?$AAl?$AA_?$AAs?$AAi?$AAg?$AAn?$AA?5?$AA?$CL?$AA?5?$AA1?$AA?0?$AA?5@ 004ddd28     libucrtd:setenv.obj
 0002:00018da8       ??_C@_0DC@NJKMKCIL@minkernel?2crts?2ucrt?2src?2desktopc@ 004ddda8     libucrtd:setenv.obj
 0002:00018de8       ??_C@_1EC@IKJPFBIM@?$AA?$CI?$AA?$CC?$AAC?$AAR?$AAT?$AA?5?$AAl?$AAo?$AAg?$AAi?$AAc?$AA?5?$AAe?$AAr?$AAr?$AAo?$AAr?$AA?5?$AAi?$AAn?$AA?5?$AAs?$AAe?$AAt?$AAe?$AAn?$AAv?$AA?$CC?$AA?0?$AA?5?$AA0?$AA?$CJ@ 004ddde8     libucrtd:setenv.obj
 0002:00018e38       ??_C@_1FE@KHMDCEEJ@?$AAc?$AAo?$AAm?$AAm?$AAo?$AAn?$AA_?$AAs?$AAe?$AAt?$AA_?$AAv?$AAa?$AAr?$AAi?$AAa?$AAb?$AAl?$AAe?$AA_?$AAi?$AAn?$AA_?$AAe?$AAn?$AAv?$AAi?$AAr?$AAo?$AAn?$AAm?$AAe@ 004dde38     libucrtd:setenv.obj
 0002:00018ea0       ??_C@_1EM@NIOJJLEA@?$AAt?$AAr?$AAa?$AAi?$AAt?$AAs?$AA?3?$AA?3?$AAt?$AAc?$AAs?$AAc?$AAp?$AAy?$AA_?$AAs?$AA?$CI?$AAn?$AAa?$AAm?$AAe?$AA?0?$AA?5?$AAc?$AAo?$AAu?$AAn?$AAt?$AA?0?$AA?5?$AAo?$AAp@ 004ddea0     libucrtd:setenv.obj
 0002:00018efc       ??_C@_1CC@PIMGMDJH@?$AAc?$AAo?$AAp?$AAy?$AA_?$AAe?$AAn?$AAv?$AAi?$AAr?$AAo?$AAn?$AAm?$AAe?$AAn?$AAt?$AA?$AA@ 004ddefc     libucrtd:setenv.obj
 0002:00018f28       ??_C@_1GG@EDHOMIDL@?$AAt?$AAr?$AAa?$AAi?$AAt?$AAs?$AA?3?$AA?3?$AAt?$AAc?$AAs?$AAc?$AAp?$AAy?$AA_?$AAs?$AA?$CI?$AA?$CK?$AAn?$AAe?$AAw?$AA_?$AAi?$AAt?$AA?0?$AA?5?$AAr?$AAe?$AAq?$AAu?$AAi?$AAr@ 004ddf28     libucrtd:setenv.obj
 0002:00018fa4       ??_C@_0DB@JFFPGLDM@minkernel?2crts?2ucrt?2src?2appcrt?2l@ 004ddfa4     libucrtd:osfinfo.obj
 0002:00018fe0       ??_C@_1EM@BPODPNEJ@?$AAs?$AAt?$AAa?$AAt?$AAi?$AAc?$AA_?$AAc?$AAa?$AAs?$AAt?$AA?$DM?$AAu?$AAn?$AAs?$AAi?$AAg?$AAn?$AAe?$AAd?$AA?$DO?$AA?$CI?$AAf?$AAh?$AA?$CJ?$AA?5?$AA?$DM?$AA?5?$AA_?$AAN?$AAH?$AAA@ 004ddfe0     libucrtd:osfinfo.obj
 0002:00019040       ??_C@_1GC@LDGKBAFM@?$AAm?$AAi?$AAn?$AAk?$AAe?$AAr?$AAn?$AAe?$AAl?$AA?2?$AAc?$AAr?$AAt?$AAs?$AA?2?$AAu?$AAc?$AAr?$AAt?$AA?2?$AAs?$AAr?$AAc?$AA?2?$AAa?$AAp?$AAp?$AAc?$AAr?$AAt?$AA?2?$AAl@ 004de040     libucrtd:osfinfo.obj
 0002:000190b8       ??_C@_1DM@JELNOMLN@?$AA_?$AA_?$AAa?$AAc?$AAr?$AAt?$AA_?$AAl?$AAo?$AAw?$AAi?$AAo?$AA_?$AAe?$AAn?$AAs?$AAu?$AAr?$AAe?$AA_?$AAf?$AAh?$AA_?$AAe?$AAx?$AAi?$AAs?$AAt?$AAs?$AA?$AA@ 004de0b8     libucrtd:osfinfo.obj
 0002:00019100       ??_C@_1FK@MGHFJLAL@?$AAf?$AAh?$AA?5?$AA?$DO?$AA?$DN?$AA?5?$AA0?$AA?5?$AA?$CG?$AA?$CG?$AA?5?$AA?$CI?$AAu?$AAn?$AAs?$AAi?$AAg?$AAn?$AAe?$AAd?$AA?$CJ?$AAf?$AAh?$AA?5?$AA?$DM?$AA?5?$AA?$CI?$AAu?$AAn?$AAs?$AAi?$AAg@ 004de100     libucrtd:osfinfo.obj
 0002:0001916c       ??_C@_1BO@EMBOBGKE@?$AA_?$AAg?$AAe?$AAt?$AA_?$AAo?$AAs?$AAf?$AAh?$AAa?$AAn?$AAd?$AAl?$AAe?$AA?$AA@ 004de16c     libucrtd:osfinfo.obj
 0002:00019190       ??_C@_1CI@ILOIOBLM@?$AA_?$AAo?$AAs?$AAf?$AAi?$AAl?$AAe?$AA?$CI?$AAf?$AAh?$AA?$CJ?$AA?5?$AA?$CG?$AA?5?$AAF?$AAO?$AAP?$AAE?$AAN?$AA?$AA@ 004de190     libucrtd:osfinfo.obj
 0002:000191c0       __wctype                   004de1c0     libucrtd:ctype.obj
 0002:00019430       ___newctype                004de430     libucrtd:ctype.obj
 0002:000197d0       ___newclmap                004de7d0     libucrtd:ctype.obj
 0002:000199a0       ___newcumap                004de9a0     libucrtd:ctype.obj
 0002:00019b6c       ??_C@_0DE@PKCHMIOF@minkernel?2crts?2ucrt?2src?2appcrt?2l@ 004deb6c     libucrtd:initctype.obj
 0002:00019bb0       ??_C@_1GI@DPHPBMAL@?$AAm?$AAi?$AAn?$AAk?$AAe?$AAr?$AAn?$AAe?$AAl?$AA?2?$AAc?$AAr?$AAt?$AAs?$AA?2?$AAu?$AAc?$AAr?$AAt?$AA?2?$AAs?$AAr?$AAc?$AA?2?$AAa?$AAp?$AAp?$AAc?$AAr?$AAt?$AA?2?$AAl@ 004debb0     libucrtd:initctype.obj
 0002:00019c2c       ??_C@_1DG@NMBGBDM@?$AAp?$AAl?$AAo?$AAc?$AAi?$AA?9?$AA?$DO?$AAc?$AAt?$AAy?$AAp?$AAe?$AA1?$AA_?$AAr?$AAe?$AAf?$AAc?$AAo?$AAu?$AAn?$AAt?$AA?5?$AA?$DO?$AA?5?$AA0?$AA?$AA@ 004dec2c     libucrtd:initctype.obj
 0002:00019c6c       ??_C@_0DC@GMDOHFAP@minkernel?2crts?2ucrt?2src?2appcrt?2l@ 004dec6c     libucrtd:initmon.obj
 0002:00019ca8       ??_C@_1DM@GKAPAMDO@?$AAp?$AAl?$AAo?$AAc?$AAi?$AA?9?$AA?$DO?$AAl?$AAc?$AAo?$AAn?$AAv?$AA_?$AAm?$AAo?$AAn?$AA_?$AAr?$AAe?$AAf?$AAc?$AAo?$AAu?$AAn?$AAt?$AA?5?$AA?$DO?$AA?5?$AA0?$AA?$AA@ 004deca8     libucrtd:initmon.obj
 0002:00019cf0       ??_C@_1GE@IEFGCKMH@?$AAm?$AAi?$AAn?$AAk?$AAe?$AAr?$AAn?$AAe?$AAl?$AA?2?$AAc?$AAr?$AAt?$AAs?$AA?2?$AAu?$AAc?$AAr?$AAt?$AA?2?$AAs?$AAr?$AAc?$AA?2?$AAa?$AAp?$AAp?$AAc?$AAr?$AAt?$AA?2?$AAl@ 004decf0     libucrtd:initmon.obj
 0002:00019d68       ??_C@_0DC@KHILMDMC@minkernel?2crts?2ucrt?2src?2appcrt?2l@ 004ded68     libucrtd:initnum.obj
 0002:00019da4       ??_C@_1DM@IFKAINNE@?$AAp?$AAl?$AAo?$AAc?$AAi?$AA?9?$AA?$DO?$AAl?$AAc?$AAo?$AAn?$AAv?$AA_?$AAn?$AAu?$AAm?$AA_?$AAr?$AAe?$AAf?$AAc?$AAo?$AAu?$AAn?$AAt?$AA?5?$AA?$DO?$AA?5?$AA0?$AA?$AA@ 004deda4     libucrtd:initnum.obj
 0002:00019df0       ??_C@_1GE@GOIFKKDC@?$AAm?$AAi?$AAn?$AAk?$AAe?$AAr?$AAn?$AAe?$AAl?$AA?2?$AAc?$AAr?$AAt?$AAs?$AA?2?$AAu?$AAc?$AAr?$AAt?$AA?2?$AAs?$AAr?$AAc?$AA?2?$AAa?$AAp?$AAp?$AAc?$AAr?$AAt?$AA?2?$AAl@ 004dedf0     libucrtd:initnum.obj
 0002:00019e68       ??_C@_0DD@MPFICDAE@minkernel?2crts?2ucrt?2src?2appcrt?2l@ 004dee68     libucrtd:inittime.obj
 0002:00019ea8       ??_C@_1HK@HACABKKK@?$AA?$CI?$AA?$CC?$AAl?$AAc?$AA_?$AAt?$AAi?$AAm?$AAe?$AA_?$AAc?$AAu?$AAr?$AAr?$AA?5?$AAu?$AAn?$AAe?$AAx?$AAp?$AAe?$AAc?$AAt?$AAe?$AAd?$AAl?$AAy?$AA?5?$AAh?$AAa?$AAs?$AA?5@ 004deea8     libucrtd:inittime.obj
 0002:00019f40       ??_C@_1GG@BFOOANHJ@?$AAm?$AAi?$AAn?$AAk?$AAe?$AAr?$AAn?$AAe?$AAl?$AA?2?$AAc?$AAr?$AAt?$AAs?$AA?2?$AAu?$AAc?$AAr?$AAt?$AA?2?$AAs?$AAr?$AAc?$AA?2?$AAa?$AAp?$AAp?$AAc?$AAr?$AAt?$AA?2?$AAl@ 004def40     libucrtd:inittime.obj
 0002:00019fbc       ??_C@_0DJ@HCPJODDK@minkernel?2crts?2ucrt?2src?2appcrt?2l@ 004defbc     libucrtd:getstringtypea.obj
 0002:0001a000       ??_C@_1BKC@NBNHJIDM@?$AA?$CI?$AAp?$AAt?$AAl?$AAo?$AAc?$AAi?$AA?9?$AA?$DO?$AAl?$AAc?$AA_?$AAc?$AAa?$AAt?$AAe?$AAg?$AAo?$AAr?$AAy?$AA?$FL?$AAc?$AAa?$AAt?$AAe?$AAg?$AAo?$AAr?$AAy?$AA?$FN?$AA?4?$AAl@ 004df000     libucrtd:locale_refcounting.obj
 0002:0001a1f8       ??_C@_1HK@HCNMEOLA@?$AAm?$AAi?$AAn?$AAk?$AAe?$AAr?$AAn?$AAe?$AAl?$AA?2?$AAc?$AAr?$AAt?$AAs?$AA?2?$AAu?$AAc?$AAr?$AAt?$AA?2?$AAs?$AAr?$AAc?$AA?2?$AAa?$AAp?$AAp?$AAc?$AAr?$AAt?$AA?2?$AAl@ 004df1f8     libucrtd:locale_refcounting.obj
 0002:0001a28c       ??_C@_1BC@LLOKLNP@?$AAa?$AAm?$AAe?$AAr?$AAi?$AAc?$AAa?$AAn?$AA?$AA@ 004df28c     libucrtd:get_qualified_locale.obj
 0002:0001a2a4       ??_C@_1CC@HEIGCDGG@?$AAa?$AAm?$AAe?$AAr?$AAi?$AAc?$AAa?$AAn?$AA?5?$AAe?$AAn?$AAg?$AAl?$AAi?$AAs?$AAh?$AA?$AA@ 004df2a4     libucrtd:get_qualified_locale.obj
 0002:0001a2cc       ??_C@_1CC@IHCNOMIN@?$AAa?$AAm?$AAe?$AAr?$AAi?$AAc?$AAa?$AAn?$AA?9?$AAe?$AAn?$AAg?$AAl?$AAi?$AAs?$AAh?$AA?$AA@ 004df2cc     libucrtd:get_qualified_locale.obj
 0002:0001a2f4       ??_C@_1BG@GKAGPCGG@?$AAa?$AAu?$AAs?$AAt?$AAr?$AAa?$AAl?$AAi?$AAa?$AAn?$AA?$AA@ 004df2f4     libucrtd:get_qualified_locale.obj
 0002:0001a310       ??_C@_1BA@GMENCENF@?$AAb?$AAe?$AAl?$AAg?$AAi?$AAa?$AAn?$AA?$AA@ 004df310     libucrtd:get_qualified_locale.obj
 0002:0001a324       ??_C@_1BC@PJMIIAAN@?$AAc?$AAa?$AAn?$AAa?$AAd?$AAi?$AAa?$AAn?$AA?$AA@ 004df324     libucrtd:get_qualified_locale.obj
 0002:0001a33c       ??_C@_17NOIMNFBF@?$AAc?$AAh?$AAh?$AA?$AA@ 004df33c     libucrtd:get_qualified_locale.obj
 0002:0001a348       ??_C@_17GGDALCHA@?$AAc?$AAh?$AAi?$AA?$AA@ 004df348     libucrtd:get_qualified_locale.obj
 0002:0001a354       ??_C@_1BA@NPNJKIBL@?$AAc?$AAh?$AAi?$AAn?$AAe?$AAs?$AAe?$AA?$AA@ 004df354     libucrtd:get_qualified_locale.obj
 0002:0001a368       ??_C@_1CC@DINBAMMJ@?$AAc?$AAh?$AAi?$AAn?$AAe?$AAs?$AAe?$AA?9?$AAh?$AAo?$AAn?$AAg?$AAk?$AAo?$AAn?$AAg?$AA?$AA@ 004df368     libucrtd:get_qualified_locale.obj
 0002:0001a390       ??_C@_1CG@IOBJPACO@?$AAc?$AAh?$AAi?$AAn?$AAe?$AAs?$AAe?$AA?9?$AAs?$AAi?$AAm?$AAp?$AAl?$AAi?$AAf?$AAi?$AAe?$AAd?$AA?$AA@ 004df390     libucrtd:get_qualified_locale.obj
 0002:0001a3c0       ??_C@_1CE@GAJNDCKG@?$AAc?$AAh?$AAi?$AAn?$AAe?$AAs?$AAe?$AA?9?$AAs?$AAi?$AAn?$AAg?$AAa?$AAp?$AAo?$AAr?$AAe?$AA?$AA@ 004df3c0     libucrtd:get_qualified_locale.obj
 0002:0001a3ec       ??_C@_1CI@PAJPIOOD@?$AAc?$AAh?$AAi?$AAn?$AAe?$AAs?$AAe?$AA?9?$AAt?$AAr?$AAa?$AAd?$AAi?$AAt?$AAi?$AAo?$AAn?$AAa?$AAl?$AA?$AA@ 004df3ec     libucrtd:get_qualified_locale.obj
 0002:0001a41c       ??_C@_1BM@NILJBMMD@?$AAd?$AAu?$AAt?$AAc?$AAh?$AA?9?$AAb?$AAe?$AAl?$AAg?$AAi?$AAa?$AAn?$AA?$AA@ 004df41c     libucrtd:get_qualified_locale.obj
 0002:0001a440       ??_C@_1CC@OOJPJNEJ@?$AAe?$AAn?$AAg?$AAl?$AAi?$AAs?$AAh?$AA?9?$AAa?$AAm?$AAe?$AAr?$AAi?$AAc?$AAa?$AAn?$AA?$AA@ 004df440     libucrtd:get_qualified_locale.obj
 0002:0001a468       ??_C@_1BI@IOLFEEM@?$AAe?$AAn?$AAg?$AAl?$AAi?$AAs?$AAh?$AA?9?$AAa?$AAu?$AAs?$AA?$AA@ 004df468     libucrtd:get_qualified_locale.obj
 0002:0001a484       ??_C@_1BO@HFFNLENJ@?$AAe?$AAn?$AAg?$AAl?$AAi?$AAs?$AAh?$AA?9?$AAb?$AAe?$AAl?$AAi?$AAz?$AAe?$AA?$AA@ 004df484     libucrtd:get_qualified_locale.obj
 0002:0001a4a8       ??_C@_1BI@HAPKJMPO@?$AAe?$AAn?$AAg?$AAl?$AAi?$AAs?$AAh?$AA?9?$AAc?$AAa?$AAn?$AA?$AA@ 004df4a8     libucrtd:get_qualified_locale.obj
 0002:0001a4c4       ??_C@_1CE@HLNDMIOJ@?$AAe?$AAn?$AAg?$AAl?$AAi?$AAs?$AAh?$AA?9?$AAc?$AAa?$AAr?$AAi?$AAb?$AAb?$AAe?$AAa?$AAn?$AA?$AA@ 004df4c4     libucrtd:get_qualified_locale.obj
 0002:0001a4f0       ??_C@_1BI@LDHJHHAC@?$AAe?$AAn?$AAg?$AAl?$AAi?$AAs?$AAh?$AA?9?$AAi?$AAr?$AAe?$AA?$AA@ 004df4f0     libucrtd:get_qualified_locale.obj
 0002:0001a50c       ??_C@_1CA@NJMMCFOC@?$AAe?$AAn?$AAg?$AAl?$AAi?$AAs?$AAh?$AA?9?$AAj?$AAa?$AAm?$AAa?$AAi?$AAc?$AAa?$AA?$AA@ 004df50c     libucrtd:get_qualified_locale.obj
 0002:0001a534       ??_C@_1BG@BHJEBBGG@?$AAe?$AAn?$AAg?$AAl?$AAi?$AAs?$AAh?$AA?9?$AAn?$AAz?$AA?$AA@ 004df534     libucrtd:get_qualified_locale.obj
 0002:0001a550       ??_C@_1CK@FGOEJJCO@?$AAe?$AAn?$AAg?$AAl?$AAi?$AAs?$AAh?$AA?9?$AAs?$AAo?$AAu?$AAt?$AAh?$AA?5?$AAa?$AAf?$AAr?$AAi?$AAc?$AAa?$AA?$AA@ 004df550     libucrtd:get_qualified_locale.obj
 0002:0001a584       ??_C@_1DE@PDBJPCJ@?$AAe?$AAn?$AAg?$AAl?$AAi?$AAs?$AAh?$AA?9?$AAt?$AAr?$AAi?$AAn?$AAi?$AAd?$AAa?$AAd?$AA?5?$AAy?$AA?5?$AAt?$AAo?$AAb?$AAa?$AAg?$AAo?$AA?$AA@ 004df584     libucrtd:get_qualified_locale.obj
 0002:0001a5c4       ??_C@_1BG@JGCANDME@?$AAe?$AAn?$AAg?$AAl?$AAi?$AAs?$AAh?$AA?9?$AAu?$AAk?$AA?$AA@ 004df5c4     libucrtd:get_qualified_locale.obj
 0002:0001a5e0       ??_C@_1BG@DINKMLE@?$AAe?$AAn?$AAg?$AAl?$AAi?$AAs?$AAh?$AA?9?$AAu?$AAs?$AA?$AA@ 004df5e0     libucrtd:get_qualified_locale.obj
 0002:0001a5fc       ??_C@_1BI@NMFDBHJE@?$AAe?$AAn?$AAg?$AAl?$AAi?$AAs?$AAh?$AA?9?$AAu?$AAs?$AAa?$AA?$AA@ 004df5fc     libucrtd:get_qualified_locale.obj
 0002:0001a618       ??_C@_1BO@OIHKJKII@?$AAf?$AAr?$AAe?$AAn?$AAc?$AAh?$AA?9?$AAb?$AAe?$AAl?$AAg?$AAi?$AAa?$AAn?$AA?$AA@ 004df618     libucrtd:get_qualified_locale.obj
 0002:0001a63c       ??_C@_1CA@NKAELJKI@?$AAf?$AAr?$AAe?$AAn?$AAc?$AAh?$AA?9?$AAc?$AAa?$AAn?$AAa?$AAd?$AAi?$AAa?$AAn?$AA?$AA@ 004df63c     libucrtd:get_qualified_locale.obj
 0002:0001a664       ??_C@_1CE@MGKCNLGN@?$AAf?$AAr?$AAe?$AAn?$AAc?$AAh?$AA?9?$AAl?$AAu?$AAx?$AAe?$AAm?$AAb?$AAo?$AAu?$AAr?$AAg?$AA?$AA@ 004df664     libucrtd:get_qualified_locale.obj
 0002:0001a690       ??_C@_1BK@CEGEAILM@?$AAf?$AAr?$AAe?$AAn?$AAc?$AAh?$AA?9?$AAs?$AAw?$AAi?$AAs?$AAs?$AA?$AA@ 004df690     libucrtd:get_qualified_locale.obj
 0002:0001a6b0       ??_C@_1CA@PAFKEOCC@?$AAg?$AAe?$AAr?$AAm?$AAa?$AAn?$AA?9?$AAa?$AAu?$AAs?$AAt?$AAr?$AAi?$AAa?$AAn?$AA?$AA@ 004df6b0     libucrtd:get_qualified_locale.obj
 0002:0001a6d8       ??_C@_1CI@HCFHGOFD@?$AAg?$AAe?$AAr?$AAm?$AAa?$AAn?$AA?9?$AAl?$AAi?$AAc?$AAh?$AAt?$AAe?$AAn?$AAs?$AAt?$AAe?$AAi?$AAn?$AA?$AA@ 004df6d8     libucrtd:get_qualified_locale.obj
 0002:0001a708       ??_C@_1CE@FEDDNPDG@?$AAg?$AAe?$AAr?$AAm?$AAa?$AAn?$AA?9?$AAl?$AAu?$AAx?$AAe?$AAm?$AAb?$AAo?$AAu?$AAr?$AAg?$AA?$AA@ 004df708     libucrtd:get_qualified_locale.obj
 0002:0001a734       ??_C@_1BK@LIMINNMN@?$AAg?$AAe?$AAr?$AAm?$AAa?$AAn?$AA?9?$AAs?$AAw?$AAi?$AAs?$AAs?$AA?$AA@ 004df734     libucrtd:get_qualified_locale.obj
 0002:0001a754       ??_C@_1BM@LGMDBEPD@?$AAi?$AAr?$AAi?$AAs?$AAh?$AA?9?$AAe?$AAn?$AAg?$AAl?$AAi?$AAs?$AAh?$AA?$AA@ 004df754     libucrtd:get_qualified_locale.obj
 0002:0001a778       ??_C@_1BM@NNCFBAEE@?$AAi?$AAt?$AAa?$AAl?$AAi?$AAa?$AAn?$AA?9?$AAs?$AAw?$AAi?$AAs?$AAs?$AA?$AA@ 004df778     libucrtd:get_qualified_locale.obj
 0002:0001a79c       ??_C@_1BE@FEDJNPIB@?$AAn?$AAo?$AAr?$AAw?$AAe?$AAg?$AAi?$AAa?$AAn?$AA?$AA@ 004df79c     libucrtd:get_qualified_locale.obj
 0002:0001a7b4       ??_C@_1CC@CILKDEIE@?$AAn?$AAo?$AAr?$AAw?$AAe?$AAg?$AAi?$AAa?$AAn?$AA?9?$AAb?$AAo?$AAk?$AAm?$AAa?$AAl?$AA?$AA@ 004df7b4     libucrtd:get_qualified_locale.obj
 0002:0001a7dc       ??_C@_1CE@DHMMHEPL@?$AAn?$AAo?$AAr?$AAw?$AAe?$AAg?$AAi?$AAa?$AAn?$AA?9?$AAn?$AAy?$AAn?$AAo?$AAr?$AAs?$AAk?$AA?$AA@ 004df7dc     libucrtd:get_qualified_locale.obj
 0002:0001a808       ??_C@_1CK@OPNMHECD@?$AAp?$AAo?$AAr?$AAt?$AAu?$AAg?$AAu?$AAe?$AAs?$AAe?$AA?9?$AAb?$AAr?$AAa?$AAz?$AAi?$AAl?$AAi?$AAa?$AAn?$AA?$AA@ 004df808     libucrtd:get_qualified_locale.obj
 0002:0001a83c       ??_C@_1CE@KEEHCDB@?$AAs?$AAp?$AAa?$AAn?$AAi?$AAs?$AAh?$AA?9?$AAa?$AAr?$AAg?$AAe?$AAn?$AAt?$AAi?$AAn?$AAa?$AA?$AA@ 004df83c     libucrtd:get_qualified_locale.obj
 0002:0001a868       ??_C@_1CA@GIAOLHJD@?$AAs?$AAp?$AAa?$AAn?$AAi?$AAs?$AAh?$AA?9?$AAb?$AAo?$AAl?$AAi?$AAv?$AAi?$AAa?$AA?$AA@ 004df868     libucrtd:get_qualified_locale.obj
 0002:0001a890       ??_C@_1BM@OJNDFNPD@?$AAs?$AAp?$AAa?$AAn?$AAi?$AAs?$AAh?$AA?9?$AAc?$AAh?$AAi?$AAl?$AAe?$AA?$AA@ 004df890     libucrtd:get_qualified_locale.obj
 0002:0001a8b4       ??_C@_1CC@OCOLPALL@?$AAs?$AAp?$AAa?$AAn?$AAi?$AAs?$AAh?$AA?9?$AAc?$AAo?$AAl?$AAo?$AAm?$AAb?$AAi?$AAa?$AA?$AA@ 004df8b4     libucrtd:get_qualified_locale.obj
 0002:0001a8dc       ??_C@_1CG@BPOFMKBB@?$AAs?$AAp?$AAa?$AAn?$AAi?$AAs?$AAh?$AA?9?$AAc?$AAo?$AAs?$AAt?$AAa?$AA?5?$AAr?$AAi?$AAc?$AAa?$AA?$AA@ 004df8dc     libucrtd:get_qualified_locale.obj
 0002:0001a90c       ??_C@_1DG@IGOBAPBB@?$AAs?$AAp?$AAa?$AAn?$AAi?$AAs?$AAh?$AA?9?$AAd?$AAo?$AAm?$AAi?$AAn?$AAi?$AAc?$AAa?$AAn?$AA?5?$AAr?$AAe?$AAp?$AAu?$AAb?$AAl?$AAi?$AAc?$AA?$AA@ 004df90c     libucrtd:get_qualified_locale.obj
 0002:0001a94c       ??_C@_1CA@JHAPGEGI@?$AAs?$AAp?$AAa?$AAn?$AAi?$AAs?$AAh?$AA?9?$AAe?$AAc?$AAu?$AAa?$AAd?$AAo?$AAr?$AA?$AA@ 004df94c     libucrtd:get_qualified_locale.obj
 0002:0001a974       ??_C@_1CI@LAPALJPP@?$AAs?$AAp?$AAa?$AAn?$AAi?$AAs?$AAh?$AA?9?$AAe?$AAl?$AA?5?$AAs?$AAa?$AAl?$AAv?$AAa?$AAd?$AAo?$AAr?$AA?$AA@ 004df974     libucrtd:get_qualified_locale.obj
 0002:0001a9a4       ??_C@_1CE@PDGBOFOM@?$AAs?$AAp?$AAa?$AAn?$AAi?$AAs?$AAh?$AA?9?$AAg?$AAu?$AAa?$AAt?$AAe?$AAm?$AAa?$AAl?$AAa?$AA?$AA@ 004df9a4     libucrtd:get_qualified_locale.obj
 0002:0001a9d0       ??_C@_1CC@NBEBAODI@?$AAs?$AAp?$AAa?$AAn?$AAi?$AAs?$AAh?$AA?9?$AAh?$AAo?$AAn?$AAd?$AAu?$AAr?$AAa?$AAs?$AA?$AA@ 004df9d0     libucrtd:get_qualified_locale.obj
 0002:0001a9f8       ??_C@_1CA@LLKGHBMF@?$AAs?$AAp?$AAa?$AAn?$AAi?$AAs?$AAh?$AA?9?$AAm?$AAe?$AAx?$AAi?$AAc?$AAa?$AAn?$AA?$AA@ 004df9f8     libucrtd:get_qualified_locale.obj
 0002:0001aa20       ??_C@_1BO@LKNDOIGD@?$AAs?$AAp?$AAa?$AAn?$AAi?$AAs?$AAh?$AA?9?$AAm?$AAo?$AAd?$AAe?$AAr?$AAn?$AA?$AA@ 004dfa20     libucrtd:get_qualified_locale.obj
 0002:0001aa44       ??_C@_1CE@NMDMOEEB@?$AAs?$AAp?$AAa?$AAn?$AAi?$AAs?$AAh?$AA?9?$AAn?$AAi?$AAc?$AAa?$AAr?$AAa?$AAg?$AAu?$AAa?$AA?$AA@ 004dfa44     libucrtd:get_qualified_locale.obj
 0002:0001aa70       ??_C@_1BO@LLCBEJGB@?$AAs?$AAp?$AAa?$AAn?$AAi?$AAs?$AAh?$AA?9?$AAp?$AAa?$AAn?$AAa?$AAm?$AAa?$AA?$AA@ 004dfa70     libucrtd:get_qualified_locale.obj
 0002:0001aa94       ??_C@_1CC@FKPGGIHO@?$AAs?$AAp?$AAa?$AAn?$AAi?$AAs?$AAh?$AA?9?$AAp?$AAa?$AAr?$AAa?$AAg?$AAu?$AAa?$AAy?$AA?$AA@ 004dfa94     libucrtd:get_qualified_locale.obj
 0002:0001aabc       ??_C@_1BK@CDEIHOOP@?$AAs?$AAp?$AAa?$AAn?$AAi?$AAs?$AAh?$AA?9?$AAp?$AAe?$AAr?$AAu?$AA?$AA@ 004dfabc     libucrtd:get_qualified_locale.obj
 0002:0001aadc       ??_C@_1CI@GAHAKKGP@?$AAs?$AAp?$AAa?$AAn?$AAi?$AAs?$AAh?$AA?9?$AAp?$AAu?$AAe?$AAr?$AAt?$AAo?$AA?5?$AAr?$AAi?$AAc?$AAo?$AA?$AA@ 004dfadc     libucrtd:get_qualified_locale.obj
 0002:0001ab0c       ??_C@_1CA@NKJBCAGP@?$AAs?$AAp?$AAa?$AAn?$AAi?$AAs?$AAh?$AA?9?$AAu?$AAr?$AAu?$AAg?$AAu?$AAa?$AAy?$AA?$AA@ 004dfb0c     libucrtd:get_qualified_locale.obj
 0002:0001ab34       ??_C@_1CE@ODILCONM@?$AAs?$AAp?$AAa?$AAn?$AAi?$AAs?$AAh?$AA?9?$AAv?$AAe?$AAn?$AAe?$AAz?$AAu?$AAe?$AAl?$AAa?$AA?$AA@ 004dfb34     libucrtd:get_qualified_locale.obj
 0002:0001ab60       ??_C@_1CA@OBNMCGFO@?$AAs?$AAw?$AAe?$AAd?$AAi?$AAs?$AAh?$AA?9?$AAf?$AAi?$AAn?$AAl?$AAa?$AAn?$AAd?$AA?$AA@ 004dfb60     libucrtd:get_qualified_locale.obj
 0002:0001ab88       ??_C@_1M@PIPDDPPI@?$AAs?$AAw?$AAi?$AAs?$AAs?$AA?$AA@ 004dfb88     libucrtd:get_qualified_locale.obj
 0002:0001ab98       ??_C@_15PJPFLCCM@?$AAu?$AAk?$AA?$AA@ 004dfb98     libucrtd:get_qualified_locale.obj
 0002:0001aba0       ??_C@_15GMFIMNFM@?$AAu?$AAs?$AA?$AA@ 004dfba0     libucrtd:get_qualified_locale.obj
 0002:0001aba8       ??_C@_17HAEBFAGL@?$AAu?$AAs?$AAa?$AA?$AA@ 004dfba8     libucrtd:get_qualified_locale.obj
 0002:0001abb4       ??_C@_1BA@DPFJEPHB@?$AAa?$AAm?$AAe?$AAr?$AAi?$AAc?$AAa?$AA?$AA@ 004dfbb4     libucrtd:get_qualified_locale.obj
 0002:0001abc8       ??_C@_1BA@ELOGGFK@?$AAb?$AAr?$AAi?$AAt?$AAa?$AAi?$AAn?$AA?$AA@ 004dfbc8     libucrtd:get_qualified_locale.obj
 0002:0001abdc       ??_C@_1M@GHBGIGDA@?$AAc?$AAh?$AAi?$AAn?$AAa?$AA?$AA@ 004dfbdc     libucrtd:get_qualified_locale.obj
 0002:0001abec       ??_C@_1M@NCHEJOPO@?$AAc?$AAz?$AAe?$AAc?$AAh?$AA?$AA@ 004dfbec     libucrtd:get_qualified_locale.obj
 0002:0001abfc       ??_C@_1BA@BKPAPBLA@?$AAe?$AAn?$AAg?$AAl?$AAa?$AAn?$AAd?$AA?$AA@ 004dfbfc     libucrtd:get_qualified_locale.obj
 0002:0001ac10       ??_C@_1BM@HKBCKIPC@?$AAg?$AAr?$AAe?$AAa?$AAt?$AA?5?$AAb?$AAr?$AAi?$AAt?$AAa?$AAi?$AAn?$AA?$AA@ 004dfc10     libucrtd:get_qualified_locale.obj
 0002:0001ac34       ??_C@_1BA@PPCHPGJB@?$AAh?$AAo?$AAl?$AAl?$AAa?$AAn?$AAd?$AA?$AA@ 004dfc34     libucrtd:get_qualified_locale.obj
 0002:0001ac48       ??_C@_1BE@JBMPEGDG@?$AAh?$AAo?$AAn?$AAg?$AA?9?$AAk?$AAo?$AAn?$AAg?$AA?$AA@ 004dfc48     libucrtd:get_qualified_locale.obj
 0002:0001ac60       ??_C@_1BI@KOELBBPJ@?$AAn?$AAe?$AAw?$AA?9?$AAz?$AAe?$AAa?$AAl?$AAa?$AAn?$AAd?$AA?$AA@ 004dfc60     libucrtd:get_qualified_locale.obj
 0002:0001ac7c       ??_C@_15HIEBHAIO@?$AAn?$AAz?$AA?$AA@ 004dfc7c     libucrtd:get_qualified_locale.obj
 0002:0001ac84       ??_C@_1BC@CHBCPFPI@?$AAp?$AAr?$AA?5?$AAc?$AAh?$AAi?$AAn?$AAa?$AA?$AA@ 004dfc84     libucrtd:get_qualified_locale.obj
 0002:0001ac9c       ??_C@_1BC@JAOIIFKD@?$AAp?$AAr?$AA?9?$AAc?$AAh?$AAi?$AAn?$AAa?$AA?$AA@ 004dfc9c     libucrtd:get_qualified_locale.obj
 0002:0001acb4       ??_C@_1BI@BEHPPHKC@?$AAp?$AAu?$AAe?$AAr?$AAt?$AAo?$AA?9?$AAr?$AAi?$AAc?$AAo?$AA?$AA@ 004dfcb4     libucrtd:get_qualified_locale.obj
 0002:0001acd0       ??_C@_1O@PAEOFKDI@?$AAs?$AAl?$AAo?$AAv?$AAa?$AAk?$AA?$AA@ 004dfcd0     libucrtd:get_qualified_locale.obj
 0002:0001ace0       ??_C@_1BK@FIHMCKAM@?$AAs?$AAo?$AAu?$AAt?$AAh?$AA?5?$AAa?$AAf?$AAr?$AAi?$AAc?$AAa?$AA?$AA@ 004dfce0     libucrtd:get_qualified_locale.obj
 0002:0001ad00       ??_C@_1BI@NAEOODKB@?$AAs?$AAo?$AAu?$AAt?$AAh?$AA?5?$AAk?$AAo?$AAr?$AAe?$AAa?$AA?$AA@ 004dfd00     libucrtd:get_qualified_locale.obj
 0002:0001ad1c       ??_C@_1BK@FBDGGIFF@?$AAs?$AAo?$AAu?$AAt?$AAh?$AA?9?$AAa?$AAf?$AAr?$AAi?$AAc?$AAa?$AA?$AA@ 004dfd1c     libucrtd:get_qualified_locale.obj
 0002:0001ad3c       ??_C@_1BI@GHLEJDPK@?$AAs?$AAo?$AAu?$AAt?$AAh?$AA?9?$AAk?$AAo?$AAr?$AAe?$AAa?$AA?$AA@ 004dfd3c     libucrtd:get_qualified_locale.obj
 0002:0001ad58       ??_C@_1CE@PLHLOMJF@?$AAt?$AAr?$AAi?$AAn?$AAi?$AAd?$AAa?$AAd?$AA?5?$AA?$CG?$AA?5?$AAt?$AAo?$AAb?$AAa?$AAg?$AAo?$AA?$AA@ 004dfd58     libucrtd:get_qualified_locale.obj
 0002:0001ad84       ??_C@_1BO@MODIMHHI@?$AAu?$AAn?$AAi?$AAt?$AAe?$AAd?$AA?9?$AAk?$AAi?$AAn?$AAg?$AAd?$AAo?$AAm?$AA?$AA@ 004dfd84     libucrtd:get_qualified_locale.obj
 0002:0001ada8       ??_C@_1BM@FFHJONBJ@?$AAu?$AAn?$AAi?$AAt?$AAe?$AAd?$AA?9?$AAs?$AAt?$AAa?$AAt?$AAe?$AAs?$AA?$AA@ 004dfda8     libucrtd:get_qualified_locale.obj
 0002:0001add0       ___acrt_rg_language        004dfdd0     libucrtd:get_qualified_locale.obj
 0002:0001b178       ___acrt_rg_language_count  004e0178     libucrtd:get_qualified_locale.obj
 0002:0001b180       ___acrt_rg_country         004e0180     libucrtd:get_qualified_locale.obj
 0002:0001b2cc       ___acrt_rg_country_count   004e02cc     libucrtd:get_qualified_locale.obj
 0002:0001b2d0       ??_C@_1HO@CKHMGCFN@?$AAm?$AAi?$AAn?$AAk?$AAe?$AAr?$AAn?$AAe?$AAl?$AA?2?$AAc?$AAr?$AAt?$AAs?$AA?2?$AAu?$AAc?$AAr?$AAt?$AA?2?$AAs?$AAr?$AAc?$AA?2?$AAa?$AAp?$AAp?$AAc?$AAr?$AAt?$AA?2?$AAl@ 004e02d0     libucrtd:get_qualified_locale.obj
 0002:0001b368       ??_C@_1DI@HCPCNHHP@?$AA_?$AA_?$AAa?$AAc?$AAr?$AAt?$AA_?$AAg?$AAe?$AAt?$AA_?$AAq?$AAu?$AAa?$AAl?$AAi?$AAf?$AAi?$AAe?$AAd?$AA_?$AAl?$AAo?$AAc?$AAa?$AAl?$AAe?$AA?$AA@ 004e0368     libucrtd:get_qualified_locale.obj
 0002:0001b3b0       ??_C@_1BFC@DEALMEIM@?$AAw?$AAc?$AAs?$AAn?$AAc?$AAp?$AAy?$AA_?$AAs?$AA?$CI?$AAl?$AAp?$AAO?$AAu?$AAt?$AAS?$AAt?$AAr?$AA?9?$AA?$DO?$AAs?$AAz?$AAL?$AAo?$AAc?$AAa?$AAl?$AAe?$AAN?$AAa?$AAm?$AAe@ 004e03b0     libucrtd:get_qualified_locale.obj
 0002:0001b548       ??_C@_1CM@OGEMFJNJ@?$AAL?$AAa?$AAn?$AAg?$AAC?$AAo?$AAu?$AAn?$AAt?$AAr?$AAy?$AAE?$AAn?$AAu?$AAm?$AAP?$AAr?$AAo?$AAc?$AAE?$AAx?$AA?$AA@ 004e0548     libucrtd:get_qualified_locale.obj
 0002:0001b580       ??_C@_1BDC@CGCEDIGP@?$AAw?$AAc?$AAs?$AAn?$AAc?$AAp?$AAy?$AA_?$AAs?$AA?$CI?$AA_?$AAp?$AAs?$AAe?$AAt?$AAl?$AAo?$AAc?$AA_?$AAd?$AAa?$AAt?$AAa?$AA?9?$AA?$DO?$AA_?$AAc?$AAa?$AAc?$AAh?$AAe?$AAL@ 004e0580     libucrtd:get_qualified_locale.obj
 0002:0001b6f0       ??_C@_1CG@PGLLICHO@?$AAL?$AAa?$AAn?$AAg?$AAu?$AAa?$AAg?$AAe?$AAE?$AAn?$AAu?$AAm?$AAP?$AAr?$AAo?$AAc?$AAE?$AAx?$AA?$AA@ 004e06f0     libucrtd:get_qualified_locale.obj
 0002:0001b720       ??_C@_1DC@CPKFANGP@?$AAG?$AAe?$AAt?$AAL?$AAo?$AAc?$AAa?$AAl?$AAe?$AAN?$AAa?$AAm?$AAe?$AAF?$AAr?$AAo?$AAm?$AAD?$AAe?$AAf?$AAa?$AAu?$AAl?$AAt?$AA?$AA@ 004e0720     libucrtd:get_qualified_locale.obj
 0002:0001b760       ??_C@_1BCC@GMJIFDHO@?$AAw?$AAc?$AAs?$AAn?$AAc?$AAp?$AAy?$AA_?$AAs?$AA?$CI?$AA_?$AAp?$AAs?$AAe?$AAt?$AAl?$AAo?$AAc?$AA_?$AAd?$AAa?$AAt?$AAa?$AA?9?$AA?$DO?$AA_?$AAc?$AAa?$AAc?$AAh?$AAe?$AAL@ 004e0760     libucrtd:get_qualified_locale.obj
 0002:0001b8bc       ??_C@_17DNCLJFIF@?$AAA?$AAC?$AAP?$AA?$AA@ 004e08bc     libucrtd:get_qualified_locale.obj
 0002:0001b8c8       ??_C@_17CIKBIHLH@?$AAO?$AAC?$AAP?$AA?$AA@ 004e08c8     libucrtd:get_qualified_locale.obj
 0002:0001b8d4       ___rglangidNotDefault      004e08d4     libucrtd:getqloc_downlevel.obj
 0002:0001b8f0       __d_inf                    004e08f0     libucrtd:util.obj
 0002:0001b900       __d_ind                    004e0900     libucrtd:util.obj
 0002:0001b910       __d_max                    004e0910     libucrtd:util.obj
 0002:0001b920       __d_min                    004e0920     libucrtd:util.obj
 0002:0001b930       __d_mzero                  004e0930     libucrtd:util.obj
 0002:0001b95c       ??_C@_1CO@HCPPKOH@?$AA_?$AA_?$AAa?$AAc?$AAr?$AAt?$AA_?$AAh?$AAe?$AAa?$AAp?$AA?5?$AA?$CB?$AA?$DN?$AA?5?$AAn?$AAu?$AAl?$AAl?$AAp?$AAt?$AAr?$AA?$AA@ 004e095c     libucrtd:heap_handle.obj
 0002:0001b998       ??_C@_1GI@OADBAEGE@?$AAm?$AAi?$AAn?$AAk?$AAe?$AAr?$AAn?$AAe?$AAl?$AA?2?$AAc?$AAr?$AAt?$AAs?$AA?2?$AAu?$AAc?$AAr?$AAt?$AA?2?$AAs?$AAr?$AAc?$AA?2?$AAa?$AAp?$AAp?$AAc?$AAr?$AAt?$AA?2?$AAh@ 004e0998     libucrtd:heap_handle.obj
 0002:0001ba14       ??_C@_1CC@LLFJPCJO@?$AAn?$AAe?$AAw?$AA_?$AAh?$AAa?$AAn?$AAd?$AAl?$AAe?$AAr?$AA?5?$AA?$DN?$AA?$DN?$AA?5?$AA0?$AA?$AA@ 004e0a14     libucrtd:new_handler.obj
 0002:0001ba40       ??_C@_1GI@GALDAPMM@?$AAm?$AAi?$AAn?$AAk?$AAe?$AAr?$AAn?$AAe?$AAl?$AA?2?$AAc?$AAr?$AAt?$AAs?$AA?2?$AAu?$AAc?$AAr?$AAt?$AA?2?$AAs?$AAr?$AAc?$AA?2?$AAa?$AAp?$AAp?$AAc?$AAr?$AAt?$AA?2?$AAh@ 004e0a40     libucrtd:new_handler.obj
 0002:0001bac0       ??_C@_1GE@KFPKEKCH@?$AAm?$AAi?$AAn?$AAk?$AAe?$AAr?$AAn?$AAe?$AAl?$AA?2?$AAc?$AAr?$AAt?$AAs?$AA?2?$AAu?$AAc?$AAr?$AAt?$AA?2?$AAs?$AAr?$AAc?$AA?2?$AAa?$AAp?$AAp?$AAc?$AAr?$AAt?$AA?2?$AAt@ 004e0ac0     libucrtd:ieee87.obj
 0002:0001bb38       ??_C@_1BO@OFDNCLL@?$AA_?$AAs?$AAe?$AAt?$AA_?$AAc?$AAo?$AAn?$AAt?$AAr?$AAo?$AAl?$AAf?$AAp?$AA?$AA@ 004e0b38     libucrtd:ieee87.obj
 0002:0001bb60       ??_C@_1GO@OKJGOMCB@?$AA_?$AAc?$AAo?$AAn?$AAt?$AAr?$AAo?$AAl?$AAf?$AAp?$AA_?$AAs?$AA?$CI?$AA?$CI?$AA?$CI?$AAv?$AAo?$AAi?$AAd?$AA?5?$AA?$CK?$AA?$CJ?$AA0?$AA?$CJ?$AA?0?$AA?5?$AAn?$AAe?$AAw?$AAc?$AAt?$AAr@ 004e0b60     libucrtd:ieee87.obj
 0002:0001bbe4       ??_C@_1BG@HHIFPOEK@?$AAm?$AAs?$AAv?$AAc?$AAr?$AAt?$AA?4?$AAd?$AAl?$AAl?$AA?$AA@ 004e0be4     libucrtd:free_base.obj
 0002:0001bc00       ??_C@_1CE@NPMGPNNP@?$AAI?$AAS?$AA_?$AA2?$AA_?$AAP?$AAO?$AAW?$AA_?$AAN?$AA?$CI?$AAa?$AAl?$AAi?$AAg?$AAn?$AA?$CJ?$AA?$AA@ 004e0c00     libucrtd:align.obj
 0002:0001bc30       ??_C@_1FM@GHAMPDNO@?$AAm?$AAi?$AAn?$AAk?$AAe?$AAr?$AAn?$AAe?$AAl?$AA?2?$AAc?$AAr?$AAt?$AAs?$AA?2?$AAu?$AAc?$AAr?$AAt?$AA?2?$AAs?$AAr?$AAc?$AA?2?$AAa?$AAp?$AAp?$AAc?$AAr?$AAt?$AA?2?$AAh@ 004e0c30     libucrtd:align.obj
 0002:0001bca0       ??_C@_1DI@LCGAEAA@?$AA_?$AAa?$AAl?$AAi?$AAg?$AAn?$AAe?$AAd?$AA_?$AAo?$AAf?$AAf?$AAs?$AAe?$AAt?$AA_?$AAm?$AAa?$AAl?$AAl?$AAo?$AAc?$AA_?$AAb?$AAa?$AAs?$AAe?$AA?$AA@ 004e0ca0     libucrtd:align.obj
 0002:0001bce4       ??_C@_1DK@PBMGAKHJ@?$AA_?$AAa?$AAl?$AAi?$AAg?$AAn?$AAe?$AAd?$AA_?$AAo?$AAf?$AAf?$AAs?$AAe?$AAt?$AA_?$AAr?$AAe?$AAa?$AAl?$AAl?$AAo?$AAc?$AA_?$AAb?$AAa?$AAs?$AAe?$AA?$AA@ 004e0ce4     libucrtd:align.obj
 0002:0001bd2c       ??_C@_1CI@DHKEEEHJ@?$AA_?$AAa?$AAl?$AAi?$AAg?$AAn?$AAe?$AAd?$AA_?$AAm?$AAs?$AAi?$AAz?$AAe?$AA_?$AAb?$AAa?$AAs?$AAe?$AA?$AA@ 004e0d2c     libucrtd:align.obj
 0002:0001bd60       ??_C@_1FO@GEKPJHID@?$AAm?$AAi?$AAn?$AAk?$AAe?$AAr?$AAn?$AAe?$AAl?$AA?2?$AAc?$AAr?$AAt?$AAs?$AA?2?$AAu?$AAc?$AAr?$AAt?$AA?2?$AAs?$AAr?$AAc?$AA?2?$AAa?$AAp?$AAp?$AAc?$AAr?$AAt?$AA?2?$AAh@ 004e0d60     libucrtd:expand.obj
 0002:0001bdd0       ??_C@_1BK@JMCGJOCC@?$AA_?$AAe?$AAx?$AAp?$AAa?$AAn?$AAd?$AA_?$AAb?$AAa?$AAs?$AAe?$AA?$AA@ 004e0dd0     libucrtd:expand.obj
 0002:0001bdf0       ??_C@_1FA@IFFFOLDJ@?$AAn?$AAR?$AAp?$AAt?$AAT?$AAy?$AAp?$AAe?$AA?5?$AA?$DO?$AA?$DN?$AA?5?$AA0?$AA?5?$AA?$CG?$AA?$CG?$AA?5?$AAn?$AAR?$AAp?$AAt?$AAT?$AAy?$AAp?$AAe?$AA?5?$AA?$DM?$AA?5?$AA_?$AAC?$AAR?$AAT@ 004e0df0     libucrtd:dbgrptt.obj
 0002:0001be50       ??_C@_1GA@LFAOKOOP@?$AAm?$AAi?$AAn?$AAk?$AAe?$AAr?$AAn?$AAe?$AAl?$AA?2?$AAc?$AAr?$AAt?$AAs?$AA?2?$AAu?$AAc?$AAr?$AAt?$AA?2?$AAs?$AAr?$AAc?$AA?2?$AAa?$AAp?$AAp?$AAc?$AAr?$AAt?$AA?2?$AAm@ 004e0e50     libucrtd:dbgrptt.obj
 0002:0001bec4       ??_C@_1CE@FIHIECNJ@?$AA_?$AAC?$AAr?$AAt?$AAS?$AAe?$AAt?$AAR?$AAe?$AAp?$AAo?$AAr?$AAt?$AAM?$AAo?$AAd?$AAe?$AA?$AA@ 004e0ec4     libucrtd:dbgrptt.obj
 0002:0001bef0       ??_C@_1NK@LOFHIHFC@?$AAf?$AAM?$AAo?$AAd?$AAe?$AA?5?$AA?$DN?$AA?$DN?$AA?5?$AA_?$AAC?$AAR?$AAT?$AAD?$AAB?$AAG?$AA_?$AAR?$AAE?$AAP?$AAO?$AAR?$AAT?$AA_?$AAM?$AAO?$AAD?$AAE?$AA?5?$AA?$HM?$AA?$HM?$AA?5@ 004e0ef0     libucrtd:dbgrptt.obj
 0002:0001bff8       ??_C@_1CE@IKKEDCME@?$AA_?$AAC?$AAr?$AAt?$AAS?$AAe?$AAt?$AAR?$AAe?$AAp?$AAo?$AAr?$AAt?$AAF?$AAi?$AAl?$AAe?$AA?$AA@ 004e0ff8     libucrtd:dbgrptt.obj
 0002:0001c024       ??_C@_1CA@KHJHLKA@?$AA_?$AAV?$AAC?$AAr?$AAt?$AAD?$AAb?$AAg?$AAR?$AAe?$AAp?$AAo?$AAr?$AAt?$AAA?$AA?$AA@ 004e1024     libucrtd:dbgrptt.obj
 0002:0001c050       ??_C@_1FA@JPHJBHEM@?$AA_?$AAi?$AAt?$AAo?$AAa?$AA_?$AAs?$AA?$CI?$AAn?$AAL?$AAi?$AAn?$AAe?$AA?0?$AA?5?$AAs?$AAz?$AAL?$AAi?$AAn?$AAe?$AAM?$AAe?$AAs?$AAs?$AAa?$AAg?$AAe?$AA?0?$AA?5?$AA4?$AA0@ 004e1050     libucrtd:dbgrptt.obj
 0002:0001c0b0       ??_C@_0CG@BNGLOCEO@Second?5Chance?5Assertion?5Failed?3?5@ 004e10b0     libucrtd:dbgrptt.obj
 0002:0001c0e0       ??_C@_0P@DFJNDPOP@?$DMfile?5unknown?$DO?$AA@ 004e10e0     libucrtd:dbgrptt.obj
 0002:0001c0f4       ??_C@_07BHGABMGB@?0?5Line?5?$AA@ 004e10f4     libucrtd:dbgrptt.obj
 0002:0001c100       ??_C@_1JI@GAALPGBM@?$AAs?$AAt?$AAr?$AAc?$AAp?$AAy?$AA_?$AAs?$AA?$CI?$AAs?$AAz?$AAU?$AAs?$AAe?$AAr?$AAM?$AAe?$AAs?$AAs?$AAa?$AAg?$AAe?$AA?0?$AA?5?$AA4?$AA0?$AA9?$AA6?$AA?0?$AA?5?$AA?$CC?$AA_@ 004e1100     libucrtd:dbgrptt.obj
 0002:0001c1b8       ??_C@_0CL@EACFGMNB@_CrtDbgReport?3?5String?5too?5long?5o@ 004e11b8     libucrtd:dbgrptt.obj
 0002:0001c1f0       ??_C@_1KK@GIGAEDMO@?$AAs?$AAt?$AAr?$AAc?$AAp?$AAy?$AA_?$AAs?$AA?$CI?$AAs?$AAz?$AAL?$AAi?$AAn?$AAe?$AAM?$AAe?$AAs?$AAs?$AAa?$AAg?$AAe?$AA?0?$AA?5?$AA4?$AA0?$AA9?$AA6?$AA?0?$AA?5?$AAs?$AAz@ 004e11f0     libucrtd:dbgrptt.obj
 0002:0001c2bc       ??_C@_0BD@CAENFOHP@Assertion?5failed?3?5?$AA@ 004e12bc     libucrtd:dbgrptt.obj
 0002:0001c2d8       ??_C@_1FK@NPGBPOFO@?$AAs?$AAt?$AAr?$AAc?$AAa?$AAt?$AA_?$AAs?$AA?$CI?$AAs?$AAz?$AAL?$AAi?$AAn?$AAe?$AAM?$AAe?$AAs?$AAs?$AAa?$AAg?$AAe?$AA?0?$AA?5?$AA4?$AA0?$AA9?$AA6?$AA?0?$AA?5?$AAs?$AAz@ 004e12d8     libucrtd:dbgrptt.obj
 0002:0001c348       ??_C@_1EI@CACDLAFK@?$AAs?$AAt?$AAr?$AAc?$AAa?$AAt?$AA_?$AAs?$AA?$CI?$AAs?$AAz?$AAL?$AAi?$AAn?$AAe?$AAM?$AAe?$AAs?$AAs?$AAa?$AAg?$AAe?$AA?0?$AA?5?$AA4?$AA0?$AA9?$AA6?$AA?0?$AA?5?$AA?$CC?$AA?2@ 004e1348     libucrtd:dbgrptt.obj
 0002:0001c3a0       ??_C@_01LIIJDEN@?$AN?$AA@  004e13a0     libucrtd:dbgrptt.obj
 0002:0001c3a8       ??_C@_1EI@LDHJEDO@?$AAs?$AAt?$AAr?$AAc?$AAa?$AAt?$AA_?$AAs?$AA?$CI?$AAs?$AAz?$AAL?$AAi?$AAn?$AAe?$AAM?$AAe?$AAs?$AAs?$AAa?$AAg?$AAe?$AA?0?$AA?5?$AA4?$AA0?$AA9?$AA6?$AA?0?$AA?5?$AA?$CC?$AA?2@ 004e13a8     libucrtd:dbgrptt.obj
 0002:0001c400       ??_C@_0M@IPILFDFN@?$CFs?$CI?$CFd?$CJ?5?3?5?$CFs?$AA@ 004e1400     libucrtd:dbgrptt.obj
 0002:0001c410       ??_C@_1JG@CPKCIOEE@?$AAs?$AAt?$AAr?$AAc?$AAp?$AAy?$AA_?$AAs?$AA?$CI?$AAs?$AAz?$AAO?$AAu?$AAt?$AAM?$AAe?$AAs?$AAs?$AAa?$AAg?$AAe?$AA?0?$AA?5?$AA4?$AA0?$AA9?$AA6?$AA?0?$AA?5?$AA?$CC?$AA_?$AAC@ 004e1410     libucrtd:dbgrptt.obj
 0002:0001c4c8       ??_C@_1FI@IBIOIHEG@?$AAs?$AAt?$AAr?$AAc?$AAp?$AAy?$AA_?$AAs?$AA?$CI?$AAs?$AAz?$AAO?$AAu?$AAt?$AAM?$AAe?$AAs?$AAs?$AAa?$AAg?$AAe?$AA?0?$AA?5?$AA4?$AA0?$AA9?$AA6?$AA?0?$AA?5?$AAs?$AAz?$AAL@ 004e14c8     libucrtd:dbgrptt.obj
 0002:0001c538       ??_C@_1IM@OOKIFKOH@?$AAe?$AA?5?$AA?$DN?$AA?5?$AAm?$AAb?$AAs?$AAt?$AAo?$AAw?$AAc?$AAs?$AA_?$AAs?$AA?$CI?$AA?$CG?$AAr?$AAe?$AAt?$AA?0?$AA?5?$AAs?$AAz?$AAO?$AAu?$AAt?$AAM?$AAe?$AAs?$AAs?$AAa?$AAg@ 004e1538     libucrtd:dbgrptt.obj
 0002:0001c5e0       ??_C@_1MC@IGEECMDB@?$AAw?$AAc?$AAs?$AAc?$AAp?$AAy?$AA_?$AAs?$AA?$CI?$AAs?$AAz?$AAO?$AAu?$AAt?$AAM?$AAe?$AAs?$AAs?$AAa?$AAg?$AAe?$AA2?$AA?0?$AA?5?$AA4?$AA0?$AA9?$AA6?$AA?0?$AA?5?$AAL?$AA?$CC@ 004e15e0     libucrtd:dbgrptt.obj
 0002:0001c6c8       ??_C@_1HO@PJOFIKFE@?$AA_?$AAC?$AAr?$AAt?$AAD?$AAb?$AAg?$AAR?$AAe?$AAp?$AAo?$AAr?$AAt?$AA?3?$AA?5?$AAS?$AAt?$AAr?$AAi?$AAn?$AAg?$AA?5?$AAt?$AAo?$AAo?$AA?5?$AAl?$AAo?$AAn?$AAg?$AA?5?$AAo@ 004e16c8     libucrtd:dbgrptt.obj
 0002:0001c760       ??_C@_1CA@HPALHDOD@?$AA_?$AAV?$AAC?$AAr?$AAt?$AAD?$AAb?$AAg?$AAR?$AAe?$AAp?$AAo?$AAr?$AAt?$AAW?$AA?$AA@ 004e1760     libucrtd:dbgrptt.obj
 0002:0001c788       ??_C@_1FA@CNLLOMHI@?$AA_?$AAi?$AAt?$AAo?$AAw?$AA_?$AAs?$AA?$CI?$AAn?$AAL?$AAi?$AAn?$AAe?$AA?0?$AA?5?$AAs?$AAz?$AAL?$AAi?$AAn?$AAe?$AAM?$AAe?$AAs?$AAs?$AAa?$AAg?$AAe?$AA?0?$AA?5?$AA4?$AA0@ 004e1788     libucrtd:dbgrptt.obj
 0002:0001c7e8       ??_C@_1EM@MJFLEDMB@?$AAS?$AAe?$AAc?$AAo?$AAn?$AAd?$AA?5?$AAC?$AAh?$AAa?$AAn?$AAc?$AAe?$AA?5?$AAA?$AAs?$AAs?$AAe?$AAr?$AAt?$AAi?$AAo?$AAn?$AA?5?$AAF?$AAa?$AAi?$AAl?$AAe?$AAd?$AA?3?$AA?5@ 004e17e8     libucrtd:dbgrptt.obj
 0002:0001c844       ??_C@_1BO@OCHMLCAG@?$AA?$DM?$AAf?$AAi?$AAl?$AAe?$AA?5?$AAu?$AAn?$AAk?$AAn?$AAo?$AAw?$AAn?$AA?$DO?$AA?$AA@ 004e1844     libucrtd:dbgrptt.obj
 0002:0001c868       ??_C@_1BA@ELMMDCFC@?$AA?0?$AA?5?$AAL?$AAi?$AAn?$AAe?$AA?5?$AA?$AA@ 004e1868     libucrtd:dbgrptt.obj
 0002:0001c880       ??_C@_1JK@KHFABAEO@?$AAw?$AAc?$AAs?$AAc?$AAp?$AAy?$AA_?$AAs?$AA?$CI?$AAs?$AAz?$AAU?$AAs?$AAe?$AAr?$AAM?$AAe?$AAs?$AAs?$AAa?$AAg?$AAe?$AA?0?$AA?5?$AA4?$AA0?$AA9?$AA6?$AA?0?$AA?5?$AAL?$AA?$CC@ 004e1880     libucrtd:dbgrptt.obj
 0002:0001c938       ??_C@_1KO@DGAHENCH@?$AAw?$AAc?$AAs?$AAc?$AAp?$AAy?$AA_?$AAs?$AA?$CI?$AAs?$AAz?$AAL?$AAi?$AAn?$AAe?$AAM?$AAe?$AAs?$AAs?$AAa?$AAg?$AAe?$AA?0?$AA?5?$AA4?$AA0?$AA9?$AA6?$AA?0?$AA?5?$AAs?$AAz@ 004e1938     libucrtd:dbgrptt.obj
 0002:0001ca08       ??_C@_1CG@FFFGGODN@?$AAA?$AAs?$AAs?$AAe?$AAr?$AAt?$AAi?$AAo?$AAn?$AA?5?$AAf?$AAa?$AAi?$AAl?$AAe?$AAd?$AA?3?$AA?5?$AA?$AA@ 004e1a08     libucrtd:dbgrptt.obj
 0002:0001ca38       ??_C@_1FK@HPADHBBD@?$AAw?$AAc?$AAs?$AAc?$AAa?$AAt?$AA_?$AAs?$AA?$CI?$AAs?$AAz?$AAL?$AAi?$AAn?$AAe?$AAM?$AAe?$AAs?$AAs?$AAa?$AAg?$AAe?$AA?0?$AA?5?$AA4?$AA0?$AA9?$AA6?$AA?0?$AA?5?$AAs?$AAz@ 004e1a38     libucrtd:dbgrptt.obj
 0002:0001caa8       ??_C@_1EK@NMDFGHMF@?$AAw?$AAc?$AAs?$AAc?$AAa?$AAt?$AA_?$AAs?$AA?$CI?$AAs?$AAz?$AAL?$AAi?$AAn?$AAe?$AAM?$AAe?$AAs?$AAs?$AAa?$AAg?$AAe?$AA?0?$AA?5?$AA4?$AA0?$AA9?$AA6?$AA?0?$AA?5?$AAL?$AA?$CC@ 004e1aa8     libucrtd:dbgrptt.obj
 0002:0001cb00       ??_C@_13CMNBPIDO@?$AA?$AN?$AA?$AA@ 004e1b00     libucrtd:dbgrptt.obj
 0002:0001cb08       ??_C@_1EK@PHCBEDKB@?$AAw?$AAc?$AAs?$AAc?$AAa?$AAt?$AA_?$AAs?$AA?$CI?$AAs?$AAz?$AAL?$AAi?$AAn?$AAe?$AAM?$AAe?$AAs?$AAs?$AAa?$AAg?$AAe?$AA?0?$AA?5?$AA4?$AA0?$AA9?$AA6?$AA?0?$AA?5?$AAL?$AA?$CC@ 004e1b08     libucrtd:dbgrptt.obj
 0002:0001cb60       ??_C@_1BM@GIBPMLNL@?$AA?$CF?$AAl?$AAs?$AA?$CI?$AA?$CF?$AAd?$AA?$CJ?$AA?5?$AA?3?$AA?5?$AA?$CF?$AAl?$AAs?$AA?$AA@ 004e1b60     libucrtd:dbgrptt.obj
 0002:0001cb88       ??_C@_1JI@EACPGHID@?$AAw?$AAc?$AAs?$AAc?$AAp?$AAy?$AA_?$AAs?$AA?$CI?$AAs?$AAz?$AAO?$AAu?$AAt?$AAM?$AAe?$AAs?$AAs?$AAa?$AAg?$AAe?$AA?0?$AA?5?$AA4?$AA0?$AA9?$AA6?$AA?0?$AA?5?$AAL?$AA?$CC?$AA_@ 004e1b88     libucrtd:dbgrptt.obj
 0002:0001cc40       ??_C@_1FI@DBAIJPJE@?$AAw?$AAc?$AAs?$AAc?$AAp?$AAy?$AA_?$AAs?$AA?$CI?$AAs?$AAz?$AAO?$AAu?$AAt?$AAM?$AAe?$AAs?$AAs?$AAa?$AAg?$AAe?$AA?0?$AA?5?$AA4?$AA0?$AA9?$AA6?$AA?0?$AA?5?$AAs?$AAz?$AAL@ 004e1c40     libucrtd:dbgrptt.obj
 0002:0001ccb0       ??_C@_1IK@LEBMBAP@?$AAw?$AAc?$AAs?$AAt?$AAo?$AAm?$AAb?$AAs?$AA_?$AAs?$AA?$CI?$AAn?$AAu?$AAl?$AAl?$AAp?$AAt?$AAr?$AA?0?$AA?5?$AAs?$AAz?$AAO?$AAu?$AAt?$AAM?$AAe?$AAs?$AAs?$AAa?$AAg?$AAe@ 004e1cb0     libucrtd:dbgrptt.obj
 0002:0001cd58       ??_C@_1MA@LBAMNNOB@?$AAs?$AAt?$AAr?$AAc?$AAp?$AAy?$AA_?$AAs?$AA?$CI?$AAs?$AAz?$AAO?$AAu?$AAt?$AAM?$AAe?$AAs?$AAs?$AAa?$AAg?$AAe?$AA2?$AA?0?$AA?5?$AA4?$AA0?$AA9?$AA6?$AA?0?$AA?5?$AA?$CC?$AA_@ 004e1d58     libucrtd:dbgrptt.obj
 0002:0001ce40       ??_C@_0DP@GNPEPHJD@_CrtDbgReport?3?5String?5too?5long?5o@ 004e1e40     libucrtd:dbgrptt.obj
 0002:0001ce90       ??_C@_1IE@CPGKIAGP@?$AAw?$AAc?$AAs?$AAt?$AAo?$AAm?$AAb?$AAs?$AA_?$AAs?$AA?$CI?$AA?$CG?$AAr?$AAe?$AAt?$AA?0?$AA?5?$AAs?$AAz?$AAa?$AAO?$AAu?$AAt?$AAM?$AAe?$AAs?$AAs?$AAa?$AAg?$AAe?$AA?0?$AA?5@ 004e1e90     libucrtd:dbgrptt.obj
 0002:0001cf30       ??_C@_1GA@MPOOLHCO@?$AAm?$AAi?$AAn?$AAk?$AAe?$AAr?$AAn?$AAe?$AAl?$AA?2?$AAc?$AAr?$AAt?$AAs?$AA?2?$AAu?$AAc?$AAr?$AAt?$AA?2?$AAs?$AAr?$AAc?$AA?2?$AAa?$AAp?$AAp?$AAc?$AAr?$AAt?$AA?2?$AAl@ 004e1f30     libucrtd:commit.obj
 0002:0001cfa4       ??_C@_1BA@FLNMBBIM@?$AA_?$AAc?$AAo?$AAm?$AAm?$AAi?$AAt?$AA?$AA@ 004e1fa4     libucrtd:commit.obj
 0002:0001cfb8       ??_C@_1FO@CAMPMGCN@?$AAm?$AAi?$AAn?$AAk?$AAe?$AAr?$AAn?$AAe?$AAl?$AA?2?$AAc?$AAr?$AAt?$AAs?$AA?2?$AAu?$AAc?$AAr?$AAt?$AA?2?$AAs?$AAr?$AAc?$AA?2?$AAa?$AAp?$AAp?$AAc?$AAr?$AAt?$AA?2?$AAl@ 004e1fb8     libucrtd:write.obj
 0002:0001d028       ??_C@_1O@KOFKDHPL@?$AA_?$AAw?$AAr?$AAi?$AAt?$AAe?$AA?$AA@ 004e2028     libucrtd:write.obj
 0002:0001d038       ??_C@_1DI@CNMHHHLG@?$AAi?$AAs?$AAl?$AAe?$AAa?$AAd?$AAb?$AAy?$AAt?$AAe?$AA?$CI?$AA_?$AAd?$AAb?$AAc?$AAs?$AAB?$AAu?$AAf?$AAf?$AAe?$AAr?$AA?$CI?$AAf?$AAh?$AA?$CJ?$AA?$CJ?$AA?$AA@ 004e2038     libucrtd:write.obj
 0002:0001d07c       ??_C@_1BM@NCANHCIP@?$AA_?$AAw?$AAr?$AAi?$AAt?$AAe?$AA_?$AAn?$AAo?$AAl?$AAo?$AAc?$AAk?$AA?$AA@ 004e207c     libucrtd:write.obj
 0002:0001d0a0       ??_C@_1CK@CPEAGIIP@?$AAb?$AAu?$AAf?$AAf?$AAe?$AAr?$AA_?$AAs?$AAi?$AAz?$AAe?$AA?5?$AA?$CF?$AA?5?$AA2?$AA?5?$AA?$DN?$AA?$DN?$AA?5?$AA0?$AA?$AA@ 004e20a0     libucrtd:write.obj
 0002:0001d0d8       ??_C@_1GI@IMEEHIAK@?$AAm?$AAi?$AAn?$AAk?$AAe?$AAr?$AAn?$AAe?$AAl?$AA?2?$AAc?$AAr?$AAt?$AAs?$AA?2?$AAu?$AAc?$AAr?$AAt?$AA?2?$AAs?$AAr?$AAc?$AA?2?$AAa?$AAp?$AAp?$AAc?$AAr?$AAt?$AA?2?$AAc@ 004e20d8     libucrtd:_fptostr.obj
 0002:0001d154       ??_C@_1DG@NMGBKPMI@?$AA_?$AA_?$AAa?$AAc?$AAr?$AAt?$AA_?$AAf?$AAp?$AA_?$AAs?$AAt?$AAr?$AAf?$AAl?$AAt?$AA_?$AAt?$AAo?$AA_?$AAs?$AAt?$AAr?$AAi?$AAn?$AAg?$AA?$AA@ 004e2154     libucrtd:_fptostr.obj
 0002:0001d198       ??_C@_1IE@EAOKIIFP@?$AAb?$AAu?$AAf?$AAf?$AAe?$AAr?$AA_?$AAc?$AAo?$AAu?$AAn?$AAt?$AA?5?$AA?$DO?$AA?5?$AAs?$AAt?$AAa?$AAt?$AAi?$AAc?$AA_?$AAc?$AAa?$AAs?$AAt?$AA?$DM?$AAs?$AAi?$AAz?$AAe?$AA_@ 004e2198     libucrtd:_fptostr.obj
 0002:0001d238       ??_C@_1CA@EDEEBMBB@?$AAp?$AAf?$AAl?$AAt?$AA?5?$AA?$CB?$AA?$DN?$AA?5?$AAn?$AAu?$AAl?$AAl?$AAp?$AAt?$AAr?$AA?$AA@ 004e2238     libucrtd:_fptostr.obj
 0002:0001d260       ?large_power_data@?1??multiply_by_power_of_ten@__crt_strtox@@YA_NAAUbig_integer@2@I@Z@4QBIB 004e2260     libucrtd:cfout.obj
 0002:0001dd38       ?large_power_indices@?1??multiply_by_power_of_ten@__crt_strtox@@YA_NAAUbig_integer@2@I@Z@4QBUunpack_index@?1??12@YA_N0I@Z@B 004e2d38     libucrtd:cfout.obj
 0002:0001ddf0       ?small_powers_of_ten@?6??multiply_by_power_of_ten@__crt_strtox@@YA_NAAUbig_integer@2@I@Z@4QBIB 004e2df0     libucrtd:cfout.obj
 0002:0001de1c       ??_C@_1DI@GICAMMFM@?$AA?$CI?$AA?$CC?$AAD?$AAi?$AAv?$AAi?$AAs?$AAi?$AAo?$AAn?$AA?5?$AAb?$AAy?$AA?5?$AAz?$AAe?$AAr?$AAo?$AA?$CC?$AA?0?$AA?5?$AAf?$AAa?$AAl?$AAs?$AAe?$AA?$CJ?$AA?$AA@ 004e2e1c     libucrtd:cfout.obj
 0002:0001de60       ??_C@_1GO@BFGDDONN@?$AAm?$AAi?$AAn?$AAk?$AAe?$AAr?$AAn?$AAe?$AAl?$AA?2?$AAc?$AAr?$AAt?$AAs?$AA?2?$AAu?$AAc?$AAr?$AAt?$AA?2?$AAi?$AAn?$AAc?$AA?2?$AAc?$AAo?$AAr?$AAe?$AAc?$AAr?$AAt?$AA_@ 004e2e60     libucrtd:cfout.obj
 0002:0001dee8       ??_C@_1GC@DDAKNBNC@?$AAm?$AAi?$AAn?$AAk?$AAe?$AAr?$AAn?$AAe?$AAl?$AA?2?$AAc?$AAr?$AAt?$AAs?$AA?2?$AAu?$AAc?$AAr?$AAt?$AA?2?$AAs?$AAr?$AAc?$AA?2?$AAa?$AAp?$AAp?$AAc?$AAr?$AAt?$AA?2?$AAc@ 004e2ee8     libucrtd:cfout.obj
 0002:0001df60       ??_C@_1BM@FAAOAKKO@?$AA_?$AA_?$AAa?$AAc?$AAr?$AAt?$AA_?$AAf?$AAl?$AAt?$AAo?$AAu?$AAt?$AA?$AA@ 004e2f60     libucrtd:cfout.obj
 0002:0001df88       ??_C@_1EI@OACEJKEP@?$AAs?$AAt?$AAr?$AAc?$AAp?$AAy?$AA_?$AAs?$AA?$CI?$AAr?$AAe?$AAs?$AAu?$AAl?$AAt?$AA?0?$AA?5?$AAr?$AAe?$AAs?$AAu?$AAl?$AAt?$AA_?$AAc?$AAo?$AAu?$AAn?$AAt?$AA?0?$AA?5?$AA?$CC@ 004e2f88     libucrtd:cfout.obj
 0002:0001dfe0       ??_C@_01GBGANLPD@0?$AA@    004e2fe0     libucrtd:cfout.obj
 0002:0001dfe8       ??_C@_1FC@KIECGFMP@?$AAs?$AAt?$AAr?$AAc?$AAp?$AAy?$AA_?$AAs?$AA?$CI?$AAr?$AAe?$AAs?$AAu?$AAl?$AAt?$AA?0?$AA?5?$AAr?$AAe?$AAs?$AAu?$AAl?$AAt?$AA_?$AAc?$AAo?$AAu?$AAn?$AAt?$AA?0?$AA?5?$AA?$CC@ 004e2fe8     libucrtd:cfout.obj
 0002:0001e04c       ??_C@_05DNEBIAHO@1?$CDINF?$AA@ 004e304c     libucrtd:cfout.obj
 0002:0001e058       ??_C@_1FC@NFPJEIBD@?$AAs?$AAt?$AAr?$AAc?$AAp?$AAy?$AA_?$AAs?$AA?$CI?$AAr?$AAe?$AAs?$AAu?$AAl?$AAt?$AA?0?$AA?5?$AAr?$AAe?$AAs?$AAu?$AAl?$AAt?$AA_?$AAc?$AAo?$AAu?$AAn?$AAt?$AA?0?$AA?5?$AA?$CC@ 004e3058     libucrtd:cfout.obj
 0002:0001e0bc       ??_C@_06IMKFLFPG@1?$CDQNAN?$AA@ 004e30bc     libucrtd:cfout.obj
 0002:0001e0c8       ??_C@_1FC@DEJHIMLO@?$AAs?$AAt?$AAr?$AAc?$AAp?$AAy?$AA_?$AAs?$AA?$CI?$AAr?$AAe?$AAs?$AAu?$AAl?$AAt?$AA?0?$AA?5?$AAr?$AAe?$AAs?$AAu?$AAl?$AAt?$AA_?$AAc?$AAo?$AAu?$AAn?$AAt?$AA?0?$AA?5?$AA?$CC@ 004e30c8     libucrtd:cfout.obj
 0002:0001e12c       ??_C@_06PGGFOGJG@1?$CDSNAN?$AA@ 004e312c     libucrtd:cfout.obj
 0002:0001e138       ??_C@_1FC@KMLHLFPC@?$AAs?$AAt?$AAr?$AAc?$AAp?$AAy?$AA_?$AAs?$AA?$CI?$AAr?$AAe?$AAs?$AAu?$AAl?$AAt?$AA?0?$AA?5?$AAr?$AAe?$AAs?$AAu?$AAl?$AAt?$AA_?$AAc?$AAo?$AAu?$AAn?$AAt?$AA?0?$AA?5?$AA?$CC@ 004e3138     libucrtd:cfout.obj
 0002:0001e19c       ??_C@_05PHHOCPM@1?$CDIND?$AA@ 004e319c     libucrtd:cfout.obj
 0002:0001e1a4       ??_C@_1DE@KHKADFOO@?$AAm?$AAa?$AAn?$AAt?$AAi?$AAs?$AAs?$AAa?$AA_?$AAb?$AAu?$AAf?$AAf?$AAe?$AAr?$AA_?$AAc?$AAo?$AAu?$AAn?$AAt?$AA?5?$AA?$DO?$AA?5?$AA0?$AA?$AA@ 004e31a4     libucrtd:cfout.obj
 0002:0001e1e8       ??_C@_1FI@LFKLOPAC@?$AA?$CI?$AA?$CC?$AAu?$AAn?$AAe?$AAx?$AAp?$AAe?$AAc?$AAt?$AAe?$AAd?$AA?5?$AAi?$AAn?$AAp?$AAu?$AAt?$AA?5?$AAv?$AAa?$AAl?$AAu?$AAe?$AA?$DL?$AA?5?$AAl?$AAo?$AAg?$AA1?$AA0?$AA?5@ 004e31e8     libucrtd:cfout.obj
 0002:0001e258       ??_C@_1FG@MLHBDPBG@?$AAq?$AAu?$AAo?$AAt?$AAi?$AAe?$AAn?$AAt?$AA?5?$AA?$DM?$AA?5?$AAd?$AAi?$AAg?$AAi?$AAt?$AAs?$AA_?$AAp?$AAe?$AAr?$AA_?$AAi?$AAt?$AAe?$AAr?$AAa?$AAt?$AAi?$AAo?$AAn?$AA_@ 004e3258     libucrtd:cfout.obj
 0002:0001e2c0       ??_C@_1GC@DFIGBGJI@?$AAm?$AAi?$AAn?$AAk?$AAe?$AAr?$AAn?$AAe?$AAl?$AA?2?$AAc?$AAr?$AAt?$AAs?$AA?2?$AAu?$AAc?$AAr?$AAt?$AA?2?$AAs?$AAr?$AAc?$AA?2?$AAa?$AAp?$AAp?$AAc?$AAr?$AAt?$AA?2?$AAs@ 004e32c0     libucrtd:_flsbuf.obj
 0002:0001e338       ??_C@_1HO@MLMGPAFH@?$AA?$CI?$AA?$CC?$AAi?$AAn?$AAc?$AAo?$AAn?$AAs?$AAi?$AAs?$AAt?$AAe?$AAn?$AAt?$AA?5?$AAI?$AAO?$AAB?$AA?5?$AAf?$AAi?$AAe?$AAl?$AAd?$AAs?$AA?$CC?$AA?0?$AA?5?$AAs?$AAt?$AAr?$AAe@ 004e3338     libucrtd:_flsbuf.obj
 0002:0001e3d0       ??_C@_1GA@DEPMKPD@?$AAm?$AAi?$AAn?$AAk?$AAe?$AAr?$AAn?$AAe?$AAl?$AA?2?$AAc?$AAr?$AAt?$AAs?$AA?2?$AAu?$AAc?$AAr?$AAt?$AA?2?$AAs?$AAr?$AAc?$AA?2?$AAa?$AAp?$AAp?$AAc?$AAr?$AAt?$AA?2?$AAl@ 004e33d0     libucrtd:isatty.obj
 0002:0001e444       ??_C@_1BA@LEBDGIHM@?$AA_?$AAi?$AAs?$AAa?$AAt?$AAt?$AAy?$AA?$AA@ 004e3444     libucrtd:isatty.obj
 0002:0001ece4       ??_C@_15EMKDOKLE@?$AAa?$AAr?$AA?$AA@ 004e3ce4     libucrtd:lcidtoname_downlevel.obj
 0002:0001ecec       ??_C@_15KNPADPLH@?$AAb?$AAg?$AA?$AA@ 004e3cec     libucrtd:lcidtoname_downlevel.obj
 0002:0001ecf4       ??_C@_15EDMHLDMO@?$AAc?$AAa?$AA?$AA@ 004e3cf4     libucrtd:lcidtoname_downlevel.obj
 0002:0001ecfc       ??_C@_1O@BPEAJADD@?$AAz?$AAh?$AA?9?$AAC?$AAH?$AAS?$AA?$AA@ 004e3cfc     libucrtd:lcidtoname_downlevel.obj
 0002:0001ed0c       ??_C@_15LJNHCMNK@?$AAc?$AAs?$AA?$AA@ 004e3d0c     libucrtd:lcidtoname_downlevel.obj
 0002:0001ed14       ??_C@_15FOMCIDHG@?$AAd?$AAa?$AA?$AA@ 004e3d14     libucrtd:lcidtoname_downlevel.obj
 0002:0001ed1c       ??_C@_15NBKABECB@?$AAd?$AAe?$AA?$AA@ 004e3d1c     libucrtd:lcidtoname_downlevel.obj
 0002:0001ed24       ??_C@_15GHPEIIAO@?$AAe?$AAl?$AA?$AA@ 004e3d24     libucrtd:lcidtoname_downlevel.obj
 0002:0001ed2c       ??_C@_15MNPNEAIF@?$AAe?$AAn?$AA?$AA@ 004e3d2c     libucrtd:lcidtoname_downlevel.obj
 0002:0001ed34       ??_C@_15GPIOMPMH@?$AAe?$AAs?$AA?$AA@ 004e3d34     libucrtd:lcidtoname_downlevel.obj
 0002:0001ed3c       ??_C@_15NGLOAKJC@?$AAf?$AAi?$AA?$AA@ 004e3d3c     libucrtd:lcidtoname_downlevel.obj
 0002:0001ed44       ??_C@_15FBKGNKAM@?$AAf?$AAr?$AA?$AA@ 004e3d44     libucrtd:lcidtoname_downlevel.obj
 0002:0001ed4c       ??_C@_15KGGCNEFK@?$AAh?$AAe?$AA?$AA@ 004e3d4c     libucrtd:lcidtoname_downlevel.obj
 0002:0001ed54       ??_C@_15PGHLIDMF@?$AAh?$AAu?$AA?$AA@ 004e3d54     libucrtd:lcidtoname_downlevel.obj
 0002:0001ed5c       ??_C@_15BIEMAPLM@?$AAi?$AAs?$AA?$AA@ 004e3d5c     libucrtd:lcidtoname_downlevel.obj
 0002:0001ed64       ??_C@_15IFJLDHAF@?$AAi?$AAt?$AA?$AA@ 004e3d64     libucrtd:lcidtoname_downlevel.obj
 0002:0001ed6c       ??_C@_15GEMIOCAG@?$AAj?$AAa?$AA?$AA@ 004e3d6c     libucrtd:lcidtoname_downlevel.obj
 0002:0001ed74       ??_C@_15EPELEGJA@?$AAk?$AAo?$AA?$AA@ 004e3d74     libucrtd:lcidtoname_downlevel.obj
 0002:0001ed7c       ??_C@_15NDDHIMN@?$AAn?$AAl?$AA?$AA@ 004e3d7c     libucrtd:lcidtoname_downlevel.obj
 0002:0001ed84       ??_C@_15BPIGNHCD@?$AAn?$AAo?$AA?$AA@ 004e3d84     libucrtd:lcidtoname_downlevel.obj
 0002:0001ed8c       ??_C@_15DEOPBLCG@?$AAp?$AAl?$AA?$AA@ 004e3d8c     libucrtd:lcidtoname_downlevel.obj
 0002:0001ed94       ??_C@_15KBECGEFG@?$AAp?$AAt?$AA?$AA@ 004e3d94     libucrtd:lcidtoname_downlevel.obj
 0002:0001ed9c       ??_C@_15GLJCBFMD@?$AAr?$AAo?$AA?$AA@ 004e3d9c     libucrtd:lcidtoname_downlevel.obj
 0002:0001eda4       ??_C@_15FEDGKCDI@?$AAr?$AAu?$AA?$AA@ 004e3da4     libucrtd:lcidtoname_downlevel.obj
 0002:0001edac       ??_C@_15GLKMLLHM@?$AAh?$AAr?$AA?$AA@ 004e3dac     libucrtd:lcidtoname_downlevel.obj
 0002:0001edb4       ??_C@_15CPKMFBDB@?$AAs?$AAk?$AA?$AA@ 004e3db4     libucrtd:lcidtoname_downlevel.obj
 0002:0001edbc       ??_C@_15BAAIOGMK@?$AAs?$AAq?$AA?$AA@ 004e3dbc     libucrtd:lcidtoname_downlevel.obj
 0002:0001edc4       ??_C@_15INNPNOHD@?$AAs?$AAv?$AA?$AA@ 004e3dc4     libucrtd:lcidtoname_downlevel.obj
 0002:0001edcc       ??_C@_15CABMMOGH@?$AAt?$AAh?$AA?$AA@ 004e3dcc     libucrtd:lcidtoname_downlevel.obj
 0002:0001edd4       ??_C@_15BPLIHJJM@?$AAt?$AAr?$AA?$AA@ 004e3dd4     libucrtd:lcidtoname_downlevel.obj
 0002:0001eddc       ??_C@_15NEOEKKDJ@?$AAu?$AAr?$AA?$AA@ 004e3ddc     libucrtd:lcidtoname_downlevel.obj
 0002:0001ede4       ??_C@_15NFICGAJK@?$AAi?$AAd?$AA?$AA@ 004e3de4     libucrtd:lcidtoname_downlevel.obj
 0002:0001edec       ??_C@_15HPJPHDM@?$AAb?$AAe?$AA?$AA@ 004e3dec     libucrtd:lcidtoname_downlevel.obj
 0002:0001edf4       ??_C@_15LCHLGJII@?$AAs?$AAl?$AA?$AA@ 004e3df4     libucrtd:lcidtoname_downlevel.obj
 0002:0001edfc       ??_C@_15PCFJPHHO@?$AAe?$AAt?$AA?$AA@ 004e3dfc     libucrtd:lcidtoname_downlevel.obj
 0002:0001ee04       ??_C@_15HPFPGODN@?$AAl?$AAv?$AA?$AA@ 004e3e04     libucrtd:lcidtoname_downlevel.obj
 0002:0001ee0c       ??_C@_15NFFGKGLG@?$AAl?$AAt?$AA?$AA@ 004e3e0c     libucrtd:lcidtoname_downlevel.obj
 0002:0001ee14       ??_C@_15BDAKCCHN@?$AAf?$AAa?$AA?$AA@ 004e3e14     libucrtd:lcidtoname_downlevel.obj
 0002:0001ee1c       ??_C@_15NFGIAIAJ@?$AAv?$AAi?$AA?$AA@ 004e3e1c     libucrtd:lcidtoname_downlevel.obj
 0002:0001ee24       ??_C@_15LMKNDMHN@?$AAh?$AAy?$AA?$AA@ 004e3e24     libucrtd:lcidtoname_downlevel.obj
 0002:0001ee2c       ??_C@_15IJBHMCFL@?$AAa?$AAz?$AA?$AA@ 004e3e2c     libucrtd:lcidtoname_downlevel.obj
 0002:0001ee34       ??_C@_15EKOFJABL@?$AAe?$AAu?$AA?$AA@ 004e3e34     libucrtd:lcidtoname_downlevel.obj
 0002:0001ee3c       ??_C@_15BGHADCNK@?$AAm?$AAk?$AA?$AA@ 004e3e3c     libucrtd:lcidtoname_downlevel.obj
 0002:0001ee44       ??_C@_15JDNICKHM@?$AAa?$AAf?$AA?$AA@ 004e3e44     libucrtd:lcidtoname_downlevel.obj
 0002:0001ee4c       ??_C@_15KPJEDBKD@?$AAk?$AAa?$AA?$AA@ 004e3e4c     libucrtd:lcidtoname_downlevel.obj
 0002:0001ee54       ??_C@_15PDNFFFEO@?$AAf?$AAo?$AA?$AA@ 004e3e54     libucrtd:lcidtoname_downlevel.obj
 0002:0001ee5c       ??_C@_15OMLEGLOC@?$AAh?$AAi?$AA?$AA@ 004e3e5c     libucrtd:lcidtoname_downlevel.obj
 0002:0001ee64       ??_C@_15IDNNENKK@?$AAm?$AAs?$AA?$AA@ 004e3e64     libucrtd:lcidtoname_downlevel.obj
 0002:0001ee6c       ??_C@_15MACJNBMH@?$AAk?$AAk?$AA?$AA@ 004e3e6c     libucrtd:lcidtoname_downlevel.obj
 0002:0001ee74       ??_C@_15DKDJEOND@?$AAk?$AAy?$AA?$AA@ 004e3e74     libucrtd:lcidtoname_downlevel.obj
 0002:0001ee7c       ??_C@_15DFGDLJBG@?$AAs?$AAw?$AA?$AA@ 004e3e7c     libucrtd:lcidtoname_downlevel.obj
 0002:0001ee84       ??_C@_15BBFAICNG@?$AAu?$AAz?$AA?$AA@ 004e3e84     libucrtd:lcidtoname_downlevel.obj
 0002:0001ee8c       ??_C@_15DKNDCGEA@?$AAt?$AAt?$AA?$AA@ 004e3e8c     libucrtd:lcidtoname_downlevel.obj
 0002:0001ee94       ??_C@_15MGIFMDPL@?$AAp?$AAa?$AA?$AA@ 004e3e94     libucrtd:lcidtoname_downlevel.obj
 0002:0001ee9c       ??_C@_15HCNDBBA@?$AAg?$AAu?$AA?$AA@ 004e3e9c     libucrtd:lcidtoname_downlevel.obj
 0002:0001eea4       ??_C@_15FNBEIBON@?$AAt?$AAa?$AA?$AA@ 004e3ea4     libucrtd:lcidtoname_downlevel.obj
 0002:0001eeac       ??_C@_15NCHGBGLK@?$AAt?$AAe?$AA?$AA@ 004e3eac     libucrtd:lcidtoname_downlevel.obj
 0002:0001eeb4       ??_C@_15PHPHCBPF@?$AAk?$AAn?$AA?$AA@ 004e3eb4     libucrtd:lcidtoname_downlevel.obj
 0002:0001eebc       ??_C@_15DLGBCKMP@?$AAm?$AAr?$AA?$AA@ 004e3ebc     libucrtd:lcidtoname_downlevel.obj
 0002:0001eec4       ??_C@_15EABBLBFF@?$AAs?$AAa?$AA?$AA@ 004e3ec4     libucrtd:lcidtoname_downlevel.obj
 0002:0001eecc       ??_C@_15CBKOMCOI@?$AAm?$AAn?$AA?$AA@ 004e3ecc     libucrtd:lcidtoname_downlevel.obj
 0002:0001eed4       ??_C@_15CKDMCJAF@?$AAg?$AAl?$AA?$AA@ 004e3ed4     libucrtd:lcidtoname_downlevel.obj
 0002:0001eedc       ??_C@_17CNJFBPG@?$AAk?$AAo?$AAk?$AA?$AA@ 004e3edc     libucrtd:lcidtoname_downlevel.obj
 0002:0001eee8       ??_C@_17FFBJICPL@?$AAs?$AAy?$AAr?$AA?$AA@ 004e3ee8     libucrtd:lcidtoname_downlevel.obj
 0002:0001eef4       ??_C@_17KPNDCPAF@?$AAd?$AAi?$AAv?$AA?$AA@ 004e3ef4     libucrtd:lcidtoname_downlevel.obj
 0002:0001ef00       ??_C@_1M@OKAHONE@?$AAa?$AAr?$AA?9?$AAS?$AAA?$AA?$AA@ 004e3f00     libucrtd:lcidtoname_downlevel.obj
 0002:0001ef10       ??_C@_1M@FFFIGIGK@?$AAb?$AAg?$AA?9?$AAB?$AAG?$AA?$AA@ 004e3f10     libucrtd:lcidtoname_downlevel.obj
 0002:0001ef20       ??_C@_1M@BJNKEDC@?$AAc?$AAa?$AA?9?$AAE?$AAS?$AA?$AA@ 004e3f20     libucrtd:lcidtoname_downlevel.obj
 0002:0001ef30       ??_C@_1M@IJJHFJHA@?$AAc?$AAs?$AA?9?$AAC?$AAZ?$AA?$AA@ 004e3f30     libucrtd:lcidtoname_downlevel.obj
 0002:0001ef40       ??_C@_1M@CLPEOBGI@?$AAd?$AAa?$AA?9?$AAD?$AAK?$AA?$AA@ 004e3f40     libucrtd:lcidtoname_downlevel.obj
 0002:0001ef50       ??_C@_1M@MCMADGCB@?$AAd?$AAe?$AA?9?$AAD?$AAE?$AA?$AA@ 004e3f50     libucrtd:lcidtoname_downlevel.obj
 0002:0001ef60       ??_C@_1M@OOCKEMAM@?$AAe?$AAl?$AA?9?$AAG?$AAR?$AA?$AA@ 004e3f60     libucrtd:lcidtoname_downlevel.obj
 0002:0001ef70       ??_C@_1M@DDNJFGID@?$AAf?$AAi?$AA?9?$AAF?$AAI?$AA?$AA@ 004e3f70     libucrtd:lcidtoname_downlevel.obj
 0002:0001ef80       ??_C@_1M@GLIPPMAC@?$AAf?$AAr?$AA?9?$AAF?$AAR?$AA?$AA@ 004e3f80     libucrtd:lcidtoname_downlevel.obj
 0002:0001ef90       ??_C@_1M@GFMCHPE@?$AAh?$AAe?$AA?9?$AAI?$AAL?$AA?$AA@ 004e3f90     libucrtd:lcidtoname_downlevel.obj
 0002:0001efa0       ??_C@_1M@MHLPGNKM@?$AAh?$AAu?$AA?9?$AAH?$AAU?$AA?$AA@ 004e3fa0     libucrtd:lcidtoname_downlevel.obj
 0002:0001efb0       ??_C@_1M@LPDDNNPN@?$AAi?$AAs?$AA?9?$AAI?$AAS?$AA?$AA@ 004e3fb0     libucrtd:lcidtoname_downlevel.obj
 0002:0001efc0       ??_C@_1M@MADIPODN@?$AAi?$AAt?$AA?9?$AAI?$AAT?$AA?$AA@ 004e3fc0     libucrtd:lcidtoname_downlevel.obj
 0002:0001efd0       ??_C@_1M@IHBJJGG@?$AAn?$AAl?$AA?9?$AAN?$AAL?$AA?$AA@ 004e3fd0     libucrtd:lcidtoname_downlevel.obj
 0002:0001efe0       ??_C@_1M@EANAGDL@?$AAn?$AAb?$AA?9?$AAN?$AAO?$AA?$AA@ 004e3fe0     libucrtd:lcidtoname_downlevel.obj
 0002:0001eff0       ??_C@_1M@NEIEMEGP@?$AAp?$AAl?$AA?9?$AAP?$AAL?$AA?$AA@ 004e3ff0     libucrtd:lcidtoname_downlevel.obj
 0002:0001f000       ??_C@_1M@BOCFIGEP@?$AAp?$AAt?$AA?9?$AAB?$AAR?$AA?$AA@ 004e4000     libucrtd:lcidtoname_downlevel.obj
 0002:0001f010       ??_C@_1M@IMPFOPBG@?$AAr?$AAo?$AA?9?$AAR?$AAO?$AA?$AA@ 004e4010     libucrtd:lcidtoname_downlevel.obj
 0002:0001f020       ??_C@_1M@IDNNEJMM@?$AAr?$AAu?$AA?9?$AAR?$AAU?$AA?$AA@ 004e4020     libucrtd:lcidtoname_downlevel.obj
 0002:0001f030       ??_C@_1M@LILEEOGM@?$AAh?$AAr?$AA?9?$AAH?$AAR?$AA?$AA@ 004e4030     libucrtd:lcidtoname_downlevel.obj
 0002:0001f040       ??_C@_1M@FKIFEHPB@?$AAs?$AAk?$AA?9?$AAS?$AAK?$AA?$AA@ 004e4040     libucrtd:lcidtoname_downlevel.obj
 0002:0001f050       ??_C@_1M@LJMAMNPJ@?$AAs?$AAq?$AA?9?$AAA?$AAL?$AA?$AA@ 004e4050     libucrtd:lcidtoname_downlevel.obj
 0002:0001f060       ??_C@_1M@GIAKDKJK@?$AAs?$AAv?$AA?9?$AAS?$AAE?$AA?$AA@ 004e4060     libucrtd:lcidtoname_downlevel.obj
 0002:0001f070       ??_C@_1M@MKJKIKCL@?$AAt?$AAh?$AA?9?$AAT?$AAH?$AA?$AA@ 004e4070     libucrtd:lcidtoname_downlevel.obj
 0002:0001f080       ??_C@_1M@MFLCCMPB@?$AAt?$AAr?$AA?9?$AAT?$AAR?$AA?$AA@ 004e4080     libucrtd:lcidtoname_downlevel.obj
 0002:0001f090       ??_C@_1M@OIJHDKJN@?$AAu?$AAr?$AA?9?$AAP?$AAK?$AA?$AA@ 004e4090     libucrtd:lcidtoname_downlevel.obj
 0002:0001f0a0       ??_C@_1M@LHIPCIEK@?$AAi?$AAd?$AA?9?$AAI?$AAD?$AA?$AA@ 004e40a0     libucrtd:lcidtoname_downlevel.obj
 0002:0001f0b0       ??_C@_1M@MFMOBGI@?$AAu?$AAk?$AA?9?$AAU?$AAA?$AA?$AA@ 004e40b0     libucrtd:lcidtoname_downlevel.obj
 0002:0001f0c0       ??_C@_1M@OBGLJIPL@?$AAb?$AAe?$AA?9?$AAB?$AAY?$AA?$AA@ 004e40c0     libucrtd:lcidtoname_downlevel.obj
 0002:0001f0d0       ??_C@_1M@BCFAJEAD@?$AAs?$AAl?$AA?9?$AAS?$AAI?$AA?$AA@ 004e40d0     libucrtd:lcidtoname_downlevel.obj
 0002:0001f0e0       ??_C@_1M@FKFFEDDN@?$AAe?$AAt?$AA?9?$AAE?$AAE?$AA?$AA@ 004e40e0     libucrtd:lcidtoname_downlevel.obj
 0002:0001f0f0       ??_C@_1M@KGKKAACI@?$AAl?$AAv?$AA?9?$AAL?$AAV?$AA?$AA@ 004e40f0     libucrtd:lcidtoname_downlevel.obj
 0002:0001f100       ??_C@_1M@IFGBIJO@?$AAl?$AAt?$AA?9?$AAL?$AAT?$AA?$AA@ 004e4100     libucrtd:lcidtoname_downlevel.obj
 0002:0001f110       ??_C@_1M@FGEAHEDM@?$AAf?$AAa?$AA?9?$AAI?$AAR?$AA?$AA@ 004e4110     libucrtd:lcidtoname_downlevel.obj
 0002:0001f120       ??_C@_1M@KBMAIBFN@?$AAv?$AAi?$AA?9?$AAV?$AAN?$AA?$AA@ 004e4120     libucrtd:lcidtoname_downlevel.obj
 0002:0001f130       ??_C@_1M@GPCBKDJK@?$AAh?$AAy?$AA?9?$AAA?$AAM?$AA?$AA@ 004e4130     libucrtd:lcidtoname_downlevel.obj
 0002:0001f140       ??_C@_1BG@BECMDDJB@?$AAa?$AAz?$AA?9?$AAA?$AAZ?$AA?9?$AAL?$AAa?$AAt?$AAn?$AA?$AA@ 004e4140     libucrtd:lcidtoname_downlevel.obj
 0002:0001f15c       ??_C@_1M@MAOFCAEA@?$AAe?$AAu?$AA?9?$AAE?$AAS?$AA?$AA@ 004e415c     libucrtd:lcidtoname_downlevel.obj
 0002:0001f16c       ??_C@_1M@IGHABKPI@?$AAm?$AAk?$AA?9?$AAM?$AAK?$AA?$AA@ 004e416c     libucrtd:lcidtoname_downlevel.obj
 0002:0001f17c       ??_C@_1M@IAIGNEJG@?$AAt?$AAn?$AA?9?$AAZ?$AAA?$AA?$AA@ 004e417c     libucrtd:lcidtoname_downlevel.obj
 0002:0001f18c       ??_C@_1M@IIJCOJFA@?$AAx?$AAh?$AA?9?$AAZ?$AAA?$AA?$AA@ 004e418c     libucrtd:lcidtoname_downlevel.obj
 0002:0001f19c       ??_C@_1M@LGPJHNJH@?$AAz?$AAu?$AA?9?$AAZ?$AAA?$AA?$AA@ 004e419c     libucrtd:lcidtoname_downlevel.obj
 0002:0001f1ac       ??_C@_1M@HOKAOIO@?$AAa?$AAf?$AA?9?$AAZ?$AAA?$AA?$AA@ 004e41ac     libucrtd:lcidtoname_downlevel.obj
 0002:0001f1bc       ??_C@_1M@DPCLHLIE@?$AAk?$AAa?$AA?9?$AAG?$AAE?$AA?$AA@ 004e41bc     libucrtd:lcidtoname_downlevel.obj
 0002:0001f1cc       ??_C@_1M@BLKMHJBI@?$AAf?$AAo?$AA?9?$AAF?$AAO?$AA?$AA@ 004e41cc     libucrtd:lcidtoname_downlevel.obj
 0002:0001f1dc       ??_C@_1M@LGGJAPPB@?$AAh?$AAi?$AA?9?$AAI?$AAN?$AA?$AA@ 004e41dc     libucrtd:lcidtoname_downlevel.obj
 0002:0001f1ec       ??_C@_1M@FIKPIHFE@?$AAm?$AAt?$AA?9?$AAM?$AAT?$AA?$AA@ 004e41ec     libucrtd:lcidtoname_downlevel.obj
 0002:0001f1fc       ??_C@_1M@HEGGPBFA@?$AAs?$AAe?$AA?9?$AAN?$AAO?$AA?$AA@ 004e41fc     libucrtd:lcidtoname_downlevel.obj
 0002:0001f20c       ??_C@_1M@EIBJEEPA@?$AAm?$AAs?$AA?9?$AAM?$AAY?$AA?$AA@ 004e420c     libucrtd:lcidtoname_downlevel.obj
 0002:0001f21c       ??_C@_1M@FHLBGMPP@?$AAk?$AAk?$AA?9?$AAK?$AAZ?$AA?$AA@ 004e421c     libucrtd:lcidtoname_downlevel.obj
 0002:0001f22c       ??_C@_1M@NGJJLCGI@?$AAk?$AAy?$AA?9?$AAK?$AAG?$AA?$AA@ 004e422c     libucrtd:lcidtoname_downlevel.obj
 0002:0001f23c       ??_C@_1M@GIENNBFC@?$AAs?$AAw?$AA?9?$AAK?$AAE?$AA?$AA@ 004e423c     libucrtd:lcidtoname_downlevel.obj
 0002:0001f24c       ??_C@_1BG@NDGMJIMJ@?$AAu?$AAz?$AA?9?$AAU?$AAZ?$AA?9?$AAL?$AAa?$AAt?$AAn?$AA?$AA@ 004e424c     libucrtd:lcidtoname_downlevel.obj
 0002:0001f268       ??_C@_1M@IDCCIHBC@?$AAt?$AAt?$AA?9?$AAR?$AAU?$AA?$AA@ 004e4268     libucrtd:lcidtoname_downlevel.obj
 0002:0001f278       ??_C@_1M@LOICPMOJ@?$AAb?$AAn?$AA?9?$AAI?$AAN?$AA?$AA@ 004e4278     libucrtd:lcidtoname_downlevel.obj
 0002:0001f288       ??_C@_1M@KPKKNEAH@?$AAp?$AAa?$AA?9?$AAI?$AAN?$AA?$AA@ 004e4288     libucrtd:lcidtoname_downlevel.obj
 0002:0001f298       ??_C@_1M@PJGPPBOG@?$AAg?$AAu?$AA?9?$AAI?$AAN?$AA?$AA@ 004e4298     libucrtd:lcidtoname_downlevel.obj
 0002:0001f2a8       ??_C@_1M@KMKMOPHI@?$AAt?$AAa?$AA?9?$AAI?$AAN?$AA?$AA@ 004e42a8     libucrtd:lcidtoname_downlevel.obj
 0002:0001f2b8       ??_C@_1M@KFEHEPAC@?$AAt?$AAe?$AA?9?$AAI?$AAN?$AA?$AA@ 004e42b8     libucrtd:lcidtoname_downlevel.obj
 0002:0001f2c8       ??_C@_1M@CDCLMGHI@?$AAk?$AAn?$AA?9?$AAI?$AAN?$AA?$AA@ 004e42c8     libucrtd:lcidtoname_downlevel.obj
 0002:0001f2d8       ??_C@_1M@MIODLDKF@?$AAm?$AAl?$AA?9?$AAI?$AAN?$AA?$AA@ 004e42d8     libucrtd:lcidtoname_downlevel.obj
 0002:0001f2e8       ??_C@_1M@PBIEACPO@?$AAm?$AAr?$AA?9?$AAI?$AAN?$AA?$AA@ 004e42e8     libucrtd:lcidtoname_downlevel.obj
 0002:0001f2f8       ??_C@_1M@NIDEAGPH@?$AAs?$AAa?$AA?9?$AAI?$AAN?$AA?$AA@ 004e42f8     libucrtd:lcidtoname_downlevel.obj
 0002:0001f308       ??_C@_1M@FHIHCBIO@?$AAm?$AAn?$AA?9?$AAM?$AAN?$AA?$AA@ 004e4308     libucrtd:lcidtoname_downlevel.obj
 0002:0001f318       ??_C@_1M@JAIJPENP@?$AAc?$AAy?$AA?9?$AAG?$AAB?$AA?$AA@ 004e4318     libucrtd:lcidtoname_downlevel.obj
 0002:0001f328       ??_C@_1M@PHGFBEPN@?$AAg?$AAl?$AA?9?$AAE?$AAS?$AA?$AA@ 004e4328     libucrtd:lcidtoname_downlevel.obj
 0002:0001f338       ??_C@_1O@KPIPDNCP@?$AAk?$AAo?$AAk?$AA?9?$AAI?$AAN?$AA?$AA@ 004e4338     libucrtd:lcidtoname_downlevel.obj
 0002:0001f348       ??_C@_1O@KNHJLDJA@?$AAs?$AAy?$AAr?$AA?9?$AAS?$AAY?$AA?$AA@ 004e4348     libucrtd:lcidtoname_downlevel.obj
 0002:0001f358       ??_C@_1O@MKEKBLAH@?$AAd?$AAi?$AAv?$AA?9?$AAM?$AAV?$AA?$AA@ 004e4358     libucrtd:lcidtoname_downlevel.obj
 0002:0001f368       ??_C@_1O@OHDCKDDF@?$AAq?$AAu?$AAz?$AA?9?$AAB?$AAO?$AA?$AA@ 004e4368     libucrtd:lcidtoname_downlevel.obj
 0002:0001f378       ??_C@_1M@LEPJNLFD@?$AAn?$AAs?$AA?9?$AAZ?$AAA?$AA?$AA@ 004e4378     libucrtd:lcidtoname_downlevel.obj
 0002:0001f388       ??_C@_1M@OMLEIIJB@?$AAm?$AAi?$AA?9?$AAN?$AAZ?$AA?$AA@ 004e4388     libucrtd:lcidtoname_downlevel.obj
 0002:0001f398       ??_C@_1M@PMPEAILG@?$AAa?$AAr?$AA?9?$AAI?$AAQ?$AA?$AA@ 004e4398     libucrtd:lcidtoname_downlevel.obj
 0002:0001f3a8       ??_C@_1M@CNKPNOEE@?$AAd?$AAe?$AA?9?$AAC?$AAH?$AA?$AA@ 004e43a8     libucrtd:lcidtoname_downlevel.obj
 0002:0001f3b8       ??_C@_1M@LKMGMLKO@?$AAe?$AAn?$AA?9?$AAG?$AAB?$AA?$AA@ 004e43b8     libucrtd:lcidtoname_downlevel.obj
 0002:0001f3c8       ??_C@_1M@PGKJFFGL@?$AAe?$AAs?$AA?9?$AAM?$AAX?$AA?$AA@ 004e43c8     libucrtd:lcidtoname_downlevel.obj
 0002:0001f3d8       ??_C@_1M@DNNANBDC@?$AAf?$AAr?$AA?9?$AAB?$AAE?$AA?$AA@ 004e43d8     libucrtd:lcidtoname_downlevel.obj
 0002:0001f3e8       ??_C@_1M@HLGMDFHM@?$AAi?$AAt?$AA?9?$AAC?$AAH?$AA?$AA@ 004e43e8     libucrtd:lcidtoname_downlevel.obj
 0002:0001f3f8       ??_C@_1M@CLLBGJH@?$AAn?$AAl?$AA?9?$AAB?$AAE?$AA?$AA@ 004e43f8     libucrtd:lcidtoname_downlevel.obj
 0002:0001f408       ??_C@_1M@BODBOGLF@?$AAn?$AAn?$AA?9?$AAN?$AAO?$AA?$AA@ 004e4408     libucrtd:lcidtoname_downlevel.obj
 0002:0001f418       ??_C@_1M@HFFAHKAD@?$AAp?$AAt?$AA?9?$AAP?$AAT?$AA?$AA@ 004e4418     libucrtd:lcidtoname_downlevel.obj
 0002:0001f428       ??_C@_1BG@LNOAKHIE@?$AAs?$AAr?$AA?9?$AAS?$AAP?$AA?9?$AAL?$AAa?$AAt?$AAn?$AA?$AA@ 004e4428     libucrtd:lcidtoname_downlevel.obj
 0002:0001f444       ??_C@_1M@HBMHBGAK@?$AAs?$AAv?$AA?9?$AAF?$AAI?$AA?$AA@ 004e4444     libucrtd:lcidtoname_downlevel.obj
 0002:0001f454       ??_C@_1BG@DGCJGJBE@?$AAa?$AAz?$AA?9?$AAA?$AAZ?$AA?9?$AAC?$AAy?$AAr?$AAl?$AA?$AA@ 004e4454     libucrtd:lcidtoname_downlevel.obj
 0002:0001f470       ??_C@_1M@KEJDAAHB@?$AAs?$AAe?$AA?9?$AAS?$AAE?$AA?$AA@ 004e4470     libucrtd:lcidtoname_downlevel.obj
 0002:0001f480       ??_C@_1M@HEIBJJAD@?$AAm?$AAs?$AA?9?$AAB?$AAN?$AA?$AA@ 004e4480     libucrtd:lcidtoname_downlevel.obj
 0002:0001f490       ??_C@_1BG@PBGJMCEM@?$AAu?$AAz?$AA?9?$AAU?$AAZ?$AA?9?$AAC?$AAy?$AAr?$AAl?$AA?$AA@ 004e4490     libucrtd:lcidtoname_downlevel.obj
 0002:0001f4ac       ??_C@_1O@LAOBCMDF@?$AAq?$AAu?$AAz?$AA?9?$AAE?$AAC?$AA?$AA@ 004e44ac     libucrtd:lcidtoname_downlevel.obj
 0002:0001f4bc       ??_C@_1M@POEEMAIO@?$AAa?$AAr?$AA?9?$AAE?$AAG?$AA?$AA@ 004e44bc     libucrtd:lcidtoname_downlevel.obj
 0002:0001f4cc       ??_C@_1M@EFAKDEDL@?$AAz?$AAh?$AA?9?$AAH?$AAK?$AA?$AA@ 004e44cc     libucrtd:lcidtoname_downlevel.obj
 0002:0001f4dc       ??_C@_1M@HKKIJHGI@?$AAd?$AAe?$AA?9?$AAA?$AAT?$AA?$AA@ 004e44dc     libucrtd:lcidtoname_downlevel.obj
 0002:0001f4ec       ??_C@_1M@KBFBEHJF@?$AAe?$AAn?$AA?9?$AAA?$AAU?$AA?$AA@ 004e44ec     libucrtd:lcidtoname_downlevel.obj
 0002:0001f4fc       ??_C@_1M@MNPLFAAH@?$AAe?$AAs?$AA?9?$AAE?$AAS?$AA?$AA@ 004e44fc     libucrtd:lcidtoname_downlevel.obj
 0002:0001f50c       ??_C@_1M@HJOOJFMA@?$AAf?$AAr?$AA?9?$AAC?$AAA?$AA?$AA@ 004e450c     libucrtd:lcidtoname_downlevel.obj
 0002:0001f51c       ??_C@_1BG@JPOFPNAB@?$AAs?$AAr?$AA?9?$AAS?$AAP?$AA?9?$AAC?$AAy?$AAr?$AAl?$AA?$AA@ 004e451c     libucrtd:lcidtoname_downlevel.obj
 0002:0001f538       ??_C@_1M@LNFOCMOB@?$AAs?$AAe?$AA?9?$AAF?$AAI?$AA?$AA@ 004e4538     libucrtd:lcidtoname_downlevel.obj
 0002:0001f548       ??_C@_1O@MGJBOAMB@?$AAq?$AAu?$AAz?$AA?9?$AAP?$AAE?$AA?$AA@ 004e4548     libucrtd:lcidtoname_downlevel.obj
 0002:0001f558       ??_C@_1M@GJINLBOK@?$AAa?$AAr?$AA?9?$AAL?$AAY?$AA?$AA@ 004e4558     libucrtd:lcidtoname_downlevel.obj
 0002:0001f568       ??_C@_1M@GGMNHJNL@?$AAz?$AAh?$AA?9?$AAS?$AAG?$AA?$AA@ 004e4568     libucrtd:lcidtoname_downlevel.obj
 0002:0001f578       ??_C@_1M@HOIKODND@?$AAd?$AAe?$AA?9?$AAL?$AAU?$AA?$AA@ 004e4578     libucrtd:lcidtoname_downlevel.obj
 0002:0001f588       ??_C@_1M@DDOCCGFG@?$AAe?$AAn?$AA?9?$AAC?$AAA?$AA?$AA@ 004e4588     libucrtd:lcidtoname_downlevel.obj
 0002:0001f598       ??_C@_1M@BNOEMJLF@?$AAe?$AAs?$AA?9?$AAG?$AAT?$AA?$AA@ 004e4598     libucrtd:lcidtoname_downlevel.obj
 0002:0001f5a8       ??_C@_1M@EOGNKEK@?$AAf?$AAr?$AA?9?$AAC?$AAH?$AA?$AA@ 004e45a8     libucrtd:lcidtoname_downlevel.obj
 0002:0001f5b8       ??_C@_1M@FLIDJFHL@?$AAh?$AAr?$AA?9?$AAB?$AAA?$AA?$AA@ 004e45b8     libucrtd:lcidtoname_downlevel.obj
 0002:0001f5c8       ??_C@_1O@FMCELNAJ@?$AAs?$AAm?$AAj?$AA?9?$AAN?$AAO?$AA?$AA@ 004e45c8     libucrtd:lcidtoname_downlevel.obj
 0002:0001f5d8       ??_C@_1M@JHGLJMGJ@?$AAa?$AAr?$AA?9?$AAD?$AAZ?$AA?$AA@ 004e45d8     libucrtd:lcidtoname_downlevel.obj
 0002:0001f5e8       ??_C@_1M@JKKFDCNP@?$AAz?$AAh?$AA?9?$AAM?$AAO?$AA?$AA@ 004e45e8     libucrtd:lcidtoname_downlevel.obj
 0002:0001f5f8       ??_C@_1M@GEEFALPE@?$AAd?$AAe?$AA?9?$AAL?$AAI?$AA?$AA@ 004e45f8     libucrtd:lcidtoname_downlevel.obj
 0002:0001f608       ??_C@_1M@IGEOFBG@?$AAe?$AAn?$AA?9?$AAN?$AAZ?$AA?$AA@ 004e4608     libucrtd:lcidtoname_downlevel.obj
 0002:0001f618       ??_C@_1M@KDBONEHP@?$AAe?$AAs?$AA?9?$AAC?$AAR?$AA?$AA@ 004e4618     libucrtd:lcidtoname_downlevel.obj
 0002:0001f628       ??_C@_1M@FHMDOHNN@?$AAf?$AAr?$AA?9?$AAL?$AAU?$AA?$AA@ 004e4628     libucrtd:lcidtoname_downlevel.obj
 0002:0001f638       ??_C@_1BG@NFKKMAFG@?$AAb?$AAs?$AA?9?$AAB?$AAA?$AA?9?$AAL?$AAa?$AAt?$AAn?$AA?$AA@ 004e4638     libucrtd:lcidtoname_downlevel.obj
 0002:0001f654       ??_C@_1O@IMNBEMCI@?$AAs?$AAm?$AAj?$AA?9?$AAS?$AAE?$AA?$AA@ 004e4654     libucrtd:lcidtoname_downlevel.obj
 0002:0001f664       ??_C@_1M@DHHMBNDP@?$AAa?$AAr?$AA?9?$AAM?$AAA?$AA?$AA@ 004e4664     libucrtd:lcidtoname_downlevel.obj
 0002:0001f674       ??_C@_1M@BNBLJCGH@?$AAe?$AAn?$AA?9?$AAI?$AAE?$AA?$AA@ 004e4674     libucrtd:lcidtoname_downlevel.obj
 0002:0001f684       ??_C@_1M@GEPAFMDL@?$AAe?$AAs?$AA?9?$AAP?$AAA?$AA?$AA@ 004e4684     libucrtd:lcidtoname_downlevel.obj
 0002:0001f694       ??_C@_1M@OJONDMDL@?$AAf?$AAr?$AA?9?$AAM?$AAC?$AA?$AA@ 004e4694     libucrtd:lcidtoname_downlevel.obj
 0002:0001f6a4       ??_C@_1BG@OBCNFJB@?$AAs?$AAr?$AA?9?$AAB?$AAA?$AA?9?$AAL?$AAa?$AAt?$AAn?$AA?$AA@ 004e46a4     libucrtd:lcidtoname_downlevel.obj
 0002:0001f6c0       ??_C@_1O@KEMEEGPO@?$AAs?$AAm?$AAa?$AA?9?$AAN?$AAO?$AA?$AA@ 004e46c0     libucrtd:lcidtoname_downlevel.obj
 0002:0001f6d0       ??_C@_1M@ELMGFODK@?$AAa?$AAr?$AA?9?$AAT?$AAN?$AA?$AA@ 004e46d0     libucrtd:lcidtoname_downlevel.obj
 0002:0001f6e0       ??_C@_1M@BHDLHFAF@?$AAe?$AAn?$AA?9?$AAZ?$AAA?$AA?$AA@ 004e46e0     libucrtd:lcidtoname_downlevel.obj
 0002:0001f6f0       ??_C@_1M@BMGIGLIF@?$AAe?$AAs?$AA?9?$AAD?$AAO?$AA?$AA@ 004e46f0     libucrtd:lcidtoname_downlevel.obj
 0002:0001f700       ??_C@_1BG@CMBHIPBE@?$AAs?$AAr?$AA?9?$AAB?$AAA?$AA?9?$AAC?$AAy?$AAr?$AAl?$AA?$AA@ 004e4700     libucrtd:lcidtoname_downlevel.obj
 0002:0001f71c       ??_C@_1O@HEDBLHNP@?$AAs?$AAm?$AAa?$AA?9?$AAS?$AAE?$AA?$AA@ 004e471c     libucrtd:lcidtoname_downlevel.obj
 0002:0001f72c       ??_C@_1M@DAGCADIM@?$AAa?$AAr?$AA?9?$AAO?$AAM?$AA?$AA@ 004e472c     libucrtd:lcidtoname_downlevel.obj
 0002:0001f73c       ??_C@_1M@FODLMICG@?$AAe?$AAn?$AA?9?$AAJ?$AAM?$AA?$AA@ 004e473c     libucrtd:lcidtoname_downlevel.obj
 0002:0001f74c       ??_C@_1M@DNMLCIHB@?$AAe?$AAs?$AA?9?$AAV?$AAE?$AA?$AA@ 004e474c     libucrtd:lcidtoname_downlevel.obj
 0002:0001f75c       ??_C@_1O@EOKHMKJK@?$AAs?$AAm?$AAs?$AA?9?$AAF?$AAI?$AA?$AA@ 004e475c     libucrtd:lcidtoname_downlevel.obj
 0002:0001f76c       ??_C@_1M@CAFJMKOF@?$AAa?$AAr?$AA?9?$AAY?$AAE?$AA?$AA@ 004e476c     libucrtd:lcidtoname_downlevel.obj
 0002:0001f77c       ??_C@_1M@CBFHIJLI@?$AAe?$AAn?$AA?9?$AAC?$AAB?$AA?$AA@ 004e477c     libucrtd:lcidtoname_downlevel.obj
 0002:0001f78c       ??_C@_1M@BGNFLDN@?$AAe?$AAs?$AA?9?$AAC?$AAO?$AA?$AA@ 004e478c     libucrtd:lcidtoname_downlevel.obj
 0002:0001f79c       ??_C@_1O@JMPHMAMC@?$AAs?$AAm?$AAn?$AA?9?$AAF?$AAI?$AA?$AA@ 004e479c     libucrtd:lcidtoname_downlevel.obj
 0002:0001f7ac       ??_C@_1M@JLANABKE@?$AAa?$AAr?$AA?9?$AAS?$AAY?$AA?$AA@ 004e47ac     libucrtd:lcidtoname_downlevel.obj
 0002:0001f7bc       ??_C@_1M@HPKGCFGN@?$AAe?$AAn?$AA?9?$AAB?$AAZ?$AA?$AA@ 004e47bc     libucrtd:lcidtoname_downlevel.obj
 0002:0001f7cc       ??_C@_1M@OLJCMLGM@?$AAe?$AAs?$AA?9?$AAP?$AAE?$AA?$AA@ 004e47cc     libucrtd:lcidtoname_downlevel.obj
 0002:0001f7dc       ??_C@_1M@MKKGFKLE@?$AAa?$AAr?$AA?9?$AAJ?$AAO?$AA?$AA@ 004e47dc     libucrtd:lcidtoname_downlevel.obj
 0002:0001f7ec       ??_C@_1M@EKPGLDNI@?$AAe?$AAn?$AA?9?$AAT?$AAT?$AA?$AA@ 004e47ec     libucrtd:lcidtoname_downlevel.obj
 0002:0001f7fc       ??_C@_1M@OONGHFHE@?$AAe?$AAs?$AA?9?$AAA?$AAR?$AA?$AA@ 004e47fc     libucrtd:lcidtoname_downlevel.obj
 0002:0001f80c       ??_C@_1M@OOJFGBHE@?$AAa?$AAr?$AA?9?$AAL?$AAB?$AA?$AA@ 004e480c     libucrtd:lcidtoname_downlevel.obj
 0002:0001f81c       ??_C@_1M@GCEJHNEG@?$AAe?$AAn?$AA?9?$AAZ?$AAW?$AA?$AA@ 004e481c     libucrtd:lcidtoname_downlevel.obj
 0002:0001f82c       ??_C@_1M@JNOCAHJI@?$AAe?$AAs?$AA?9?$AAE?$AAC?$AA?$AA@ 004e482c     libucrtd:lcidtoname_downlevel.obj
 0002:0001f83c       ??_C@_1M@JEFHPGGB@?$AAa?$AAr?$AA?9?$AAK?$AAW?$AA?$AA@ 004e483c     libucrtd:lcidtoname_downlevel.obj
 0002:0001f84c       ??_C@_1M@MLKIBJOJ@?$AAe?$AAn?$AA?9?$AAP?$AAH?$AA?$AA@ 004e484c     libucrtd:lcidtoname_downlevel.obj
 0002:0001f85c       ??_C@_1M@BDNIPEND@?$AAe?$AAs?$AA?9?$AAC?$AAL?$AA?$AA@ 004e485c     libucrtd:lcidtoname_downlevel.obj
 0002:0001f86c       ??_C@_1M@MPNMEKBD@?$AAa?$AAr?$AA?9?$AAA?$AAE?$AA?$AA@ 004e486c     libucrtd:lcidtoname_downlevel.obj
 0002:0001f87c       ??_C@_1M@KBJALCPI@?$AAe?$AAs?$AA?9?$AAU?$AAY?$AA?$AA@ 004e487c     libucrtd:lcidtoname_downlevel.obj
 0002:0001f88c       ??_C@_1M@LLCCOAGA@?$AAa?$AAr?$AA?9?$AAB?$AAH?$AA?$AA@ 004e488c     libucrtd:lcidtoname_downlevel.obj
 0002:0001f89c       ??_C@_1M@PBFNCDEL@?$AAe?$AAs?$AA?9?$AAP?$AAY?$AA?$AA@ 004e489c     libucrtd:lcidtoname_downlevel.obj
 0002:0001f8ac       ??_C@_1M@EDGINPNP@?$AAa?$AAr?$AA?9?$AAQ?$AAA?$AA?$AA@ 004e48ac     libucrtd:lcidtoname_downlevel.obj
 0002:0001f8bc       ??_C@_1M@MKDBIIJI@?$AAe?$AAs?$AA?9?$AAB?$AAO?$AA?$AA@ 004e48bc     libucrtd:lcidtoname_downlevel.obj
 0002:0001f8cc       ??_C@_1M@CPKKEBLD@?$AAe?$AAs?$AA?9?$AAS?$AAV?$AA?$AA@ 004e48cc     libucrtd:lcidtoname_downlevel.obj
 0002:0001f8dc       ??_C@_1M@NDBGMMJL@?$AAe?$AAs?$AA?9?$AAH?$AAN?$AA?$AA@ 004e48dc     libucrtd:lcidtoname_downlevel.obj
 0002:0001f8ec       ??_C@_1M@JIJIBHDP@?$AAe?$AAs?$AA?9?$AAN?$AAI?$AA?$AA@ 004e48ec     libucrtd:lcidtoname_downlevel.obj
 0002:0001f8fc       ??_C@_1M@CGFMKEEK@?$AAe?$AAs?$AA?9?$AAP?$AAR?$AA?$AA@ 004e48fc     libucrtd:lcidtoname_downlevel.obj
 0002:0001f90c       ??_C@_1O@ICJHKIIK@?$AAz?$AAh?$AA?9?$AAC?$AAH?$AAT?$AA?$AA@ 004e490c     libucrtd:lcidtoname_downlevel.obj
 0002:0001f91c       ??_C@_15CLNEJCE@?$AAs?$AAr?$AA?$AA@ 004e491c     libucrtd:lcidtoname_downlevel.obj
 0002:000201b4       ??_C@_1M@KAHEKEIG@?$AAa?$AAf?$AA?9?$AAz?$AAa?$AA?$AA@ 004e51b4     libucrtd:lcidtoname_downlevel.obj
 0002:000201c4       ??_C@_1M@GIECOABL@?$AAa?$AAr?$AA?9?$AAa?$AAe?$AA?$AA@ 004e51c4     libucrtd:lcidtoname_downlevel.obj
 0002:000201d4       ??_C@_1M@BMLMEKGI@?$AAa?$AAr?$AA?9?$AAb?$AAh?$AA?$AA@ 004e51d4     libucrtd:lcidtoname_downlevel.obj
 0002:000201e4       ??_C@_1M@DAPFDGGB@?$AAa?$AAr?$AA?9?$AAd?$AAz?$AA?$AA@ 004e51e4     libucrtd:lcidtoname_downlevel.obj
 0002:000201f4       ??_C@_1M@FJNKGKIG@?$AAa?$AAr?$AA?9?$AAe?$AAg?$AA?$AA@ 004e51f4     libucrtd:lcidtoname_downlevel.obj
 0002:00020204       ??_C@_1M@FLGKKCLO@?$AAa?$AAr?$AA?9?$AAi?$AAq?$AA?$AA@ 004e5204     libucrtd:lcidtoname_downlevel.obj
 0002:00020214       ??_C@_1M@GNDIPALM@?$AAa?$AAr?$AA?9?$AAj?$AAo?$AA?$AA@ 004e5214     libucrtd:lcidtoname_downlevel.obj
 0002:00020224       ??_C@_1M@DDMJFMGJ@?$AAa?$AAr?$AA?9?$AAk?$AAw?$AA?$AA@ 004e5224     libucrtd:lcidtoname_downlevel.obj
 0002:00020234       ??_C@_1M@EJALMLHM@?$AAa?$AAr?$AA?9?$AAl?$AAb?$AA?$AA@ 004e5234     libucrtd:lcidtoname_downlevel.obj
 0002:00020244       ??_C@_1M@MOBDBLOC@?$AAa?$AAr?$AA?9?$AAl?$AAy?$AA?$AA@ 004e5244     libucrtd:lcidtoname_downlevel.obj
 0002:00020254       ??_C@_1M@JAOCLHDH@?$AAa?$AAr?$AA?9?$AAm?$AAa?$AA?$AA@ 004e5254     libucrtd:lcidtoname_downlevel.obj
 0002:00020264       ??_C@_1M@JHPMKJIE@?$AAa?$AAr?$AA?9?$AAo?$AAm?$AA?$AA@ 004e5264     libucrtd:lcidtoname_downlevel.obj
 0002:00020274       ??_C@_1M@OEPGHFNH@?$AAa?$AAr?$AA?9?$AAq?$AAa?$AA?$AA@ 004e5274     libucrtd:lcidtoname_downlevel.obj
 0002:00020284       ??_C@_1M@KJDONENM@?$AAa?$AAr?$AA?9?$AAs?$AAa?$AA?$AA@ 004e5284     libucrtd:lcidtoname_downlevel.obj
 0002:00020294       ??_C@_1M@DMJDKLKM@?$AAa?$AAr?$AA?9?$AAs?$AAy?$AA?$AA@ 004e5294     libucrtd:lcidtoname_downlevel.obj
 0002:000202a4       ??_C@_1M@OMFIPEDC@?$AAa?$AAr?$AA?9?$AAt?$AAn?$AA?$AA@ 004e52a4     libucrtd:lcidtoname_downlevel.obj
 0002:000202b4       ??_C@_1M@IHMHGAON@?$AAa?$AAr?$AA?9?$AAy?$AAe?$AA?$AA@ 004e52b4     libucrtd:lcidtoname_downlevel.obj
 0002:000202c4       ??_C@_1BG@KDCPGJGB@?$AAa?$AAz?$AA?9?$AAa?$AAz?$AA?9?$AAc?$AAy?$AAr?$AAl?$AA?$AA@ 004e52c4     libucrtd:lcidtoname_downlevel.obj
 0002:000202e0       ??_C@_1BG@IBCKDDOE@?$AAa?$AAz?$AA?9?$AAa?$AAz?$AA?9?$AAl?$AAa?$AAt?$AAn?$AA?$AA@ 004e52e0     libucrtd:lcidtoname_downlevel.obj
 0002:000202fc       ??_C@_1M@EGPFDCPD@?$AAb?$AAe?$AA?9?$AAb?$AAy?$AA?$AA@ 004e52fc     libucrtd:lcidtoname_downlevel.obj
 0002:0002030c       ??_C@_1M@PCMGMCGC@?$AAb?$AAg?$AA?9?$AAb?$AAg?$AA?$AA@ 004e530c     libucrtd:lcidtoname_downlevel.obj
 0002:0002031c       ??_C@_1M@BJBMFGOB@?$AAb?$AAn?$AA?9?$AAi?$AAn?$AA?$AA@ 004e531c     libucrtd:lcidtoname_downlevel.obj
 0002:0002032c       ??_C@_1BG@EAKMMACD@?$AAb?$AAs?$AA?9?$AAb?$AAa?$AA?9?$AAl?$AAa?$AAt?$AAn?$AA?$AA@ 004e532c     libucrtd:lcidtoname_downlevel.obj
 0002:00020348       ??_C@_1M@KGADAODK@?$AAc?$AAa?$AA?9?$AAe?$AAs?$AA?$AA@ 004e5348     libucrtd:lcidtoname_downlevel.obj
 0002:00020358       ??_C@_1M@COAJPDHI@?$AAc?$AAs?$AA?9?$AAc?$AAz?$AA?$AA@ 004e5358     libucrtd:lcidtoname_downlevel.obj
 0002:00020368       ??_C@_1M@DHBHFONH@?$AAc?$AAy?$AA?9?$AAg?$AAb?$AA?$AA@ 004e5368     libucrtd:lcidtoname_downlevel.obj
 0002:00020378       ??_C@_1M@IMGKELGA@?$AAd?$AAa?$AA?9?$AAd?$AAk?$AA?$AA@ 004e5378     libucrtd:lcidtoname_downlevel.obj
 0002:00020388       ??_C@_1M@NNDGDNGA@?$AAd?$AAe?$AA?9?$AAa?$AAt?$AA?$AA@ 004e5388     libucrtd:lcidtoname_downlevel.obj
 0002:00020398       ??_C@_1M@IKDBHEEM@?$AAd?$AAe?$AA?9?$AAc?$AAh?$AA?$AA@ 004e5398     libucrtd:lcidtoname_downlevel.obj
 0002:000203a8       ??_C@_1M@GFFOJMCJ@?$AAd?$AAe?$AA?9?$AAd?$AAe?$AA?$AA@ 004e53a8     libucrtd:lcidtoname_downlevel.obj
 0002:000203b8       ??_C@_1M@MDNLKBPM@?$AAd?$AAe?$AA?9?$AAl?$AAi?$AA?$AA@ 004e53b8     libucrtd:lcidtoname_downlevel.obj
 0002:000203c8       ??_C@_1M@NJBEEJNL@?$AAd?$AAe?$AA?9?$AAl?$AAu?$AA?$AA@ 004e53c8     libucrtd:lcidtoname_downlevel.obj
 0002:000203d8       ??_C@_1O@GNNELBAP@?$AAd?$AAi?$AAv?$AA?9?$AAm?$AAv?$AA?$AA@ 004e53d8     libucrtd:lcidtoname_downlevel.obj
 0002:000203e8       ??_C@_1M@EJLEOGAE@?$AAe?$AAl?$AA?9?$AAg?$AAr?$AA?$AA@ 004e53e8     libucrtd:lcidtoname_downlevel.obj
 0002:000203f8       ??_C@_1M@GMPONJN@?$AAe?$AAn?$AA?9?$AAa?$AAu?$AA?$AA@ 004e53f8     libucrtd:lcidtoname_downlevel.obj
 0002:00020408       ??_C@_1M@NIDIIPGF@?$AAe?$AAn?$AA?9?$AAb?$AAz?$AA?$AA@ 004e5408     libucrtd:lcidtoname_downlevel.obj
 0002:00020418       ??_C@_1M@JEHMIMFO@?$AAe?$AAn?$AA?9?$AAc?$AAa?$AA?$AA@ 004e5418     libucrtd:lcidtoname_downlevel.obj
 0002:00020428       ??_C@_1M@IGMJCDLA@?$AAe?$AAn?$AA?9?$AAc?$AAb?$AA?$AA@ 004e5428     libucrtd:lcidtoname_downlevel.obj
 0002:00020438       ??_C@_1M@BNFIGBKG@?$AAe?$AAn?$AA?9?$AAg?$AAb?$AA?$AA@ 004e5438     libucrtd:lcidtoname_downlevel.obj
 0002:00020448       ??_C@_1M@LKIFDIGP@?$AAe?$AAn?$AA?9?$AAi?$AAe?$AA?$AA@ 004e5448     libucrtd:lcidtoname_downlevel.obj
 0002:00020458       ??_C@_1M@PJKFGCCO@?$AAe?$AAn?$AA?9?$AAj?$AAm?$AA?$AA@ 004e5458     libucrtd:lcidtoname_downlevel.obj
 0002:00020468       ??_C@_1M@KPPKEPBO@?$AAe?$AAn?$AA?9?$AAn?$AAz?$AA?$AA@ 004e5468     libucrtd:lcidtoname_downlevel.obj
 0002:00020478       ??_C@_1M@GMDGLDOB@?$AAe?$AAn?$AA?9?$AAp?$AAh?$AA?$AA@ 004e5478     libucrtd:lcidtoname_downlevel.obj
 0002:00020488       ??_C@_1M@ONGIBJNA@?$AAe?$AAn?$AA?9?$AAt?$AAt?$AA?$AA@ 004e5488     libucrtd:lcidtoname_downlevel.obj
 0002:00020498       ??_C@_1M@LLODPCMM@?$AAe?$AAn?$AA?9?$AAu?$AAs?$AA?$AA@ 004e5498     libucrtd:lcidtoname_downlevel.obj
 0002:000204a8       ??_C@_1M@LAKFNPAN@?$AAe?$AAn?$AA?9?$AAz?$AAa?$AA?$AA@ 004e54a8     libucrtd:lcidtoname_downlevel.obj
 0002:000204b8       ??_C@_1M@MFNHNHEO@?$AAe?$AAn?$AA?9?$AAz?$AAw?$AA?$AA@ 004e54b8     libucrtd:lcidtoname_downlevel.obj
 0002:000204c8       ??_C@_1M@EJEINPHM@?$AAe?$AAs?$AA?9?$AAa?$AAr?$AA?$AA@ 004e54c8     libucrtd:lcidtoname_downlevel.obj
 0002:000204d8       ??_C@_1M@GNKPCCJA@?$AAe?$AAs?$AA?9?$AAb?$AAo?$AA?$AA@ 004e54d8     libucrtd:lcidtoname_downlevel.obj
 0002:000204e8       ??_C@_1M@LEEGFONL@?$AAe?$AAs?$AA?9?$AAc?$AAl?$AA?$AA@ 004e54e8     libucrtd:lcidtoname_downlevel.obj
 0002:000204f8       ??_C@_1M@KGPDPBDF@?$AAe?$AAs?$AA?9?$AAc?$AAo?$AA?$AA@ 004e54f8     libucrtd:lcidtoname_downlevel.obj
 0002:00020508       ??_C@_1M@EIAHOHH@?$AAe?$AAs?$AA?9?$AAc?$AAr?$AA?$AA@ 004e5508     libucrtd:lcidtoname_downlevel.obj
 0002:00020518       ??_C@_1M@LLPGMBIN@?$AAe?$AAs?$AA?9?$AAd?$AAo?$AA?$AA@ 004e5518     libucrtd:lcidtoname_downlevel.obj
 0002:00020528       ??_C@_1M@DKHMKNJA@?$AAe?$AAs?$AA?9?$AAe?$AAc?$AA?$AA@ 004e5528     libucrtd:lcidtoname_downlevel.obj
 0002:00020538       ??_C@_1M@GKGFPKAP@?$AAe?$AAs?$AA?9?$AAe?$AAs?$AA?$AA@ 004e5538     libucrtd:lcidtoname_downlevel.obj
 0002:00020548       ??_C@_1M@LKHKGDLN@?$AAe?$AAs?$AA?9?$AAg?$AAt?$AA?$AA@ 004e5548     libucrtd:lcidtoname_downlevel.obj
 0002:00020558       ??_C@_1M@HEIIGGJD@?$AAe?$AAs?$AA?9?$AAh?$AAn?$AA?$AA@ 004e5558     libucrtd:lcidtoname_downlevel.obj
 0002:00020568       ??_C@_1M@FBDHPPGD@?$AAe?$AAs?$AA?9?$AAm?$AAx?$AA?$AA@ 004e5568     libucrtd:lcidtoname_downlevel.obj
 0002:00020578       ??_C@_1M@DPAGLNDH@?$AAe?$AAs?$AA?9?$AAn?$AAi?$AA?$AA@ 004e5578     libucrtd:lcidtoname_downlevel.obj
 0002:00020588       ??_C@_1M@MDGOPGDD@?$AAe?$AAs?$AA?9?$AAp?$AAa?$AA?$AA@ 004e5588     libucrtd:lcidtoname_downlevel.obj
 0002:00020598       ??_C@_1M@EMAMGBGE@?$AAe?$AAs?$AA?9?$AAp?$AAe?$AA?$AA@ 004e5598     libucrtd:lcidtoname_downlevel.obj
 0002:000205a8       ??_C@_1M@IBMCAOEC@?$AAe?$AAs?$AA?9?$AAp?$AAr?$AA?$AA@ 004e55a8     libucrtd:lcidtoname_downlevel.obj
 0002:000205b8       ??_C@_1M@FGMDIJED@?$AAe?$AAs?$AA?9?$AAp?$AAy?$AA?$AA@ 004e55b8     libucrtd:lcidtoname_downlevel.obj
 0002:000205c8       ??_C@_1M@IIDEOLLL@?$AAe?$AAs?$AA?9?$AAs?$AAv?$AA?$AA@ 004e55c8     libucrtd:lcidtoname_downlevel.obj
 0002:000205d8       ??_C@_1M@GAOBIPA@?$AAe?$AAs?$AA?9?$AAu?$AAy?$AA?$AA@ 004e55d8     libucrtd:lcidtoname_downlevel.obj
 0002:000205e8       ??_C@_1M@JKFFICHJ@?$AAe?$AAs?$AA?9?$AAv?$AAe?$AA?$AA@ 004e55e8     libucrtd:lcidtoname_downlevel.obj
 0002:000205f8       ??_C@_1M@PNMLOJDF@?$AAe?$AAt?$AA?9?$AAe?$AAe?$AA?$AA@ 004e55f8     libucrtd:lcidtoname_downlevel.obj
 0002:00020608       ??_C@_1M@GHHLIKEI@?$AAe?$AAu?$AA?9?$AAe?$AAs?$AA?$AA@ 004e5608     libucrtd:lcidtoname_downlevel.obj
 0002:00020618       ??_C@_1M@PBNONODE@?$AAf?$AAa?$AA?9?$AAi?$AAr?$AA?$AA@ 004e5618     libucrtd:lcidtoname_downlevel.obj
 0002:00020628       ??_C@_1M@JEEHPMIL@?$AAf?$AAi?$AA?9?$AAf?$AAi?$AA?$AA@ 004e5628     libucrtd:lcidtoname_downlevel.obj
 0002:00020638       ??_C@_1M@LMDCNDBA@?$AAf?$AAo?$AA?9?$AAf?$AAo?$AA?$AA@ 004e5638     libucrtd:lcidtoname_downlevel.obj
 0002:00020648       ??_C@_1M@JKEOHLDK@?$AAf?$AAr?$AA?9?$AAb?$AAe?$AA?$AA@ 004e5648     libucrtd:lcidtoname_downlevel.obj
 0002:00020658       ??_C@_1M@NOHADPMI@?$AAf?$AAr?$AA?9?$AAc?$AAa?$AA?$AA@ 004e5658     libucrtd:lcidtoname_downlevel.obj
 0002:00020668       ??_C@_1M@KDHIHAEC@?$AAf?$AAr?$AA?9?$AAc?$AAh?$AA?$AA@ 004e5668     libucrtd:lcidtoname_downlevel.obj
 0002:00020678       ??_C@_1M@MMBBFGAK@?$AAf?$AAr?$AA?9?$AAf?$AAr?$AA?$AA@ 004e5678     libucrtd:lcidtoname_downlevel.obj
 0002:00020688       ??_C@_1M@PAFNENNF@?$AAf?$AAr?$AA?9?$AAl?$AAu?$AA?$AA@ 004e5688     libucrtd:lcidtoname_downlevel.obj
 0002:00020698       ??_C@_1M@EOHDJGDD@?$AAf?$AAr?$AA?9?$AAm?$AAc?$AA?$AA@ 004e5698     libucrtd:lcidtoname_downlevel.obj
 0002:000206a8       ??_C@_1M@FAPLLOPF@?$AAg?$AAl?$AA?9?$AAe?$AAs?$AA?$AA@ 004e56a8     libucrtd:lcidtoname_downlevel.obj
 0002:000206b8       ??_C@_1M@FOPBFLOO@?$AAg?$AAu?$AA?9?$AAi?$AAn?$AA?$AA@ 004e56b8     libucrtd:lcidtoname_downlevel.obj
 0002:000206c8       ??_C@_1M@KBMCINPM@?$AAh?$AAe?$AA?9?$AAi?$AAl?$AA?$AA@ 004e56c8     libucrtd:lcidtoname_downlevel.obj
 0002:000206d8       ??_C@_1M@BBPHKFPJ@?$AAh?$AAi?$AA?9?$AAi?$AAn?$AA?$AA@ 004e56d8     libucrtd:lcidtoname_downlevel.obj
 0002:000206e8       ??_C@_1M@PMBNDPHD@?$AAh?$AAr?$AA?9?$AAb?$AAa?$AA?$AA@ 004e56e8     libucrtd:lcidtoname_downlevel.obj
 0002:000206f8       ??_C@_1M@BPCKOEGE@?$AAh?$AAr?$AA?9?$AAh?$AAr?$AA?$AA@ 004e56f8     libucrtd:lcidtoname_downlevel.obj
 0002:00020708       ??_C@_1M@GACBMHKE@?$AAh?$AAu?$AA?9?$AAh?$AAu?$AA?$AA@ 004e5708     libucrtd:lcidtoname_downlevel.obj
 0002:00020718       ??_C@_1M@MILPAJJC@?$AAh?$AAy?$AA?9?$AAa?$AAm?$AA?$AA@ 004e5718     libucrtd:lcidtoname_downlevel.obj
 0002:00020728       ??_C@_1M@BABBICEC@?$AAi?$AAd?$AA?9?$AAi?$AAd?$AA?$AA@ 004e5728     libucrtd:lcidtoname_downlevel.obj
 0002:00020738       ??_C@_1M@BIKNHHPF@?$AAi?$AAs?$AA?9?$AAi?$AAs?$AA?$AA@ 004e5738     libucrtd:lcidtoname_downlevel.obj
 0002:00020748       ??_C@_1M@NMPCJPHE@?$AAi?$AAt?$AA?9?$AAc?$AAh?$AA?$AA@ 004e5748     libucrtd:lcidtoname_downlevel.obj
 0002:00020758       ??_C@_1M@GHKGFEDF@?$AAi?$AAt?$AA?9?$AAi?$AAt?$AA?$AA@ 004e5758     libucrtd:lcidtoname_downlevel.obj
 0002:00020768       ??_C@_1M@NIEJCJJA@?$AAj?$AAa?$AA?9?$AAj?$AAp?$AA?$AA@ 004e5768     libucrtd:lcidtoname_downlevel.obj
 0002:00020778       ??_C@_1M@JILFNBIM@?$AAk?$AAa?$AA?9?$AAg?$AAe?$AA?$AA@ 004e5778     libucrtd:lcidtoname_downlevel.obj
 0002:00020788       ??_C@_1M@PACPMGPH@?$AAk?$AAk?$AA?9?$AAk?$AAz?$AA?$AA@ 004e5788     libucrtd:lcidtoname_downlevel.obj
 0002:00020798       ??_C@_1M@IELFGMHA@?$AAk?$AAn?$AA?9?$AAi?$AAn?$AA?$AA@ 004e5798     libucrtd:lcidtoname_downlevel.obj
 0002:000207a8       ??_C@_1O@IBBJHCH@?$AAk?$AAo?$AAk?$AA?9?$AAi?$AAn?$AA?$AA@ 004e57a8     libucrtd:lcidtoname_downlevel.obj
 0002:000207b8       ??_C@_1M@DMHAEOGC@?$AAk?$AAo?$AA?9?$AAk?$AAr?$AA?$AA@ 004e57b8     libucrtd:lcidtoname_downlevel.obj
 0002:000207c8       ??_C@_1M@HBAHBIGA@?$AAk?$AAy?$AA?9?$AAk?$AAg?$AA?$AA@ 004e57c8     libucrtd:lcidtoname_downlevel.obj
 0002:000207d8       ??_C@_1M@KPMILCJG@?$AAl?$AAt?$AA?9?$AAl?$AAt?$AA?$AA@ 004e57d8     libucrtd:lcidtoname_downlevel.obj
 0002:000207e8       ??_C@_1M@BDEKKCA@?$AAl?$AAv?$AA?9?$AAl?$AAv?$AA?$AA@ 004e57e8     libucrtd:lcidtoname_downlevel.obj
 0002:000207f8       ??_C@_1M@ELCKCCJJ@?$AAm?$AAi?$AA?9?$AAn?$AAz?$AA?$AA@ 004e57f8     libucrtd:lcidtoname_downlevel.obj
 0002:00020808       ??_C@_1M@CBOOLAPA@?$AAm?$AAk?$AA?9?$AAm?$AAk?$AA?$AA@ 004e5808     libucrtd:lcidtoname_downlevel.obj
 0002:00020818       ??_C@_1M@GPHNBJKN@?$AAm?$AAl?$AA?9?$AAi?$AAn?$AA?$AA@ 004e5818     libucrtd:lcidtoname_downlevel.obj
 0002:00020828       ??_C@_1M@PABJILIG@?$AAm?$AAn?$AA?9?$AAm?$AAn?$AA?$AA@ 004e5828     libucrtd:lcidtoname_downlevel.obj
 0002:00020838       ??_C@_1M@FGBKKIPG@?$AAm?$AAr?$AA?9?$AAi?$AAn?$AA?$AA@ 004e5838     libucrtd:lcidtoname_downlevel.obj
 0002:00020848       ??_C@_1M@NDBPDDAL@?$AAm?$AAs?$AA?9?$AAb?$AAn?$AA?$AA@ 004e5848     libucrtd:lcidtoname_downlevel.obj
 0002:00020858       ??_C@_1M@OPIHOOPI@?$AAm?$AAs?$AA?9?$AAm?$AAy?$AA?$AA@ 004e5858     libucrtd:lcidtoname_downlevel.obj
 0002:00020868       ??_C@_1M@PPDBCNFM@?$AAm?$AAt?$AA?9?$AAm?$AAt?$AA?$AA@ 004e5868     libucrtd:lcidtoname_downlevel.obj
 0002:00020878       ??_C@_1M@KDJDKMDD@?$AAn?$AAb?$AA?9?$AAn?$AAo?$AA?$AA@ 004e5878     libucrtd:lcidtoname_downlevel.obj
 0002:00020888       ??_C@_1M@KFCFLMJP@?$AAn?$AAl?$AA?9?$AAb?$AAe?$AA?$AA@ 004e5888     libucrtd:lcidtoname_downlevel.obj
 0002:00020898       ??_C@_1M@KPOPDDGO@?$AAn?$AAl?$AA?9?$AAn?$AAl?$AA?$AA@ 004e5898     libucrtd:lcidtoname_downlevel.obj
 0002:000208a8       ??_C@_1M@LJKPEMLN@?$AAn?$AAn?$AA?9?$AAn?$AAo?$AA?$AA@ 004e58a8     libucrtd:lcidtoname_downlevel.obj
 0002:000208b8       ??_C@_1M@BDGHHBFL@?$AAn?$AAs?$AA?9?$AAz?$AAa?$AA?$AA@ 004e58b8     libucrtd:lcidtoname_downlevel.obj
 0002:000208c8       ??_C@_1M@IDEHOAP@?$AAp?$AAa?$AA?9?$AAi?$AAn?$AA?$AA@ 004e58c8     libucrtd:lcidtoname_downlevel.obj
 0002:000208d8       ??_C@_1M@HDBKGOGH@?$AAp?$AAl?$AA?9?$AAp?$AAl?$AA?$AA@ 004e58d8     libucrtd:lcidtoname_downlevel.obj
 0002:000208e8       ??_C@_1M@LJLLCMEH@?$AAp?$AAt?$AA?9?$AAb?$AAr?$AA?$AA@ 004e58e8     libucrtd:lcidtoname_downlevel.obj
 0002:000208f8       ??_C@_1M@NCMONAAL@?$AAp?$AAt?$AA?9?$AAp?$AAt?$AA?$AA@ 004e58f8     libucrtd:lcidtoname_downlevel.obj
 0002:00020908       ??_C@_1O@EAKMAJDN@?$AAq?$AAu?$AAz?$AA?9?$AAb?$AAo?$AA?$AA@ 004e5908     libucrtd:lcidtoname_downlevel.obj
 0002:00020918       ??_C@_1O@BHHPIGDN@?$AAq?$AAu?$AAz?$AA?9?$AAe?$AAc?$AA?$AA@ 004e5918     libucrtd:lcidtoname_downlevel.obj
 0002:00020928       ??_C@_1O@GBAPEKMJ@?$AAq?$AAu?$AAz?$AA?9?$AAp?$AAe?$AA?$AA@ 004e5928     libucrtd:lcidtoname_downlevel.obj
 0002:00020938       ??_C@_1M@CLGLEFBO@?$AAr?$AAo?$AA?9?$AAr?$AAo?$AA?$AA@ 004e5938     libucrtd:lcidtoname_downlevel.obj
 0002:00020948       ??_C@_1M@CEEDODME@?$AAr?$AAu?$AA?9?$AAr?$AAu?$AA?$AA@ 004e5948     libucrtd:lcidtoname_downlevel.obj
 0002:00020958       ??_C@_1M@HPKKKMPP@?$AAs?$AAa?$AA?9?$AAi?$AAn?$AA?$AA@ 004e5958     libucrtd:lcidtoname_downlevel.obj
 0002:00020968       ??_C@_1M@BKMAIGOJ@?$AAs?$AAe?$AA?9?$AAf?$AAi?$AA?$AA@ 004e5968     libucrtd:lcidtoname_downlevel.obj
 0002:00020978       ??_C@_1M@NDPIFLFI@?$AAs?$AAe?$AA?9?$AAn?$AAo?$AA?$AA@ 004e5978     libucrtd:lcidtoname_downlevel.obj
 0002:00020988       ??_C@_1M@DANKKHJ@?$AAs?$AAe?$AA?9?$AAs?$AAe?$AA?$AA@ 004e5988     libucrtd:lcidtoname_downlevel.obj
 0002:00020998       ??_C@_1M@PNBLONPJ@?$AAs?$AAk?$AA?9?$AAs?$AAk?$AA?$AA@ 004e5998     libucrtd:lcidtoname_downlevel.obj
 0002:000209a8       ??_C@_1M@LFMODOAL@?$AAs?$AAl?$AA?9?$AAs?$AAi?$AA?$AA@ 004e59a8     libucrtd:lcidtoname_downlevel.obj
 0002:000209b8       ??_C@_1O@DFKOMPG@?$AAs?$AAm?$AAa?$AA?9?$AAn?$AAo?$AA?$AA@ 004e59b8     libucrtd:lcidtoname_downlevel.obj
 0002:000209c8       ??_C@_1O@NDKPBNNH@?$AAs?$AAm?$AAa?$AA?9?$AAs?$AAe?$AA?$AA@ 004e59c8     libucrtd:lcidtoname_downlevel.obj
 0002:000209d8       ??_C@_1O@PLLKBHAB@?$AAs?$AAm?$AAj?$AA?9?$AAn?$AAo?$AA?$AA@ 004e59d8     libucrtd:lcidtoname_downlevel.obj
 0002:000209e8       ??_C@_1O@CLEPOGCA@?$AAs?$AAm?$AAj?$AA?9?$AAs?$AAe?$AA?$AA@ 004e59e8     libucrtd:lcidtoname_downlevel.obj
 0002:000209f8       ??_C@_1O@DLGJGKMK@?$AAs?$AAm?$AAn?$AA?9?$AAf?$AAi?$AA?$AA@ 004e59f8     libucrtd:lcidtoname_downlevel.obj
 0002:00020a08       ??_C@_1O@OJDJGAJC@?$AAs?$AAm?$AAs?$AA?9?$AAf?$AAi?$AA?$AA@ 004e5a08     libucrtd:lcidtoname_downlevel.obj
 0002:00020a18       ??_C@_1M@BOFOGHPB@?$AAs?$AAq?$AA?9?$AAa?$AAl?$AA?$AA@ 004e5a18     libucrtd:lcidtoname_downlevel.obj
 0002:00020a28       ??_C@_1BG@LJBBIPGB@?$AAs?$AAr?$AA?9?$AAb?$AAa?$AA?9?$AAc?$AAy?$AAr?$AAl?$AA?$AA@ 004e5a28     libucrtd:lcidtoname_downlevel.obj
 0002:00020a44       ??_C@_1BG@JLBENFOE@?$AAs?$AAr?$AA?9?$AAb?$AAa?$AA?9?$AAl?$AAa?$AAt?$AAn?$AA?$AA@ 004e5a44     libucrtd:lcidtoname_downlevel.obj
 0002:00020a60       ??_C@_1BG@KODPNHE@?$AAs?$AAr?$AA?9?$AAs?$AAp?$AA?9?$AAc?$AAy?$AAr?$AAl?$AA?$AA@ 004e5a60     libucrtd:lcidtoname_downlevel.obj
 0002:00020a7c       ??_C@_1BG@CIOGKHPB@?$AAs?$AAr?$AA?9?$AAs?$AAp?$AA?9?$AAl?$AAa?$AAt?$AAn?$AA?$AA@ 004e5a7c     libucrtd:lcidtoname_downlevel.obj
 0002:00020a98       ??_C@_1M@NGFJLMAC@?$AAs?$AAv?$AA?9?$AAf?$AAi?$AA?$AA@ 004e5a98     libucrtd:lcidtoname_downlevel.obj
 0002:00020aa8       ??_C@_1M@MPJEJAJC@?$AAs?$AAv?$AA?9?$AAs?$AAe?$AA?$AA@ 004e5aa8     libucrtd:lcidtoname_downlevel.obj
 0002:00020ab8       ??_C@_1M@MPNDHLFK@?$AAs?$AAw?$AA?9?$AAk?$AAe?$AA?$AA@ 004e5ab8     libucrtd:lcidtoname_downlevel.obj
 0002:00020ac8       ??_C@_1O@KOHBJJI@?$AAs?$AAy?$AAr?$AA?9?$AAs?$AAy?$AA?$AA@ 004e5ac8     libucrtd:lcidtoname_downlevel.obj
 0002:00020ad8       ??_C@_1M@LDCEFHA@?$AAt?$AAa?$AA?9?$AAi?$AAn?$AA?$AA@ 004e5ad8     libucrtd:lcidtoname_downlevel.obj
 0002:00020ae8       ??_C@_1M@CNJOFAK@?$AAt?$AAe?$AA?9?$AAi?$AAn?$AA?$AA@ 004e5ae8     libucrtd:lcidtoname_downlevel.obj
 0002:00020af8       ??_C@_1M@GNAECACD@?$AAt?$AAh?$AA?9?$AAt?$AAh?$AA?$AA@ 004e5af8     libucrtd:lcidtoname_downlevel.obj
 0002:00020b08       ??_C@_1M@CHBIHOJO@?$AAt?$AAn?$AA?9?$AAz?$AAa?$AA?$AA@ 004e5b08     libucrtd:lcidtoname_downlevel.obj
 0002:00020b18       ??_C@_1M@GCCMIGPJ@?$AAt?$AAr?$AA?9?$AAt?$AAr?$AA?$AA@ 004e5b18     libucrtd:lcidtoname_downlevel.obj
 0002:00020b28       ??_C@_1M@CELMCNBK@?$AAt?$AAt?$AA?9?$AAr?$AAu?$AA?$AA@ 004e5b28     libucrtd:lcidtoname_downlevel.obj
 0002:00020b38       ??_C@_1M@KLMCELGA@?$AAu?$AAk?$AA?9?$AAu?$AAa?$AA?$AA@ 004e5b38     libucrtd:lcidtoname_downlevel.obj
 0002:00020b48       ??_C@_1M@EPAJJAJF@?$AAu?$AAr?$AA?9?$AAp?$AAk?$AA?$AA@ 004e5b48     libucrtd:lcidtoname_downlevel.obj
 0002:00020b58       ??_C@_1BG@GEGPMCDJ@?$AAu?$AAz?$AA?9?$AAu?$AAz?$AA?9?$AAc?$AAy?$AAr?$AAl?$AA?$AA@ 004e5b58     libucrtd:lcidtoname_downlevel.obj
 0002:00020b74       ??_C@_1BG@EGGKJILM@?$AAu?$AAz?$AA?9?$AAu?$AAz?$AA?9?$AAl?$AAa?$AAt?$AAn?$AA?$AA@ 004e5b74     libucrtd:lcidtoname_downlevel.obj
 0002:00020b90       ??_C@_1M@GFOCLFF@?$AAv?$AAi?$AA?9?$AAv?$AAn?$AA?$AA@ 004e5b90     libucrtd:lcidtoname_downlevel.obj
 0002:00020ba0       ??_C@_1M@CPAMEDFI@?$AAx?$AAh?$AA?9?$AAz?$AAa?$AA?$AA@ 004e5ba0     libucrtd:lcidtoname_downlevel.obj
 0002:00020bb0       ??_C@_1O@EBKIFIGN@?$AAz?$AAh?$AA?9?$AAc?$AAh?$AAs?$AA?$AA@ 004e5bb0     libucrtd:lcidtoname_downlevel.obj
 0002:00020bc0       ??_C@_1O@NMHPGANE@?$AAz?$AAh?$AA?9?$AAc?$AAh?$AAt?$AA?$AA@ 004e5bc0     libucrtd:lcidtoname_downlevel.obj
 0002:00020bd0       ??_C@_1M@LPINJOMC@?$AAz?$AAh?$AA?9?$AAc?$AAn?$AA?$AA@ 004e5bd0     libucrtd:lcidtoname_downlevel.obj
 0002:00020be0       ??_C@_1M@OCJEJODD@?$AAz?$AAh?$AA?9?$AAh?$AAk?$AA?$AA@ 004e5be0     libucrtd:lcidtoname_downlevel.obj
 0002:00020bf0       ??_C@_1M@DNDLJINH@?$AAz?$AAh?$AA?9?$AAm?$AAo?$AA?$AA@ 004e5bf0     libucrtd:lcidtoname_downlevel.obj
 0002:00020c00       ??_C@_1M@MBFDNDND@?$AAz?$AAh?$AA?9?$AAs?$AAg?$AA?$AA@ 004e5c00     libucrtd:lcidtoname_downlevel.obj
 0002:00020c10       ??_C@_1M@IMEPLEPE@?$AAz?$AAh?$AA?9?$AAt?$AAw?$AA?$AA@ 004e5c10     libucrtd:lcidtoname_downlevel.obj
 0002:00020c20       ??_C@_1M@BBGHNHJP@?$AAz?$AAu?$AA?9?$AAz?$AAa?$AA?$AA@ 004e5c20     libucrtd:lcidtoname_downlevel.obj
 0002:00020c30       ??_C@_1HO@KHHMOCBO@?$AAm?$AAi?$AAn?$AAk?$AAe?$AAr?$AAn?$AAe?$AAl?$AA?2?$AAc?$AAr?$AAt?$AAs?$AA?2?$AAu?$AAc?$AAr?$AAt?$AA?2?$AAs?$AAr?$AAc?$AA?2?$AAa?$AAp?$AAp?$AAc?$AAr?$AAt?$AA?2?$AAl@ 004e5c30     libucrtd:lcidtoname_downlevel.obj
 0002:00020cc8       ??_C@_1EC@MDFDCHIL@?$AA_?$AA_?$AAa?$AAc?$AAr?$AAt?$AA_?$AAD?$AAo?$AAw?$AAn?$AAl?$AAe?$AAv?$AAe?$AAl?$AAL?$AAC?$AAI?$AAD?$AAT?$AAo?$AAL?$AAo?$AAc?$AAa?$AAl?$AAe?$AAN?$AAa?$AAm?$AAe@ 004e5cc8     libucrtd:lcidtoname_downlevel.obj
 0002:00020d18       ??_C@_1FO@LFACCMJH@?$AAw?$AAc?$AAs?$AAc?$AAp?$AAy?$AA_?$AAs?$AA?$CI?$AAo?$AAu?$AAt?$AAL?$AAo?$AAc?$AAa?$AAl?$AAe?$AAN?$AAa?$AAm?$AAe?$AA?0?$AA?5?$AAc?$AAc?$AAh?$AAL?$AAo?$AAc?$AAa?$AAl@ 004e5d18     libucrtd:lcidtoname_downlevel.obj
 0002:00020d88       ??_C@_1GA@JPJEOEOF@?$AAm?$AAi?$AAn?$AAk?$AAe?$AAr?$AAn?$AAe?$AAl?$AA?2?$AAc?$AAr?$AAt?$AAs?$AA?2?$AAu?$AAc?$AAr?$AAt?$AA?2?$AAs?$AAr?$AAc?$AA?2?$AAa?$AAp?$AAp?$AAc?$AAr?$AAt?$AA?2?$AAs@ 004e5d88     libucrtd:ungetc.obj
 0002:00020dfc       ??_C@_1O@JDPLECOK@?$AAu?$AAn?$AAg?$AAe?$AAt?$AAc?$AA?$AA@ 004e5dfc     libucrtd:ungetc.obj
 0002:00020e0c       ??_C@_1BO@OLMLKKEA@?$AA_?$AAu?$AAn?$AAg?$AAe?$AAt?$AAc?$AA_?$AAn?$AAo?$AAl?$AAo?$AAc?$AAk?$AA?$AA@ 004e5e0c     libucrtd:ungetc.obj
 0002:00020e30       ??_C@_1GC@MGNADOPH@?$AAm?$AAi?$AAn?$AAk?$AAe?$AAr?$AAn?$AAe?$AAl?$AA?2?$AAc?$AAr?$AAt?$AAs?$AA?2?$AAu?$AAc?$AAr?$AAt?$AA?2?$AAs?$AAr?$AAc?$AA?2?$AAa?$AAp?$AAp?$AAc?$AAr?$AAt?$AA?2?$AAs@ 004e5e30     libucrtd:_filbuf.obj
 0002:00020ea8       ??_C@_1DM@MPDNIFLF@?$AAc?$AAo?$AAm?$AAm?$AAo?$AAn?$AA_?$AAr?$AAe?$AAf?$AAi?$AAl?$AAl?$AA_?$AAa?$AAn?$AAd?$AA_?$AAr?$AAe?$AAa?$AAd?$AA_?$AAn?$AAo?$AAl?$AAo?$AAc?$AAk?$AA?$AA@ 004e5ea8     libucrtd:_filbuf.obj
 0002:00020ef0       ??_C@_1FO@IPDGALOE@?$AAm?$AAi?$AAn?$AAk?$AAe?$AAr?$AAn?$AAe?$AAl?$AA?2?$AAc?$AAr?$AAt?$AAs?$AA?2?$AAu?$AAc?$AAr?$AAt?$AA?2?$AAs?$AAr?$AAc?$AA?2?$AAa?$AAp?$AAp?$AAc?$AAr?$AAt?$AA?2?$AAl@ 004e5ef0     libucrtd:close.obj
 0002:00020f60       ??_C@_1O@EDEJGJBM@?$AA_?$AAc?$AAl?$AAo?$AAs?$AAe?$AA?$AA@ 004e5f60     libucrtd:close.obj
 0002:00020f70       ??_C@_0DA@OGKFKCBE@minkernel?2crts?2ucrt?2src?2appcrt?2s@ 004e5f70     libucrtd:stream.obj
 0002:00020fac       ??_C@_1CC@IBIHLDLG@?$AAf?$AAi?$AAr?$AAs?$AAt?$AA?5?$AA?$CB?$AA?$DN?$AA?5?$AAn?$AAu?$AAl?$AAl?$AAp?$AAt?$AAr?$AA?$AA@ 004e5fac     libucrtd:wcsnicmp.obj
 0002:00020fd8       ??_C@_1GG@CLJGPGNE@?$AAm?$AAi?$AAn?$AAk?$AAe?$AAr?$AAn?$AAe?$AAl?$AA?2?$AAc?$AAr?$AAt?$AAs?$AA?2?$AAu?$AAc?$AAr?$AAt?$AA?2?$AAs?$AAr?$AAc?$AA?2?$AAa?$AAp?$AAp?$AAc?$AAr?$AAt?$AA?2?$AAs@ 004e5fd8     libucrtd:wcsnicmp.obj
 0002:00021054       ??_C@_1BI@KLMFNDBC@?$AA_?$AAw?$AAc?$AAs?$AAn?$AAi?$AAc?$AAm?$AAp?$AA_?$AAl?$AA?$AA@ 004e6054     libucrtd:wcsnicmp.obj
 0002:00021070       ??_C@_1CA@GLFIDPNF@?$AAl?$AAa?$AAs?$AAt?$AA?5?$AA?$CB?$AA?$DN?$AA?5?$AAn?$AAu?$AAl?$AAl?$AAp?$AAt?$AAr?$AA?$AA@ 004e6070     libucrtd:wcsnicmp.obj
 0002:00021098       ??_C@_1BE@JKOKKFEL@?$AA_?$AAw?$AAc?$AAs?$AAn?$AAi?$AAc?$AAm?$AAp?$AA?$AA@ 004e6098     libucrtd:wcsnicmp.obj
 0002:000210b0       ??_C@_1DC@MDAAFACM@?$AA?$CI?$AA?$CC?$AAI?$AAn?$AAv?$AAa?$AAl?$AAi?$AAd?$AA?5?$AAo?$AAp?$AAe?$AAn?$AA?5?$AAf?$AAl?$AAa?$AAg?$AA?$CC?$AA?0?$AA?5?$AA0?$AA?$CJ?$AA?$AA@ 004e60b0     libucrtd:open.obj
 0002:000210f0       ??_C@_1FM@EFELGMIP@?$AAm?$AAi?$AAn?$AAk?$AAe?$AAr?$AAn?$AAe?$AAl?$AA?2?$AAc?$AAr?$AAt?$AAs?$AA?2?$AAu?$AAc?$AAr?$AAt?$AA?2?$AAs?$AAr?$AAc?$AA?2?$AAa?$AAp?$AAp?$AAc?$AAr?$AAt?$AA?2?$AAl@ 004e60f0     libucrtd:open.obj
 0002:00021160       ??_C@_1CI@CBNKIJOA@?$AAd?$AAe?$AAc?$AAo?$AAd?$AAe?$AA_?$AAa?$AAc?$AAc?$AAe?$AAs?$AAs?$AA_?$AAf?$AAl?$AAa?$AAg?$AAs?$AA?$AA@ 004e6160     libucrtd:open.obj
 0002:00021190       ??_C@_1DC@MNGJFJEL@?$AAd?$AAe?$AAc?$AAo?$AAd?$AAe?$AA_?$AAo?$AAp?$AAe?$AAn?$AA_?$AAc?$AAr?$AAe?$AAa?$AAt?$AAe?$AA_?$AAf?$AAl?$AAa?$AAg?$AAs?$AA?$AA@ 004e6190     libucrtd:open.obj
 0002:000211cc       ??_C@_1DI@OAOBKLOM@?$AA?$CI?$AA?$CC?$AAI?$AAn?$AAv?$AAa?$AAl?$AAi?$AAd?$AA?5?$AAs?$AAh?$AAa?$AAr?$AAi?$AAn?$AAg?$AA?5?$AAf?$AAl?$AAa?$AAg?$AA?$CC?$AA?0?$AA?5?$AA0?$AA?$CJ?$AA?$AA@ 004e61cc     libucrtd:open.obj
 0002:00021210       ??_C@_1CK@LFHOGGAL@?$AAd?$AAe?$AAc?$AAo?$AAd?$AAe?$AA_?$AAs?$AAh?$AAa?$AAr?$AAi?$AAn?$AAg?$AA_?$AAf?$AAl?$AAa?$AAg?$AAs?$AA?$AA@ 004e6210     libucrtd:open.obj
 0002:00021244       ??_C@_1BK@MIHMAFGB@?$AAi?$AAs?$AA_?$AAt?$AAe?$AAx?$AAt?$AA_?$AAm?$AAo?$AAd?$AAe?$AA?$AA@ 004e6244     libucrtd:open.obj
 0002:00021264       ??_C@_1CG@ICBEBDJJ@?$AA_?$AAg?$AAe?$AAt?$AA_?$AAf?$AAm?$AAo?$AAd?$AAe?$AA?$CI?$AA?$CG?$AAf?$AAm?$AAo?$AAd?$AAe?$AA?$CJ?$AA?$AA@ 004e6264     libucrtd:open.obj
 0002:00021294       ??_C@_1CI@FIBMFMKJ@?$AAc?$AAo?$AAn?$AAf?$AAi?$AAg?$AAu?$AAr?$AAe?$AA_?$AAt?$AAe?$AAx?$AAt?$AA_?$AAm?$AAo?$AAd?$AAe?$AA?$AA@ 004e6294     libucrtd:open.obj
 0002:000212c4       ??_C@_1DM@GAGCJPHI@?$AA?$CI?$AAo?$AAf?$AAl?$AAa?$AAg?$AA?5?$AA?$CG?$AA?5?$AAt?$AAe?$AAx?$AAt?$AA_?$AAm?$AAo?$AAd?$AAe?$AA_?$AAm?$AAa?$AAs?$AAk?$AA?$CJ?$AA?5?$AA?$CB?$AA?$DN?$AA?5?$AA0?$AA?$AA@ 004e62c4     libucrtd:open.obj
 0002:0002130c       ??_C@_1CM@IDLMKMPG@?$AA0?$AA?5?$AA?$CG?$AA?$CG?$AA?5?$AA?$CC?$AAI?$AAn?$AAt?$AAe?$AAr?$AAn?$AAa?$AAl?$AA?5?$AAE?$AAr?$AAr?$AAo?$AAr?$AA?$CC?$AA?$AA@ 004e630c     libucrtd:open.obj
 0002:00021340       ??_C@_1IA@IENOJNJF@?$AA0?$AA?5?$AA?$CG?$AA?$CG?$AA?5?$AA?$CC?$AAO?$AAn?$AAl?$AAy?$AA?5?$AAU?$AAT?$AAF?$AA?9?$AA1?$AA6?$AA?5?$AAl?$AAi?$AAt?$AAt?$AAl?$AAe?$AA?5?$AAe?$AAn?$AAd?$AAi?$AAa?$AAn?$AA?5@ 004e6340     libucrtd:open.obj
 0002:000213dc       ??_C@_1CA@DFHJGMAL@?$AAp?$AAa?$AAt?$AAh?$AA?5?$AA?$CB?$AA?$DN?$AA?5?$AAn?$AAu?$AAl?$AAl?$AAp?$AAt?$AAr?$AA?$AA@ 004e63dc     libucrtd:open.obj
 0002:00021404       ??_C@_1BI@HOCKOFKK@?$AAc?$AAo?$AAm?$AAm?$AAo?$AAn?$AA_?$AAo?$AAp?$AAe?$AAn?$AA?$AA@ 004e6404     libucrtd:open.obj
 0002:00021420       ??_C@_1BO@CKEBPLGM@?$AAp?$AAf?$AAh?$AA?5?$AA?$CB?$AA?$DN?$AA?5?$AAn?$AAu?$AAl?$AAl?$AAp?$AAt?$AAr?$AA?$AA@ 004e6420     libucrtd:open.obj
 0002:00021444       ??_C@_1CM@DJGGMBLF@?$AAc?$AAo?$AAm?$AAm?$AAo?$AAn?$AA_?$AAs?$AAo?$AAp?$AAe?$AAn?$AA_?$AAd?$AAi?$AAs?$AAp?$AAa?$AAt?$AAc?$AAh?$AA?$AA@ 004e6444     libucrtd:open.obj
 0002:00021478       ??_C@_1FC@KMHFBDGJ@?$AA?$CI?$AAp?$AAm?$AAo?$AAd?$AAe?$AA?5?$AA?$CG?$AA?5?$AA?$CI?$AA?$HO?$AA?$CI?$AA_?$AAS?$AA_?$AAI?$AAR?$AAE?$AAA?$AAD?$AA?5?$AA?$HM?$AA?5?$AA_?$AAS?$AA_?$AAI?$AAW?$AAR?$AAI?$AAT?$AAE@ 004e6478     libucrtd:open.obj
 0002:000214dc       ??_C@_1DI@OOEEHOBJ@?$AAb?$AAa?$AAs?$AAe?$AA?5?$AA?$CB?$AA?$DN?$AA?5?$AAn?$AAu?$AAl?$AAl?$AAp?$AAt?$AAr?$AA?5?$AA?$HM?$AA?$HM?$AA?5?$AAn?$AAu?$AAm?$AA?5?$AA?$DN?$AA?$DN?$AA?5?$AA0?$AA?$AA@ 004e64dc     libucrtd:qsort.obj
 0002:00021520       ??_C@_1GA@KPPCKKGE@?$AAm?$AAi?$AAn?$AAk?$AAe?$AAr?$AAn?$AAe?$AAl?$AA?2?$AAc?$AAr?$AAt?$AAs?$AA?2?$AAu?$AAc?$AAr?$AAt?$AA?2?$AAs?$AAr?$AAc?$AA?2?$AAa?$AAp?$AAp?$AAc?$AAr?$AAt?$AA?2?$AAs@ 004e6520     libucrtd:qsort.obj
 0002:00021594       ??_C@_1M@INMHODIG@?$AAq?$AAs?$AAo?$AAr?$AAt?$AA?$AA@ 004e6594     libucrtd:qsort.obj
 0002:000215a4       ??_C@_1BE@NJBEBBME@?$AAw?$AAi?$AAd?$AAt?$AAh?$AA?5?$AA?$DO?$AA?5?$AA0?$AA?$AA@ 004e65a4     libucrtd:qsort.obj
 0002:000215bc       ??_C@_1CA@LIDFOMIN@?$AAc?$AAo?$AAm?$AAp?$AA?5?$AA?$CB?$AA?$DN?$AA?5?$AAn?$AAu?$AAl?$AAl?$AAp?$AAt?$AAr?$AA?$AA@ 004e65bc     libucrtd:qsort.obj
 0002:000215e8       ??_C@_1GO@DDOMFNGF@?$AAm?$AAi?$AAn?$AAk?$AAe?$AAr?$AAn?$AAe?$AAl?$AA?2?$AAc?$AAr?$AAt?$AAs?$AA?2?$AAu?$AAc?$AAr?$AAt?$AA?2?$AAs?$AAr?$AAc?$AA?2?$AAd?$AAe?$AAs?$AAk?$AAt?$AAo?$AAp?$AAc@ 004e65e8     libucrtd:mbsdec.obj
 0002:0002166c       ??_C@_1BE@KLNCOLCD@?$AA_?$AAm?$AAb?$AAs?$AAd?$AAe?$AAc?$AA_?$AAl?$AA?$AA@ 004e666c     libucrtd:mbsdec.obj
 0002:00021684       ??_C@_1CG@CMGPGAOD@?$AAc?$AAu?$AAr?$AAr?$AAe?$AAn?$AAt?$AA?5?$AA?$CB?$AA?$DN?$AA?5?$AAn?$AAu?$AAl?$AAl?$AAp?$AAt?$AAr?$AA?$AA@ 004e6684     libucrtd:mbsdec.obj
 0002:000216b4       ??_C@_1CI@CCKDLILB@?$AA_?$AAs?$AAt?$AAr?$AAi?$AAn?$AAg?$AA1?$AA?5?$AA?$CB?$AA?$DN?$AA?5?$AAn?$AAu?$AAl?$AAl?$AAp?$AAt?$AAr?$AA?$AA@ 004e66b4     libucrtd:wcsnicol.obj
 0002:000216e8       ??_C@_1GG@MDOKJCAE@?$AAm?$AAi?$AAn?$AAk?$AAe?$AAr?$AAn?$AAe?$AAl?$AA?2?$AAc?$AAr?$AAt?$AAs?$AA?2?$AAu?$AAc?$AAr?$AAt?$AA?2?$AAs?$AAr?$AAc?$AA?2?$AAa?$AAp?$AAp?$AAc?$AAr?$AAt?$AA?2?$AAs@ 004e66e8     libucrtd:wcsnicol.obj
 0002:00021764       ??_C@_1BK@EONLMOKH@?$AA_?$AAw?$AAc?$AAs?$AAn?$AAi?$AAc?$AAo?$AAl?$AAl?$AA_?$AAl?$AA?$AA@ 004e6764     libucrtd:wcsnicol.obj
 0002:00021784       ??_C@_1CI@NAPEFFEJ@?$AA_?$AAs?$AAt?$AAr?$AAi?$AAn?$AAg?$AA2?$AA?5?$AA?$CB?$AA?$DN?$AA?5?$AAn?$AAu?$AAl?$AAl?$AAp?$AAt?$AAr?$AA?$AA@ 004e6784     libucrtd:wcsnicol.obj
 0002:000217b4       ??_C@_1BG@PCPANGGF@?$AA_?$AAw?$AAc?$AAs?$AAn?$AAi?$AAc?$AAo?$AAl?$AAl?$AA?$AA@ 004e67b4     libucrtd:wcsnicol.obj
 0002:000217d0       ??_C@_1GG@LACFCIFA@?$AAm?$AAi?$AAn?$AAk?$AAe?$AAr?$AAn?$AAe?$AAl?$AA?2?$AAc?$AAr?$AAt?$AAs?$AA?2?$AAu?$AAc?$AAr?$AAt?$AA?2?$AAs?$AAr?$AAc?$AA?2?$AAa?$AAp?$AAp?$AAc?$AAr?$AAt?$AA?2?$AAs@ 004e67d0     libucrtd:strnicol.obj
 0002:0002184c       ??_C@_1BK@IOJEBPLP@?$AA_?$AAs?$AAt?$AAr?$AAn?$AAi?$AAc?$AAo?$AAl?$AAl?$AA_?$AAl?$AA?$AA@ 004e684c     libucrtd:strnicol.obj
 0002:0002186c       ??_C@_0DJ@JBBOOIAE@minkernel?2crts?2ucrt?2src?2appcrt?2l@ 004e686c     libucrtd:getlocaleinfoa.obj
 0002:000218b0       ??_C@_1HC@KAIIOBKJ@?$AAm?$AAi?$AAn?$AAk?$AAe?$AAr?$AAn?$AAe?$AAl?$AA?2?$AAc?$AAr?$AAt?$AAs?$AA?2?$AAu?$AAc?$AAr?$AAt?$AA?2?$AAs?$AAr?$AAc?$AA?2?$AAa?$AAp?$AAp?$AAc?$AAr?$AAt?$AA?2?$AAl@ 004e68b0     libucrtd:getlocaleinfoa.obj
 0002:00021938       ??_C@_1CM@LGLMFNOK@?$AA_?$AA_?$AAa?$AAc?$AAr?$AAt?$AA_?$AAG?$AAe?$AAt?$AAL?$AAo?$AAc?$AAa?$AAl?$AAe?$AAI?$AAn?$AAf?$AAo?$AAA?$AA?$AA@ 004e6938     libucrtd:getlocaleinfoa.obj
 0002:00021970       ??_C@_1IM@HJPPDDKJ@?$AAs?$AAt?$AAr?$AAn?$AAc?$AAp?$AAy?$AA_?$AAs?$AA?$CI?$AA?$CK?$AAc?$AAh?$AAa?$AAr?$AA_?$AAr?$AAe?$AAs?$AAu?$AAl?$AAt?$AA?0?$AA?5?$AAl?$AAo?$AAc?$AAa?$AAl?$AA_?$AAl?$AAe@ 004e6970     libucrtd:getlocaleinfoa.obj
 0002:00021a18       ??_C@_1GE@FNNJGCGI@?$AAm?$AAi?$AAn?$AAk?$AAe?$AAr?$AAn?$AAe?$AAl?$AA?2?$AAc?$AAr?$AAt?$AAs?$AA?2?$AAu?$AAc?$AAr?$AAt?$AA?2?$AAs?$AAr?$AAc?$AA?2?$AAa?$AAp?$AAp?$AAc?$AAr?$AAt?$AA?2?$AAs@ 004e6a18     libucrtd:wcsicmp.obj
 0002:00021a90       ??_C@_1BG@EELGPCPD@?$AA_?$AAw?$AAc?$AAs?$AAi?$AAc?$AAm?$AAp?$AA_?$AAl?$AA?$AA@ 004e6a90     libucrtd:wcsicmp.obj
 0002:00021aac       ??_C@_1BC@NHIBDOMC@?$AA_?$AAw?$AAc?$AAs?$AAi?$AAc?$AAm?$AAp?$AA?$AA@ 004e6aac     libucrtd:wcsicmp.obj
 0002:00021ac4       ??_C@_1BK@FPAMLIDG@?$AAs?$AA?5?$AA?$CB?$AA?$DN?$AA?5?$AAn?$AAu?$AAl?$AAl?$AAp?$AAt?$AAr?$AA?$AA@ 004e6ac4     libucrtd:mbstowcs.obj
 0002:00021ae8       ??_C@_1GI@KABMHNPH@?$AAm?$AAi?$AAn?$AAk?$AAe?$AAr?$AAn?$AAe?$AAl?$AA?2?$AAc?$AAr?$AAt?$AAs?$AA?2?$AAu?$AAc?$AAr?$AAt?$AA?2?$AAs?$AAr?$AAc?$AA?2?$AAa?$AAp?$AAp?$AAc?$AAr?$AAt?$AA?2?$AAc@ 004e6ae8     libucrtd:mbstowcs.obj
 0002:00021b64       ??_C@_1CG@JEHFHLNG@?$AA_?$AAm?$AAb?$AAs?$AAt?$AAo?$AAw?$AAc?$AAs?$AA_?$AAl?$AA_?$AAh?$AAe?$AAl?$AAp?$AAe?$AAr?$AA?$AA@ 004e6b64     libucrtd:mbstowcs.obj
 0002:00021b98       ??_C@_1JM@MEKBACIG@?$AA?$CI?$AAp?$AAw?$AAc?$AAs?$AA?5?$AA?$DN?$AA?$DN?$AA?5?$AAn?$AAu?$AAl?$AAl?$AAp?$AAt?$AAr?$AA?5?$AA?$CG?$AA?$CG?$AA?5?$AAs?$AAi?$AAz?$AAe?$AAI?$AAn?$AAW?$AAo?$AAr?$AAd?$AAs?$AA?5@ 004e6b98     libucrtd:mbstowcs.obj
 0002:00021c54       ??_C@_1BM@PHENIGHD@?$AA_?$AAm?$AAb?$AAs?$AAt?$AAo?$AAw?$AAc?$AAs?$AA_?$AAs?$AA_?$AAl?$AA?$AA@ 004e6c54     libucrtd:mbstowcs.obj
 0002:00021c78       ??_C@_1CM@LLECFMFH@?$AAb?$AAu?$AAf?$AAf?$AAe?$AAr?$AAS?$AAi?$AAz?$AAe?$AA?5?$AA?$DM?$AA?$DN?$AA?5?$AAI?$AAN?$AAT?$AA_?$AAM?$AAA?$AAX?$AA?$AA@ 004e6c78     libucrtd:mbstowcs.obj
 0002:00021cac       ??_C@_1CO@JNPEPJAL@?$AAr?$AAe?$AAt?$AAs?$AAi?$AAz?$AAe?$AA?5?$AA?$DM?$AA?$DN?$AA?5?$AAs?$AAi?$AAz?$AAe?$AAI?$AAn?$AAW?$AAo?$AAr?$AAd?$AAs?$AA?$AA@ 004e6cac     libucrtd:mbstowcs.obj
 0002:00021ce4       ??_C@_1CA@NOKNKDIG@?$AAp?$AAw?$AAc?$AAs?$AA?5?$AA?$CB?$AA?$DN?$AA?5?$AAn?$AAu?$AAl?$AAl?$AAp?$AAt?$AAr?$AA?$AA@ 004e6ce4     libucrtd:wcstombs.obj
 0002:00021d10       ??_C@_1GI@EEJDEALP@?$AAm?$AAi?$AAn?$AAk?$AAe?$AAr?$AAn?$AAe?$AAl?$AA?2?$AAc?$AAr?$AAt?$AAs?$AA?2?$AAu?$AAc?$AAr?$AAt?$AA?2?$AAs?$AAr?$AAc?$AA?2?$AAa?$AAp?$AAp?$AAc?$AAr?$AAt?$AA?2?$AAc@ 004e6d10     libucrtd:wcstombs.obj
 0002:00021d8c       ??_C@_1CG@LLJCAOHF@?$AA_?$AAw?$AAc?$AAs?$AAt?$AAo?$AAm?$AAb?$AAs?$AA_?$AAl?$AA_?$AAh?$AAe?$AAl?$AAp?$AAe?$AAr?$AA?$AA@ 004e6d8c     libucrtd:wcstombs.obj
 0002:00021dc0       ??_C@_1JI@DFNKFCLG@?$AA?$CI?$AAd?$AAs?$AAt?$AA?5?$AA?$CB?$AA?$DN?$AA?5?$AAn?$AAu?$AAl?$AAl?$AAp?$AAt?$AAr?$AA?5?$AA?$CG?$AA?$CG?$AA?5?$AAs?$AAi?$AAz?$AAe?$AAI?$AAn?$AAB?$AAy?$AAt?$AAe?$AAs?$AA?5?$AA?$DO@ 004e6dc0     libucrtd:wcstombs.obj
 0002:00021e78       ??_C@_1BM@BDMCLLDL@?$AA_?$AAw?$AAc?$AAs?$AAt?$AAo?$AAm?$AAb?$AAs?$AA_?$AAs?$AA_?$AAl?$AA?$AA@ 004e6e78     libucrtd:wcstombs.obj
 0002:00021e9c       ??_C@_1CM@KEOGBFLI@?$AAs?$AAi?$AAz?$AAe?$AAI?$AAn?$AAB?$AAy?$AAt?$AAe?$AAs?$AA?5?$AA?$DO?$AA?5?$AAr?$AAe?$AAt?$AAs?$AAi?$AAz?$AAe?$AA?$AA@ 004e6e9c     libucrtd:wcstombs.obj
 0002:00021ed0       ??_C@_1FO@KIIHJNFN@?$AAm?$AAi?$AAn?$AAk?$AAe?$AAr?$AAn?$AAe?$AAl?$AA?2?$AAc?$AAr?$AAt?$AAs?$AA?2?$AAu?$AAc?$AAr?$AAt?$AA?2?$AAs?$AAr?$AAc?$AA?2?$AAa?$AAp?$AAp?$AAc?$AAr?$AAt?$AA?2?$AAl@ 004e6ed0     libucrtd:lseek.obj
 0002:00021f40       ??_C@_1BK@JOMBNFIM@?$AAc?$AAo?$AAm?$AAm?$AAo?$AAn?$AA_?$AAl?$AAs?$AAe?$AAe?$AAk?$AA?$AA@ 004e6f40     libucrtd:lseek.obj
 0002:00021f60       ??_C@_1DM@LMLOLGJ@?$AA?$CI?$AA?$CC?$AAI?$AAn?$AAv?$AAa?$AAl?$AAi?$AAd?$AA?5?$AAf?$AAi?$AAl?$AAe?$AA?5?$AAd?$AAe?$AAs?$AAc?$AAr?$AAi?$AAp?$AAt?$AAo?$AAr?$AA?$CC?$AA?0?$AA0?$AA?$CJ?$AA?$AA@ 004e6f60     libucrtd:lseek.obj
 0002:00022018       ??_C@_1GC@DLDMJFMI@?$AAm?$AAi?$AAn?$AAk?$AAe?$AAr?$AAn?$AAe?$AAl?$AA?2?$AAc?$AAr?$AAt?$AAs?$AA?2?$AAu?$AAc?$AAr?$AAt?$AA?2?$AAs?$AAr?$AAc?$AA?2?$AAa?$AAp?$AAp?$AAc?$AAr?$AAt?$AA?2?$AAs@ 004e7018     libucrtd:_getbuf.obj
 0002:00022090       ??_C@_0DB@LKJPMJPL@minkernel?2crts?2ucrt?2src?2appcrt?2s@ 004e7090     libucrtd:_getbuf.obj
 0002:000220d0       ??_C@_1KG@LJECICMN@?$AAs?$AAt?$AAa?$AAt?$AAi?$AAc?$AA_?$AAc?$AAa?$AAs?$AAt?$AA?$DM?$AAv?$AAo?$AAi?$AAd?$AA?5?$AAc?$AAo?$AAn?$AAs?$AAt?$AA?$CK?$AA?$DO?$AA?$CI?$AAs?$AAo?$AAu?$AAr?$AAc?$AAe?$AA_@ 004e70d0     libucrtd:read.obj
 0002:00022198       ??_C@_1FM@PHKGHLIO@?$AAm?$AAi?$AAn?$AAk?$AAe?$AAr?$AAn?$AAe?$AAl?$AA?2?$AAc?$AAr?$AAt?$AAs?$AA?2?$AAu?$AAc?$AAr?$AAt?$AA?2?$AAs?$AAr?$AAc?$AA?2?$AAa?$AAp?$AAp?$AAc?$AAr?$AAt?$AA?2?$AAl@ 004e7198     libucrtd:read.obj
 0002:00022208       ??_C@_1M@NHJOLLDM@?$AA_?$AAr?$AAe?$AAa?$AAd?$AA?$AA@ 004e7208     libucrtd:read.obj
 0002:00022218       ??_C@_1CO@OPEPDLLF@?$AAb?$AAu?$AAf?$AAf?$AAe?$AAr?$AA_?$AAs?$AAi?$AAz?$AAe?$AA?5?$AA?$DM?$AA?$DN?$AA?5?$AAI?$AAN?$AAT?$AA_?$AAM?$AAA?$AAX?$AA?$AA@ 004e7218     libucrtd:read.obj
 0002:00022250       ??_C@_1BK@JJBHNDKJ@?$AA_?$AAr?$AAe?$AAa?$AAd?$AA_?$AAn?$AAo?$AAl?$AAo?$AAc?$AAk?$AA?$AA@ 004e7250     libucrtd:read.obj
 0002:00022270       ??_C@_1DM@JEAHBMKI@?$AAr?$AAe?$AAs?$AAu?$AAl?$AAt?$AA_?$AAb?$AAu?$AAf?$AAf?$AAe?$AAr?$AA_?$AAs?$AAi?$AAz?$AAe?$AA?5?$AA?$DM?$AA?$DN?$AA?5?$AAI?$AAN?$AAT?$AA_?$AAM?$AAA?$AAX?$AA?$AA@ 004e7270     libucrtd:read.obj
 0002:000222b8       ??_C@_1DI@CDGOMPDO@?$AAr?$AAe?$AAs?$AAu?$AAl?$AAt?$AA_?$AAb?$AAu?$AAf?$AAf?$AAe?$AAr?$AA_?$AAs?$AAi?$AAz?$AAe?$AA?5?$AA?$CF?$AA?5?$AA2?$AA?5?$AA?$DN?$AA?$DN?$AA?5?$AA0?$AA?$AA@ 004e72b8     libucrtd:read.obj
 0002:000222fc       ??_C@_0CO@JFNFJHLC@minkernel?2crts?2ucrt?2src?2appcrt?2l@ 004e72fc     libucrtd:read.obj
 0002:00022334       ??_C@_1DM@HGBOAKPP@?$AA?$CI?$AAr?$AAe?$AAs?$AAu?$AAl?$AAt?$AA_?$AAb?$AAu?$AAf?$AAf?$AAe?$AAr?$AA_?$AAs?$AAi?$AAz?$AAe?$AA?5?$AA?$CF?$AA?5?$AA2?$AA?$CJ?$AA?5?$AA?$DN?$AA?$DN?$AA?5?$AA0?$AA?$AA@ 004e7334     libucrtd:read.obj
 0002:00022380       ??_C@_1HK@GGMCFJDH@?$AAm?$AAi?$AAn?$AAk?$AAe?$AAr?$AAn?$AAe?$AAl?$AA?2?$AAc?$AAr?$AAt?$AAs?$AA?2?$AAu?$AAc?$AAr?$AAt?$AA?2?$AAs?$AAr?$AAc?$AA?2?$AAa?$AAp?$AAp?$AAc?$AAr?$AAt?$AA?2?$AAi@ 004e7380     libucrtd:string_utilities.obj
 0002:00022418       ??_C@_1EA@EAGMBFGP@?$AA_?$AA_?$AAa?$AAc?$AAr?$AAt?$AA_?$AAc?$AAo?$AAp?$AAy?$AA_?$AAp?$AAa?$AAt?$AAh?$AA_?$AAt?$AAo?$AA_?$AAw?$AAi?$AAd?$AAe?$AA_?$AAs?$AAt?$AAr?$AAi?$AAn?$AAg?$AA?$AA@ 004e7418     libucrtd:string_utilities.obj
 0002:00022464       ??_C@_0DN@PGJNBGOL@minkernel?2crts?2ucrt?2src?2appcrt?2i@ 004e7464     libucrtd:string_utilities.obj
 0002:000224b0       ??_C@_1CI@FCAFEBFO@?$AA_?$AA_?$AAa?$AAc?$AAr?$AAt?$AA_?$AAc?$AAo?$AAp?$AAy?$AA_?$AAt?$AAo?$AA_?$AAc?$AAh?$AAa?$AAr?$AA?$AA@ 004e74b0     libucrtd:string_utilities.obj
 0002:000224e0       ??_C@_1GA@EAHLKLIP@?$AAm?$AAi?$AAn?$AAk?$AAe?$AAr?$AAn?$AAe?$AAl?$AA?2?$AAc?$AAr?$AAt?$AAs?$AA?2?$AAu?$AAc?$AAr?$AAt?$AA?2?$AAs?$AAr?$AAc?$AA?2?$AAa?$AAp?$AAp?$AAc?$AAr?$AAt?$AA?2?$AAl@ 004e74e0     libucrtd:chsize.obj
 0002:00022554       ??_C@_1BE@MAFDNGED@?$AA_?$AAc?$AAh?$AAs?$AAi?$AAz?$AAe?$AA_?$AAs?$AA?$AA@ 004e7554     libucrtd:chsize.obj
 0002:0002256c       ??_C@_1BI@GALBKMKE@?$AA?$CI?$AAs?$AAi?$AAz?$AAe?$AA?5?$AA?$DO?$AA?$DN?$AA?5?$AA0?$AA?$CJ?$AA?$AA@ 004e756c     libucrtd:chsize.obj
 0002:00022588       ??_C@_0DA@IEKPAGFB@minkernel?2crts?2ucrt?2src?2appcrt?2l@ 004e7588     libucrtd:chsize.obj
 0002:000225c4       ??_C@_1CI@BIJNNBKA@?$AAo?$AAl?$AAd?$AA_?$AAm?$AAo?$AAd?$AAe?$AA?5?$AA?$CB?$AA?$DN?$AA?5?$AAn?$AAu?$AAl?$AAl?$AAp?$AAt?$AAr?$AA?$AA@ 004e75c4     libucrtd:umask.obj
 0002:000225f8       ??_C@_1FO@MNDCKOEA@?$AAm?$AAi?$AAn?$AAk?$AAe?$AAr?$AAn?$AAe?$AAl?$AA?2?$AAc?$AAr?$AAt?$AAs?$AA?2?$AAu?$AAc?$AAr?$AAt?$AA?2?$AAs?$AAr?$AAc?$AA?2?$AAa?$AAp?$AAp?$AAc?$AAr?$AAt?$AA?2?$AAl@ 004e75f8     libucrtd:umask.obj
 0002:00022668       ??_C@_1BC@MDPHDOJO@?$AA_?$AAu?$AAm?$AAa?$AAs?$AAk?$AA_?$AAs?$AA?$AA@ 004e7668     libucrtd:umask.obj
 0002:00022680       ??_C@_1EM@IJPIKCNL@?$AA?$CI?$AAm?$AAo?$AAd?$AAe?$AA?5?$AA?$CG?$AA?5?$AA?$HO?$AA?$CI?$AA_?$AAS?$AA_?$AAI?$AAR?$AAE?$AAA?$AAD?$AA?5?$AA?$HM?$AA?5?$AA_?$AAS?$AA_?$AAI?$AAW?$AAR?$AAI?$AAT?$AAE?$AA?$CJ?$AA?$CJ@ 004e7680     libucrtd:umask.obj
 0002:000226e0       ??_C@_1HK@ELDMAMK@?$AAc?$AAc?$AAh?$AAC?$AAo?$AAu?$AAn?$AAt?$AA1?$AA?$DN?$AA?$DN?$AA0?$AA?5?$AA?$CG?$AA?$CG?$AA?5?$AAc?$AAc?$AAh?$AAC?$AAo?$AAu?$AAn?$AAt?$AA2?$AA?$DN?$AA?$DN?$AA1?$AA?5?$AA?$HM?$AA?$HM?$AA?5@ 004e76e0     libucrtd:comparestringa.obj
 0002:00022778       ??_C@_1HC@NLKDIKED@?$AAm?$AAi?$AAn?$AAk?$AAe?$AAr?$AAn?$AAe?$AAl?$AA?2?$AAc?$AAr?$AAt?$AAs?$AA?2?$AAu?$AAc?$AAr?$AAt?$AA?2?$AAs?$AAr?$AAc?$AA?2?$AAa?$AAp?$AAp?$AAc?$AAr?$AAt?$AA?2?$AAl@ 004e7778     libucrtd:comparestringa.obj
 0002:00022800       ??_C@_0DJ@MBLHFEOE@minkernel?2crts?2ucrt?2src?2appcrt?2l@ 004e7800     libucrtd:comparestringa.obj
 0002:00022844       ??_C@_1BA@BALFACEM@?$AAC?$AAO?$AAN?$AAO?$AAU?$AAT?$AA$?$AA?$AA@ 004e7844     libucrtd:initcon.obj
 0002:000229a0       __infinity                 004e79a0     libucrtd:87tran.obj
 0002:000229aa       __minfinity                004e79aa     libucrtd:87tran.obj
 0002:000229b4       __logemax                  004e79b4     libucrtd:87tran.obj
 0002:000229da       __OP_EXPjmptab             004e79da     libucrtd:87tran.obj
 0002:00022a18       __DEFAULT_CW_in_mem        004e7a18     libucrtd:common.obj
 0002:00022a1a       __pi_by_2_to_61            004e7a1a     libucrtd:common.obj
 0002:00022b00       ___acrt_log10_table_t      004e7b00     libucrtd:log10_tables.obj
 0002:00022fe0       ___acrt_log10_table_cb     004e7fe0     libucrtd:log10_tables.obj
 0002:000234c0       __real@4000000000000000    004e84c0     libucrtd:powhlp.obj
 0002:00023540       ??_7type_info@@6B@         004e8540     LIBCMTD:std_type_info_static.obj
 0002:00023548       __pDestructExceptionObject 004e8548     libvcruntimed:frame.obj
 0002:00023550       ??_7exception@std@@6B@     004e8550     libvcruntimed:frame.obj
 0002:0002355c       ??_C@_0BC@EOODALEL@Unknown?5exception?$AA@ 004e855c     libvcruntimed:frame.obj
 0002:00023578       ??_7bad_exception@std@@6B@ 004e8578     libvcruntimed:frame.obj
 0002:00023584       ??_C@_0O@DPKOEFFH@bad?5exception?$AA@ 004e8584     libvcruntimed:frame.obj
 0002:00023598       ??_C@_1FK@OACNEHHA@?$AAt?$AAo?$AA?9?$AA?$DO?$AA_?$AAW?$AAh?$AAa?$AAt?$AA?5?$AA?$DN?$AA?$DN?$AA?5?$AAn?$AAu?$AAl?$AAl?$AAp?$AAt?$AAr?$AA?5?$AA?$CG?$AA?$CG?$AA?5?$AAt?$AAo?$AA?9?$AA?$DO?$AA_?$AAD?$AAo?$AAF@ 004e8598     libvcruntimed:std_exception.obj
 0002:00023608       ??_C@_1GK@GJEBHBCE@?$AAf?$AA?3?$AA?2?$AAd?$AAd?$AA?2?$AAv?$AAc?$AAt?$AAo?$AAo?$AAl?$AAs?$AA?2?$AAc?$AAr?$AAt?$AA?2?$AAv?$AAc?$AAr?$AAu?$AAn?$AAt?$AAi?$AAm?$AAe?$AA?2?$AAs?$AAr?$AAc?$AA?2@ 004e8608     libvcruntimed:std_exception.obj
 0002:000236e8       __load_config_used         004e86e8     LIBCMTD:loadcfg.obj
 0002:00023dc4       ??_R4DNameNode@@6B@        004e8dc4     libvcruntimed:undname.obj
 0002:00023ddc       ??_R3DNameNode@@8          004e8ddc     libvcruntimed:undname.obj
 0002:00023df0       ??_R2DNameNode@@8          004e8df0     libvcruntimed:undname.obj
 0002:00023df8       ??_R1A@?0A@EA@DNameNode@@8 004e8df8     libvcruntimed:undname.obj
 0002:00023e1c       ??_R4charNode@@6B@         004e8e1c     libvcruntimed:undname.obj
 0002:00023e34       ??_R3charNode@@8           004e8e34     libvcruntimed:undname.obj
 0002:00023e48       ??_R2charNode@@8           004e8e48     libvcruntimed:undname.obj
 0002:00023e54       ??_R1A@?0A@EA@charNode@@8  004e8e54     libvcruntimed:undname.obj
 0002:00023e78       ??_R4pcharNode@@6B@        004e8e78     libvcruntimed:undname.obj
 0002:00023e90       ??_R3pcharNode@@8          004e8e90     libvcruntimed:undname.obj
 0002:00023ea4       ??_R2pcharNode@@8          004e8ea4     libvcruntimed:undname.obj
 0002:00023eb0       ??_R1A@?0A@EA@pcharNode@@8 004e8eb0     libvcruntimed:undname.obj
 0002:00023ed4       ??_R4pDNameNode@@6B@       004e8ed4     libvcruntimed:undname.obj
 0002:00023eec       ??_R3pDNameNode@@8         004e8eec     libvcruntimed:undname.obj
 0002:00023f00       ??_R2pDNameNode@@8         004e8f00     libvcruntimed:undname.obj
 0002:00023f0c       ??_R1A@?0A@EA@pDNameNode@@8 004e8f0c     libvcruntimed:undname.obj
 0002:00023f30       ??_R4DNameStatusNode@@6B@  004e8f30     libvcruntimed:undname.obj
 0002:00023f48       ??_R3DNameStatusNode@@8    004e8f48     libvcruntimed:undname.obj
 0002:00023f5c       ??_R2DNameStatusNode@@8    004e8f5c     libvcruntimed:undname.obj
 0002:00023f68       ??_R1A@?0A@EA@DNameStatusNode@@8 004e8f68     libvcruntimed:undname.obj
 0002:00023f8c       ??_R4pairNode@@6B@         004e8f8c     libvcruntimed:undname.obj
 0002:00023fa4       ??_R3pairNode@@8           004e8fa4     libvcruntimed:undname.obj
 0002:00023fb8       ??_R2pairNode@@8           004e8fb8     libvcruntimed:undname.obj
 0002:00023fc4       ??_R1A@?0A@EA@pairNode@@8  004e8fc4     libvcruntimed:undname.obj
 0002:00023fe8       ??_R4type_info@@6B@        004e8fe8     LIBCMTD:std_type_info_static.obj
 0002:00024000       ??_R3type_info@@8          004e9000     LIBCMTD:std_type_info_static.obj
 0002:00024014       ??_R2type_info@@8          004e9014     LIBCMTD:std_type_info_static.obj
 0002:0002401c       ??_R1A@?0A@EA@type_info@@8 004e901c     LIBCMTD:std_type_info_static.obj
 0002:00024040       ??_R4exception@std@@6B@    004e9040     libvcruntimed:frame.obj
 0002:00024058       ??_R3exception@std@@8      004e9058     libvcruntimed:frame.obj
 0002:0002406c       ??_R2exception@std@@8      004e906c     libvcruntimed:frame.obj
 0002:00024074       ??_R1A@?0A@EA@exception@std@@8 004e9074     libvcruntimed:frame.obj
 0002:00024098       ??_R4bad_exception@std@@6B@ 004e9098     libvcruntimed:frame.obj
 0002:000240b0       ??_R3bad_exception@std@@8  004e90b0     libvcruntimed:frame.obj
 0002:000240c4       ??_R2bad_exception@std@@8  004e90c4     libvcruntimed:frame.obj
 0002:000240d0       ??_R1A@?0A@EA@bad_exception@std@@8 004e90d0     libvcruntimed:frame.obj
 0002:00024210       ___safe_se_handler_table   004e9210     <linker-defined>
 0002:00024340       ?_TraceLoggingMetadata@?1??_TlgWrite@__vcrt_trace_logging_provider@@YAJPBU_TlgProvider_t@2@PBXPBU_GUID@@2IPAU_EVENT_DATA_DESCRIPTOR@@@Z@4U_TraceLoggingMetadata_t@2@B 004e9340     libvcruntimed:telemetry.obj
 0002:00024715       ?_TraceLoggingMetadataEnd@?1??_TlgWrite@__vcrt_trace_logging_provider@@YAJPBU_TlgProvider_t@2@PBXPBU_GUID@@2IPAU_EVENT_DATA_DESCRIPTOR@@@Z@4EB 004e9715     libvcruntimed:telemetry.obj
 0002:000249c4       ___rtc_iaa                 004e99c4     LIBCMTD:_initsect_.obj
 0002:00024ac8       ___rtc_izz                 004e9ac8     LIBCMTD:_initsect_.obj
 0002:00024bcc       ___rtc_taa                 004e9bcc     LIBCMTD:_initsect_.obj
 0002:00024cd0       ___rtc_tzz                 004e9cd0     LIBCMTD:_initsect_.obj
 0002:00025af8       __TI2?AVbad_exception@std@@ 004eaaf8     libvcruntimed:frame.obj
 0002:00025b0c       __CTA2?AVbad_exception@std@@ 004eab0c     libvcruntimed:frame.obj
 0002:00025b1c       __CT??_R0?AVbad_exception@std@@@8??0bad_exception@std@@QAE@ABV01@@Z12 004eab1c     libvcruntimed:frame.obj
 0002:00025b3c       __CT??_R0?AVexception@std@@@8??0exception@std@@QAE@ABV01@@Z12 004eab3c     libvcruntimed:frame.obj
 0003:00001cf4       _arg_type                  004eccf4     pjlib-util-i386-win32-vc14-debug:cli.obj
 0003:0000a1ac       _PJ_VERSION                004f51ac     pjlib-i386-win32-vc14-debug:config.obj
 0003:0000b3bc       _pj_pool_factory_default_policy 004f63bc     pjlib-i386-win32-vc14-debug:pool_policy_malloc.obj
 0003:0000b86c       ___security_cookie_complement 004f686c     LIBCMTD:gs_cookie.obj
 0003:0000b870       ___security_cookie         004f6870     LIBCMTD:gs_cookie.obj
 0003:0000b880       __fltused                  004f6880     LIBCMTD:fltused.obj
 0003:0000b890       ___scrt_native_dllmain_reason 004f6890     LIBCMTD:utility.obj
 0003:0000b894       ___scrt_default_matherr    004f6894     LIBCMTD:matherr.obj
 0003:0000b898       ___isa_enabled             004f6898     LIBCMTD:_cpu_disp_.obj
 0003:0000b8f0       __NLG_Destination          004f68f0     libvcruntimed:_exsup_.obj
 0003:0000b920       __iob                      004f6920     libucrtd:_file.obj
 0003:0000b9f8       __crtDbgFlag               004f69f8     libucrtd:debug_heap.obj
 0003:0000b9fc       __crtBreakAlloc            004f69fc     libucrtd:debug_heap.obj
 0003:0000ba00       ___abort_behavior          004f6a00     libucrtd:abort.obj
 0003:0000ba14       ___mb_cur_max              004f6a14     libucrtd:nlsdata.obj
 0003:0000ba18       ___acrt_initial_locale_data 004f6a18     libucrtd:nlsdata.obj
 0003:0000baf4       ___acrt_initial_locale_pointers 004f6af4     libucrtd:nlsdata.obj
 0003:0000bb00       ___acrt_wide_c_locale_string 004f6b00     libucrtd:nlsdata.obj
 0003:0000bb08       ___badioinfo               004f6b08     libucrtd:ioinit.obj
 0003:0000bc78       __mbctype                  004f6c78     libucrtd:mbctype.obj
 0003:0000bdb0       __mbcasemap                004f6db0     libucrtd:mbctype.obj
 0003:0000bee8       ___acrt_initial_multibyte_data 004f6ee8     libucrtd:mbctype.obj
 0003:0000c174       ___acrt_current_multibyte_data 004f7174     libucrtd:mbctype.obj
 0003:0000c178       __pctype                   004f7178     libucrtd:ctype.obj
 0003:0000c17c       __pwctype                  004f717c     libucrtd:ctype.obj
 0003:0000c180       ___acrt_lconv_static_decimal 004f7180     libucrtd:localeconv.obj
 0003:0000c184       ___acrt_lconv_static_W_decimal 004f7184     libucrtd:localeconv.obj
 0003:0000c188       ___acrt_lconv_c            004f7188     libucrtd:localeconv.obj
 0003:0000c1e8       ___acrt_lconv              004f71e8     libucrtd:localeconv.obj
 0003:0000c1ec       ___globallocalestatus      004f71ec     libucrtd:glstatus.obj
 0003:0000c1f8       __pfnAllocHook             004f71f8     libucrtd:debug_heap_hook.obj
 0003:0000c1fc       __CrtDbgMode               004f71fc     libucrtd:dbgrptt.obj
 0003:0000c20c       __CrtDbgFile               004f720c     libucrtd:dbgrptt.obj
 0003:0000c21c       __crtAssertBusy            004f721c     libucrtd:dbgrptt.obj
 0003:0000c220       __lookuptrailbytes         004f7220     libucrtd:read.obj
 0003:0000c354       ___dcrt_lowio_console_output_handle 004f7354     libucrtd:initcon.obj
 0003:0000c4b4       ??_R0?AVDNameNode@@@8      004f74b4     libvcruntimed:undname.obj
 0003:0000c4d0       ??_R0?AVcharNode@@@8       004f74d0     libvcruntimed:undname.obj
 0003:0000c4ec       ??_R0?AVpcharNode@@@8      004f74ec     libvcruntimed:undname.obj
 0003:0000c508       ??_R0?AVpDNameNode@@@8     004f7508     libvcruntimed:undname.obj
 0003:0000c528       ??_R0?AVDNameStatusNode@@@8 004f7528     libvcruntimed:undname.obj
 0003:0000c54c       ??_R0?AVpairNode@@@8       004f754c     libvcruntimed:undname.obj
 0003:0000c568       ??_R0?AVtype_info@@@8      004f7568     LIBCMTD:std_type_info_static.obj
 0003:0000c584       ??_R0?AVbad_exception@std@@@8 004f7584     libvcruntimed:frame.obj
 0003:0000c5ac       ??_R0?AVexception@std@@@8  004f75ac     libvcruntimed:frame.obj
 0003:0000c5d0       ??_R0?AVbad_alloc@std@@@8  004f75d0     libvcruntimed:frame.obj
 0003:0000cf14       ___scrt_current_native_startup_state 004f7f14     LIBCMTD:utility.obj
 0003:0000cf18       ___scrt_native_startup_lock 004f7f18     LIBCMTD:utility.obj
 0003:0000cf40       ?__type_info_root_node@@3U__type_info_node@@A 004f7f40     LIBCMTD:tncleanup.obj
 0003:0000cf50       ?_OptionsStorage@?1??__local_stdio_printf_options@@9@4_KA 004f7f50     LIBCMTD:default_local_stdio_options.obj
 0003:0000cf60       ?_OptionsStorage@?1??__local_stdio_scanf_options@@9@4_KA 004f7f60     LIBCMTD:default_local_stdio_options.obj
 0003:0000cf6c       ___scrt_debugger_hook_flag 004f7f6c     LIBCMTD:utility_desktop.obj
 0003:0000cf70       ___isa_available           004f7f70     LIBCMTD:_cpu_disp_.obj
 0003:0000cf74       ___favor                   004f7f74     LIBCMTD:_cpu_disp_.obj
 0003:0000d010       ___pPurecall               004f8010     libvcruntimed:purevirt_data.obj
 0003:0000d014       ?pArgList@UnDecorator@@0PAVReplicator@@A 004f8014     libvcruntimed:undname.obj
 0003:0000d018       ?pZNameList@UnDecorator@@0PAVReplicator@@A 004f8018     libvcruntimed:undname.obj
 0003:0000d01c       ?pTemplateArgList@UnDecorator@@0PAVReplicator@@A 004f801c     libvcruntimed:undname.obj
 0003:0000d020       ?gName@UnDecorator@@0PBDB  004f8020     libvcruntimed:undname.obj
 0003:0000d024       ?name@UnDecorator@@0PBDB   004f8024     libvcruntimed:undname.obj
 0003:0000d028       ?outputString@UnDecorator@@0PADA 004f8028     libvcruntimed:undname.obj
 0003:0000d02c       ?maxStringLength@UnDecorator@@0HA 004f802c     libvcruntimed:undname.obj
 0003:0000d030       ?disableFlags@UnDecorator@@0KA 004f8030     libvcruntimed:undname.obj
 0003:0000d034       ?fExplicitTemplateParams@UnDecorator@@0_NA 004f8034     libvcruntimed:undname.obj
 0003:0000d035       ?fGetTemplateArgumentList@UnDecorator@@0_NA 004f8035     libvcruntimed:undname.obj
 0003:0000d038       ?m_pGetParameter@UnDecorator@@0P6APADJ@ZA 004f8038     libvcruntimed:undname.obj
 0003:0000d0c0       ?nodes@?1??make@DNameStatusNode@@SAPAV2@W4DNameStatus@@@Z@4PAV2@A 004f80c0     libvcruntimed:undname.obj
 0003:0000d0fc       ??_B?1??make@DNameStatusNode@@SAPAV1@W4DNameStatus@@@Z@51 004f80fc     libvcruntimed:undname.obj
 0003:0000d100       __nstream                  004f8100     libucrtd:_file.obj
 0003:0000d104       ___piob                    004f8104     libucrtd:_file.obj
 0003:0000d10c       __cflush                   004f810c     libucrtd:_file.obj
 0003:0000dc34       __environ_table            004f8c34     libucrtd:environment_initialization.obj
 0003:0000dc38       __wenviron_table           004f8c38     libucrtd:environment_initialization.obj
 0003:0000dc40       ___dcrt_initial_wide_environment 004f8c40     libucrtd:environment_initialization.obj
 0003:0000dc44       ___dcrt_initial_narrow_environment 004f8c44     libucrtd:environment_initialization.obj
 0003:0000dc54       ___argc                    004f8c54     libucrtd:argv_data.obj
 0003:0000dc58       ___argv                    004f8c58     libucrtd:argv_data.obj
 0003:0000dc5c       ___wargv                   004f8c5c     libucrtd:argv_data.obj
 0003:0000dc60       __acmdln                   004f8c60     libucrtd:argv_data.obj
 0003:0000dc64       __wcmdln                   004f8c64     libucrtd:argv_data.obj
 0003:0000dc68       __pgmptr                   004f8c68     libucrtd:argv_data.obj
 0003:0000dc6c       __wpgmptr                  004f8c6c     libucrtd:argv_data.obj
 0003:0000dc70       ___acrt_locale_changed_data 004f8c70     libucrtd:wsetlocale.obj
 0003:0000dc78       __commode                  004f8c78     libucrtd:ncommode.obj
 0003:0000dc7c       ___acrt_atexit_table       004f8c7c     libucrtd:onexit.obj
 0003:0000dc8c       ___acrt_at_quick_exit_table 004f8c8c     libucrtd:onexit.obj
 0003:0000dcb8       __pfnDumpClient            004f8cb8     libucrtd:debug_heap.obj
 0003:0000dce4       ___acrt_stdout_buffer      004f8ce4     libucrtd:_sftbuf.obj
 0003:0000dce8       ___acrt_stderr_buffer      004f8ce8     libucrtd:_sftbuf.obj
 0003:0000dcec       ___acrt_current_locale_data 004f8cec     libucrtd:nlsdata.obj
 0003:0000dcf0       ___pioinfo                 004f8cf0     libucrtd:ioinit.obj
 0003:0000df58       __nhandle                  004f8f58     libucrtd:ioinit.obj
 0003:0000e064       ___mbcodepage              004f9064     libucrtd:mbctype.obj
 0003:0000e068       ___ismbcodepage            004f9068     libucrtd:mbctype.obj
 0003:0000e06c       ___mbulinfo                004f906c     libucrtd:mbctype.obj
 0003:0000e080       ___mblocalename            004f9080     libucrtd:mbctype.obj
 0003:0000e204       __fmode                    004f9204     libucrtd:txtmode.obj
 0003:0000e208       ___acrt_lconv_static_null  004f9208     libucrtd:localeconv.obj
 0003:0000e20c       ___acrt_lconv_static_W_null 004f920c     libucrtd:localeconv.obj
 0003:0000e210       ___acrt_heap               004f9210     libucrtd:heap_handle.obj
 0003:0000e218       __pReportHookListW         004f9218     libucrtd:dbgrptt.obj
 0003:0000e21c       __pfnReportHook            004f921c     libucrtd:dbgrptt.obj
 0003:0000e220       __pReportHookList          004f9220     libucrtd:dbgrptt.obj
 0003:0000e228       ___fastflag                004f9228     libucrtd:fp_flags.obj
 0003:0000e22c       __umaskval                 004f922c     libucrtd:umask.obj
 0003:0000e234       ?g_OutOfMemoryExceptionCallback@@3P6GPAXXZA 004f9234     libvcruntimed:frame.obj
 0003:0000e238       ?_OptionsStorage@?1??__local_stdio_printf_options@@9@9 004f9238     <common>
 0003:0000e24c       _PJ_NO_MEMORY_EXCEPTION    004f924c     <common>
 0003:0000e258       ___scrt_ucrt_dll_is_in_use 004f9258     <common>
 0003:0000e264       ___dyn_tls_dtor_callback   004f9264     <common>
 0003:0000e270       ___dyn_tls_init_callback   004f9270     <common>
 0003:0000e27c       __setjmpexused             004f927c     <common>
 0003:0000e288       __pmatherr                 004f9288     <common>
 0003:0000e294       ___use_sse2_mathfcns       004f9294     <common>
 0004:00000000       __imp__SystemFunction036@8 004fa000     advapi32:ADVAPI32.dll
 0004:00000004       \177ADVAPI32_NULL_THUNK_DATA 004fa004     advapi32:ADVAPI32.dll
 0004:00000030       __imp__SetEndOfFile@4      004fa030     kernel32:KERNEL32.dll
 0004:00000034       __imp__ReadConsoleW@20     004fa034     kernel32:KERNEL32.dll
 0004:00000038       __imp__ReadFile@20         004fa038     kernel32:KERNEL32.dll
 0004:0000003c       __imp__SetFilePointerEx@20 004fa03c     kernel32:KERNEL32.dll
 0004:00000040       __imp__CreateFileW@28      004fa040     kernel32:KERNEL32.dll
 0004:00000044       __imp__GetConsoleMode@8    004fa044     kernel32:KERNEL32.dll
 0004:00000048       __imp__GetConsoleCP@0      004fa048     kernel32:KERNEL32.dll
 0004:0000004c       __imp__FlushFileBuffers@4  004fa04c     kernel32:KERNEL32.dll
 0004:00000050       __imp__HeapQueryInformation@20 004fa050     kernel32:KERNEL32.dll
 0004:00000054       __imp__HeapSize@12         004fa054     kernel32:KERNEL32.dll
 0004:00000058       __imp__HeapReAlloc@16      004fa058     kernel32:KERNEL32.dll
 0004:0000005c       __imp__HeapFree@12         004fa05c     kernel32:KERNEL32.dll
 0004:00000060       __imp__GetProcessHeap@0    004fa060     kernel32:KERNEL32.dll
 0004:00000064       __imp__GetStringTypeW@16   004fa064     kernel32:KERNEL32.dll
 0004:00000068       __imp__SetStdHandle@8      004fa068     kernel32:KERNEL32.dll
 0004:0000006c       __imp__SetEnvironmentVariableW@8 004fa06c     kernel32:KERNEL32.dll
 0004:00000070       __imp__SetEnvironmentVariableA@8 004fa070     kernel32:KERNEL32.dll
 0004:00000074       __imp__FreeEnvironmentStringsW@4 004fa074     kernel32:KERNEL32.dll
 0004:00000078       __imp__GetEnvironmentStringsW@0 004fa078     kernel32:KERNEL32.dll
 0004:0000007c       __imp__GetCPInfo@8         004fa07c     kernel32:KERNEL32.dll
 0004:00000080       __imp__GetOEMCP@0          004fa080     kernel32:KERNEL32.dll
 0004:00000084       __imp__IsValidCodePage@4   004fa084     kernel32:KERNEL32.dll
 0004:00000088       __imp__FindNextFileW@8     004fa088     kernel32:KERNEL32.dll
 0004:0000008c       __imp__FindNextFileA@8     004fa08c     kernel32:KERNEL32.dll
 0004:00000090       __imp__FindFirstFileExW@24 004fa090     kernel32:KERNEL32.dll
 0004:00000094       __imp__FindFirstFileExA@24 004fa094     kernel32:KERNEL32.dll
 0004:00000098       __imp__FindClose@4         004fa098     kernel32:KERNEL32.dll
 0004:0000009c       __imp__EnumSystemLocalesW@8 004fa09c     kernel32:KERNEL32.dll
 0004:000000a0       __imp__GetUserDefaultLCID@0 004fa0a0     kernel32:KERNEL32.dll
 0004:000000a4       __imp__IsValidLocale@8     004fa0a4     kernel32:KERNEL32.dll
 0004:000000a8       __imp__GetLocaleInfoW@16   004fa0a8     kernel32:KERNEL32.dll
 0004:000000ac       __imp__LCMapStringW@24     004fa0ac     kernel32:KERNEL32.dll
 0004:000000b0       __imp__CompareStringW@24   004fa0b0     kernel32:KERNEL32.dll
 0004:000000b4       __imp__GetTimeFormatW@24   004fa0b4     kernel32:KERNEL32.dll
 0004:000000b8       __imp__GetStdHandle@4      004fa0b8     kernel32:KERNEL32.dll
 0004:000000bc       __imp__CloseHandle@4       004fa0bc     kernel32:KERNEL32.dll
 0004:000000c0       __imp__GetLastError@0      004fa0c0     kernel32:KERNEL32.dll
 0004:000000c4       __imp__InitializeCriticalSection@4 004fa0c4     kernel32:KERNEL32.dll
 0004:000000c8       __imp__EnterCriticalSection@4 004fa0c8     kernel32:KERNEL32.dll
 0004:000000cc       __imp__LeaveCriticalSection@4 004fa0cc     kernel32:KERNEL32.dll
 0004:000000d0       __imp__TryEnterCriticalSection@4 004fa0d0     kernel32:KERNEL32.dll
 0004:000000d4       __imp__EncodePointer@4     004fa0d4     kernel32:KERNEL32.dll
 0004:000000d8       __imp__SetEvent@4          004fa0d8     kernel32:KERNEL32.dll
 0004:000000dc       __imp__ResetEvent@4        004fa0dc     kernel32:KERNEL32.dll
 0004:000000e0       __imp__ReleaseSemaphore@12 004fa0e0     kernel32:KERNEL32.dll
 0004:000000e4       __imp__WaitForSingleObject@8 004fa0e4     kernel32:KERNEL32.dll
 0004:000000e8       __imp__CreateEventA@16     004fa0e8     kernel32:KERNEL32.dll
 0004:000000ec       __imp__Sleep@4             004fa0ec     kernel32:KERNEL32.dll
 0004:000000f0       __imp__GetCurrentProcessId@0 004fa0f0     kernel32:KERNEL32.dll
 0004:000000f4       __imp__CreateThread@24     004fa0f4     kernel32:KERNEL32.dll
 0004:000000f8       __imp__GetCurrentThread@0  004fa0f8     kernel32:KERNEL32.dll
 0004:000000fc       __imp__GetCurrentThreadId@0 004fa0fc     kernel32:KERNEL32.dll
 0004:00000100       __imp__SetThreadPriority@8 004fa100     kernel32:KERNEL32.dll
 0004:00000104       __imp__GetThreadPriority@4 004fa104     kernel32:KERNEL32.dll
 0004:00000108       __imp__ResumeThread@4      004fa108     kernel32:KERNEL32.dll
 0004:0000010c       __imp__TlsAlloc@0          004fa10c     kernel32:KERNEL32.dll
 0004:00000110       __imp__TlsGetValue@4       004fa110     kernel32:KERNEL32.dll
 0004:00000114       __imp__TlsSetValue@8       004fa114     kernel32:KERNEL32.dll
 0004:00000118       __imp__TlsFree@4           004fa118     kernel32:KERNEL32.dll
 0004:0000011c       __imp__PulseEvent@4        004fa11c     kernel32:KERNEL32.dll
 0004:00000120       __imp__CreateSemaphoreA@16 004fa120     kernel32:KERNEL32.dll
 0004:00000124       __imp__GetConsoleScreenBufferInfo@8 004fa124     kernel32:KERNEL32.dll
 0004:00000128       __imp__SetConsoleTextAttribute@8 004fa128     kernel32:KERNEL32.dll
 0004:0000012c       __imp__QueryPerformanceCounter@4 004fa12c     kernel32:KERNEL32.dll
 0004:00000130       __imp__QueryPerformanceFrequency@4 004fa130     kernel32:KERNEL32.dll
 0004:00000134       __imp__SetLastError@4      004fa134     kernel32:KERNEL32.dll
 0004:00000138       __imp__FormatMessageA@28   004fa138     kernel32:KERNEL32.dll
 0004:0000013c       __imp__GetLocalTime@4      004fa13c     kernel32:KERNEL32.dll
 0004:00000140       __imp__FileTimeToSystemTime@8 004fa140     kernel32:KERNEL32.dll
 0004:00000144       __imp__SystemTimeToFileTime@8 004fa144     kernel32:KERNEL32.dll
 0004:00000148       __imp__FreeLibrary@4       004fa148     kernel32:KERNEL32.dll
 0004:0000014c       __imp__GetProcAddress@8    004fa14c     kernel32:KERNEL32.dll
 0004:00000150       __imp__LoadLibraryA@4      004fa150     kernel32:KERNEL32.dll
 0004:00000154       __imp__DecodePointer@4     004fa154     kernel32:KERNEL32.dll
 0004:00000158       __imp__SetUnhandledExceptionFilter@4 004fa158     kernel32:KERNEL32.dll
 0004:0000015c       __imp__GetCurrentProcess@0 004fa15c     kernel32:KERNEL32.dll
 0004:00000160       __imp__TerminateProcess@8  004fa160     kernel32:KERNEL32.dll
 0004:00000164       __imp__IsProcessorFeaturePresent@4 004fa164     kernel32:KERNEL32.dll
 0004:00000168       __imp__GetSystemTimeAsFileTime@4 004fa168     kernel32:KERNEL32.dll
 0004:0000016c       __imp__InitializeSListHead@4 004fa16c     kernel32:KERNEL32.dll
 0004:00000170       __imp__IsDebuggerPresent@0 004fa170     kernel32:KERNEL32.dll
 0004:00000174       __imp__GetStartupInfoW@4   004fa174     kernel32:KERNEL32.dll
 0004:00000178       __imp__GetModuleHandleW@4  004fa178     kernel32:KERNEL32.dll
 0004:0000017c       __imp__DeleteCriticalSection@4 004fa17c     kernel32:KERNEL32.dll
 0004:00000180       __imp__UnhandledExceptionFilter@4 004fa180     kernel32:KERNEL32.dll
 0004:00000184       __imp__GetModuleFileNameW@12 004fa184     kernel32:KERNEL32.dll
 0004:00000188       __imp__InterlockedPushEntrySList@8 004fa188     kernel32:KERNEL32.dll
 0004:0000018c       __imp__InterlockedFlushSList@4 004fa18c     kernel32:KERNEL32.dll
 0004:00000190       __imp__RtlUnwind@16        004fa190     kernel32:KERNEL32.dll
 0004:00000194       __imp__InitializeCriticalSectionAndSpinCount@8 004fa194     kernel32:KERNEL32.dll
 0004:00000198       __imp__LoadLibraryExW@12   004fa198     kernel32:KERNEL32.dll
 0004:0000019c       __imp__GetFileType@4       004fa19c     kernel32:KERNEL32.dll
 0004:000001a0       __imp__GetModuleFileNameA@12 004fa1a0     kernel32:KERNEL32.dll
 0004:000001a4       __imp__GetModuleHandleExW@12 004fa1a4     kernel32:KERNEL32.dll
 0004:000001a8       __imp__WriteConsoleW@20    004fa1a8     kernel32:KERNEL32.dll
 0004:000001ac       __imp__WriteFile@20        004fa1ac     kernel32:KERNEL32.dll
 0004:000001b0       __imp__MultiByteToWideChar@24 004fa1b0     kernel32:KERNEL32.dll
 0004:000001b4       __imp__WideCharToMultiByte@32 004fa1b4     kernel32:KERNEL32.dll
 0004:000001b8       __imp__ExitProcess@4       004fa1b8     kernel32:KERNEL32.dll
 0004:000001bc       __imp__GetCommandLineA@0   004fa1bc     kernel32:KERNEL32.dll
 0004:000001c0       __imp__GetCommandLineW@0   004fa1c0     kernel32:KERNEL32.dll
 0004:000001c4       __imp__GetACP@0            004fa1c4     kernel32:KERNEL32.dll
 0004:000001c8       __imp__RaiseException@16   004fa1c8     kernel32:KERNEL32.dll
 0004:000001cc       __imp__HeapAlloc@12        004fa1cc     kernel32:KERNEL32.dll
 0004:000001d0       __imp__HeapValidate@12     004fa1d0     kernel32:KERNEL32.dll
 0004:000001d4       __imp__GetSystemInfo@4     004fa1d4     kernel32:KERNEL32.dll
 0004:000001d8       __imp__OutputDebugStringA@4 004fa1d8     kernel32:KERNEL32.dll
 0004:000001dc       __imp__OutputDebugStringW@4 004fa1dc     kernel32:KERNEL32.dll
 0004:000001e0       __imp__WaitForSingleObjectEx@12 004fa1e0     kernel32:KERNEL32.dll
 0004:000001e4       __imp__SetConsoleCtrlHandler@8 004fa1e4     kernel32:KERNEL32.dll
 0004:000001e8       __imp__GetDateFormatW@24   004fa1e8     kernel32:KERNEL32.dll
 0004:000001ec       \177KERNEL32_NULL_THUNK_DATA 004fa1ec     kernel32:KERNEL32.dll
 0004:00000270       __imp__gethostbyname@4     004fa270     ws2_32:WS2_32.dll
 0004:00000274       __imp__select@20           004fa274     ws2_32:WS2_32.dll
 0004:00000278       __imp____WSAFDIsSet@8      004fa278     ws2_32:WS2_32.dll
 0004:0000027c       __imp__WSASetLastError@4   004fa27c     ws2_32:WS2_32.dll
 0004:00000280       __imp__WSAStringToAddressA@20 004fa280     ws2_32:WS2_32.dll
 0004:00000284       __imp__WSAAddressToStringA@20 004fa284     ws2_32:WS2_32.dll
 0004:00000288       __imp__WSASocketA@24       004fa288     ws2_32:WS2_32.dll
 0004:0000028c       __imp__WSAIoctl@36         004fa28c     ws2_32:WS2_32.dll
 0004:00000290       __imp__gethostname@8       004fa290     ws2_32:WS2_32.dll
 0004:00000294       __imp__shutdown@8          004fa294     ws2_32:WS2_32.dll
 0004:00000298       __imp__setsockopt@20       004fa298     ws2_32:WS2_32.dll
 0004:0000029c       __imp__sendto@24           004fa29c     ws2_32:WS2_32.dll
 0004:000002a0       __imp__send@16             004fa2a0     ws2_32:WS2_32.dll
 0004:000002a4       __imp__recvfrom@24         004fa2a4     ws2_32:WS2_32.dll
 0004:000002a8       __imp__recv@16             004fa2a8     ws2_32:WS2_32.dll
 0004:000002ac       __imp__ntohs@4             004fa2ac     ws2_32:WS2_32.dll
 0004:000002b0       __imp__ntohl@4             004fa2b0     ws2_32:WS2_32.dll
 0004:000002b4       __imp__listen@8            004fa2b4     ws2_32:WS2_32.dll
 0004:000002b8       __imp__inet_ntoa@4         004fa2b8     ws2_32:WS2_32.dll
 0004:000002bc       __imp__inet_addr@4         004fa2bc     ws2_32:WS2_32.dll
 0004:000002c0       __imp__htons@4             004fa2c0     ws2_32:WS2_32.dll
 0004:000002c4       __imp__htonl@4             004fa2c4     ws2_32:WS2_32.dll
 0004:000002c8       __imp__getsockopt@20       004fa2c8     ws2_32:WS2_32.dll
 0004:000002cc       __imp__getsockname@12      004fa2cc     ws2_32:WS2_32.dll
 0004:000002d0       __imp__getpeername@12      004fa2d0     ws2_32:WS2_32.dll
 0004:000002d4       __imp__connect@12          004fa2d4     ws2_32:WS2_32.dll
 0004:000002d8       __imp__closesocket@4       004fa2d8     ws2_32:WS2_32.dll
 0004:000002dc       __imp__bind@12             004fa2dc     ws2_32:WS2_32.dll
 0004:000002e0       __imp__accept@12           004fa2e0     ws2_32:WS2_32.dll
 0004:000002e4       __imp__ioctlsocket@12      004fa2e4     ws2_32:WS2_32.dll
 0004:000002e8       __imp__WSAGetLastError@0   004fa2e8     ws2_32:WS2_32.dll
 0004:000002ec       __imp__WSACleanup@0        004fa2ec     ws2_32:WS2_32.dll
 0004:000002f0       __imp__WSAStartup@8        004fa2f0     ws2_32:WS2_32.dll
 0004:000002f4       \177WS2_32_NULL_THUNK_DATA 004fa2f4     ws2_32:WS2_32.dll
 0004:00000338       __imp__CoCreateGuid@4      004fa338     ole32:ole32.dll
 0004:0000033c       \177ole32_NULL_THUNK_DATA  004fa33c     ole32:ole32.dll
 0004:00000368       __IMPORT_DESCRIPTOR_ole32  004fa368     ole32:ole32.dll
 0004:0000037c       __IMPORT_DESCRIPTOR_WS2_32 004fa37c     ws2_32:WS2_32.dll
 0004:00000390       __IMPORT_DESCRIPTOR_KERNEL32 004fa390     kernel32:KERNEL32.dll
 0004:000003a4       __IMPORT_DESCRIPTOR_ADVAPI32 004fa3a4     advapi32:ADVAPI32.dll
 0004:000003b8       __NULL_IMPORT_DESCRIPTOR   004fa3b8     ole32:ole32.dll
 0005:00000000       ___guard_check_icall_fptr  004fc000     LIBCMTD:guard_support.obj
